
out.elf:     file format elf32-tradlittlemips


Disassembly of section .config_BFC02FF0:

bfc02ff0 <__config_BFC02FF0>:
bfc02ff0:	ff ff fe fa                                         ....

Disassembly of section .config_BFC02FF4:

bfc02ff4 <__config_BFC02FF4>:
bfc02ff4:	d9 79 f8 ff                                         .y..

Disassembly of section .config_BFC02FF8:

bfc02ff8 <__config_BFC02FF8>:
bfc02ff8:	db ce 6c ff                                         ..l.

Disassembly of section .config_BFC02FFC:

bfc02ffc <__config_BFC02FFC>:
bfc02ffc:	ff ff ff 7e                                         ...~

Disassembly of section .reset:

bd001970 <_reset>:
bd001970:	0f40065e 	jal	bd001978 <_startup>
bd001974:	00000000 	nop

bd001978 <_startup>:
bd001978:	401a6000 	mfc0	k0,c0_status
bd00197c:	7f5a04c0 	ext	k0,k0,0x13,0x1
bd001980:	13400005 	beqz	k0,bd001998 <_no_nmi>
bd001984:	00000000 	nop
bd001988:	3c1a9d01 	lui	k0,0x9d01
bd00198c:	275ab9f0 	addiu	k0,k0,-17936
bd001990:	03400008 	jr	k0
bd001994:	00000000 	nop

bd001998 <_no_nmi>:
bd001998:	3c1da002 	lui	sp,0xa002
bd00199c:	27bdfff8 	addiu	sp,sp,-8
bd0019a0:	3c1ca000 	lui	gp,0xa000
bd0019a4:	279c7ff0 	addiu	gp,gp,32752
bd0019a8:	40096002 	mfc0	t1,c0_srsctl
bd0019ac:	01205820 	add	t3,t1,zero
bd0019b0:	7d2a1e80 	ext	t2,t1,0x1a,0x4
bd0019b4:	7d494984 	ins	t1,t2,0x6,0x4
bd0019b8:	40896002 	mtc0	t1,c0_srsctl
bd0019bc:	000000c0 	ehb
bd0019c0:	41dce000 	wrpgpr	gp,gp
bd0019c4:	408b6002 	mtc0	t3,c0_srsctl
bd0019c8:	000000c0 	ehb
bd0019cc:	3c089d01 	lui	t0,0x9d01
bd0019d0:	2508ba84 	addiu	t0,t0,-17788
bd0019d4:	0100f809 	jalr	t0
bd0019d8:	00000000 	nop

bd0019dc <_start_bss_init>:
bd0019dc:	3c08a000 	lui	t0,0xa000
bd0019e0:	2508000c 	addiu	t0,t0,12
bd0019e4:	3c09a000 	lui	t1,0xa000
bd0019e8:	25290034 	addiu	t1,t1,52
bd0019ec:	10000006 	b	bd001a08 <_bss_check>
bd0019f0:	00000000 	nop

bd0019f4 <_bss_init>:
bd0019f4:	ad000000 	sw	zero,0(t0)
bd0019f8:	ad000004 	sw	zero,4(t0)
bd0019fc:	ad000008 	sw	zero,8(t0)
bd001a00:	ad00000c 	sw	zero,12(t0)
bd001a04:	25080010 	addiu	t0,t0,16

bd001a08 <_bss_check>:
bd001a08:	0109082b 	sltu	at,t0,t1
bd001a0c:	1420fff9 	bnez	at,bd0019f4 <_bss_init>
bd001a10:	00000000 	nop
bd001a14:	3c089d01 	lui	t0,0x9d01
bd001a18:	2508ad5c 	addiu	t0,t0,-21156
bd001a1c:	0100f809 	jalr	t0
bd001a20:	00000000 	nop
bd001a24:	3c090000 	lui	t1,0x0
bd001a28:	25290000 	addiu	t1,t1,0
bd001a2c:	11200010 	beqz	t1,bd001a70 <_ramfunc_done>
bd001a30:	00000000 	nop
bd001a34:	3c090002 	lui	t1,0x2
bd001a38:	25290000 	addiu	t1,t1,0
bd001a3c:	3c0abf88 	lui	t2,0xbf88
bd001a40:	254a2010 	addiu	t2,t2,8208
bd001a44:	ad490000 	sw	t1,0(t2)
bd001a48:	3c090002 	lui	t1,0x2
bd001a4c:	25290000 	addiu	t1,t1,0
bd001a50:	3c0abf88 	lui	t2,0xbf88
bd001a54:	254a2020 	addiu	t2,t2,8224
bd001a58:	ad490000 	sw	t1,0(t2)
bd001a5c:	3c090002 	lui	t1,0x2
bd001a60:	25290000 	addiu	t1,t1,0
bd001a64:	3c0abf88 	lui	t2,0xbf88
bd001a68:	254a2030 	addiu	t2,t2,8240
bd001a6c:	ad490000 	sw	t1,0(t2)

bd001a70 <_ramfunc_done>:
bd001a70:	40804800 	mtc0	zero,c0_count
bd001a74:	240affff 	li	t2,-1
bd001a78:	408a5800 	mtc0	t2,c0_compare
bd001a7c:	3c080040 	lui	t0,0x40
bd001a80:	400a6000 	mfc0	t2,c0_status
bd001a84:	010a5025 	or	t2,t0,t2
bd001a88:	408a6000 	mtc0	t2,c0_status
bd001a8c:	3c099d00 	lui	t1,0x9d00
bd001a90:	25290000 	addiu	t1,t1,0
bd001a94:	000000c0 	ehb
bd001a98:	40897801 	mtc0	t1,c0_ebase
bd001a9c:	3c090000 	lui	t1,0x0
bd001aa0:	25290001 	addiu	t1,t1,1
bd001aa4:	240a0000 	li	t2,0
bd001aa8:	7d2a4944 	ins	t2,t1,0x5,0x5
bd001aac:	408a6001 	mtc0	t2,c0_intctl
bd001ab0:	3c090080 	lui	t1,0x80
bd001ab4:	40896800 	mtc0	t1,c0_cause
bd001ab8:	40088000 	mfc0	t0,c0_config
bd001abc:	7d090580 	ext	t1,t0,0x16,0x1
bd001ac0:	00094c40 	sll	t1,t1,0x11
bd001ac4:	40086000 	mfc0	t0,c0_status
bd001ac8:	3c010058 	lui	at,0x58
bd001acc:	01014024 	and	t0,t0,at
bd001ad0:	01284025 	or	t0,t1,t0
bd001ad4:	40886000 	mtc0	t0,c0_status
bd001ad8:	000000c0 	ehb
bd001adc:	3c089d01 	lui	t0,0x9d01
bd001ae0:	2508ba8c 	addiu	t0,t0,-17780
bd001ae4:	0100f809 	jalr	t0
bd001ae8:	00000000 	nop
bd001aec:	40086000 	mfc0	t0,c0_status
bd001af0:	3c01ffbf 	lui	at,0xffbf
bd001af4:	3421ffff 	ori	at,at,0xffff
bd001af8:	01014024 	and	t0,t0,at
bd001afc:	40886000 	mtc0	t0,c0_status
bd001b00:	30840000 	andi	a0,a0,0x0
bd001b04:	30a50000 	andi	a1,a1,0x0
bd001b08:	3c089d01 	lui	t0,0x9d01
bd001b0c:	2508b3f8 	addiu	t0,t0,-19464
bd001b10:	01000008 	jr	t0
bd001b14:	00000000 	nop

Disassembly of section .bev_excpt:

bd001cf0 <_bev_exception>:
bd001cf0:	3c1a9d01 	lui	k0,0x9d01
bd001cf4:	275ab538 	addiu	k0,k0,-19144
bd001cf8:	03400008 	jr	k0
bd001cfc:	00000000 	nop

Disassembly of section .app_excpt:

9d000180 <_gen_exception>:
9d000180:	3c1a9d01 	lui	k0,0x9d01
9d000184:	275aa3c0 	addiu	k0,k0,-23616
9d000188:	03400008 	jr	k0
9d00018c:	00000000 	nop

Disassembly of section .vector_0:

9d000200 <__vector_dispatch_0>:
9d000200:	0b402d72 	j	9d00b5c8 <.LFE0>
9d000204:	00000000 	nop

Disassembly of section .vector_1:

9d000220 <__vector_dispatch_1>:
9d000220:	0b402d72 	j	9d00b5c8 <.LFE0>
9d000224:	00000000 	nop

Disassembly of section .vector_2:

9d000240 <__vector_dispatch_2>:
9d000240:	0b402d72 	j	9d00b5c8 <.LFE0>
9d000244:	00000000 	nop

Disassembly of section .vector_3:

9d000260 <__vector_dispatch_3>:
9d000260:	0b402d72 	j	9d00b5c8 <.LFE0>
9d000264:	00000000 	nop

Disassembly of section .vector_4:

9d000280 <__vector_dispatch_4>:
9d000280:	0b402d72 	j	9d00b5c8 <.LFE0>
9d000284:	00000000 	nop

Disassembly of section .vector_5:

9d0002a0 <__vector_dispatch_5>:
9d0002a0:	0b402d72 	j	9d00b5c8 <.LFE0>
9d0002a4:	00000000 	nop

Disassembly of section .vector_6:

9d0002c0 <__vector_dispatch_6>:
9d0002c0:	0b402d72 	j	9d00b5c8 <.LFE0>
9d0002c4:	00000000 	nop

Disassembly of section .vector_7:

9d0002e0 <__vector_dispatch_7>:
9d0002e0:	0b402d72 	j	9d00b5c8 <.LFE0>
9d0002e4:	00000000 	nop

Disassembly of section .vector_8:

9d000300 <__vector_dispatch_8>:
9d000300:	0b400dcf 	j	9d00373c <ExSyncSide>
9d000304:	00000000 	nop

Disassembly of section .vector_9:

9d000320 <__vector_dispatch_9>:
9d000320:	0b402d72 	j	9d00b5c8 <.LFE0>
9d000324:	00000000 	nop

Disassembly of section .vector_10:

9d000340 <__vector_dispatch_10>:
9d000340:	0b402d72 	j	9d00b5c8 <.LFE0>
9d000344:	00000000 	nop

Disassembly of section .vector_11:

9d000360 <__vector_dispatch_11>:
9d000360:	0b400e3d 	j	9d0038f4 <Ext2ISR>
9d000364:	00000000 	nop

Disassembly of section .vector_12:

9d000380 <__vector_dispatch_12>:
9d000380:	0b402d72 	j	9d00b5c8 <.LFE0>
9d000384:	00000000 	nop

Disassembly of section .vector_13:

9d0003a0 <__vector_dispatch_13>:
9d0003a0:	0b402d72 	j	9d00b5c8 <.LFE0>
9d0003a4:	00000000 	nop

Disassembly of section .vector_14:

9d0003c0 <__vector_dispatch_14>:
9d0003c0:	0b402d72 	j	9d00b5c8 <.LFE0>
9d0003c4:	00000000 	nop

Disassembly of section .vector_15:

9d0003e0 <__vector_dispatch_15>:
9d0003e0:	0b402d72 	j	9d00b5c8 <.LFE0>
9d0003e4:	00000000 	nop

Disassembly of section .vector_16:

9d000400 <__vector_dispatch_16>:
9d000400:	0b402d72 	j	9d00b5c8 <.LFE0>
9d000404:	00000000 	nop

Disassembly of section .vector_17:

9d000420 <__vector_dispatch_17>:
9d000420:	0b402d72 	j	9d00b5c8 <.LFE0>
9d000424:	00000000 	nop

Disassembly of section .vector_18:

9d000440 <__vector_dispatch_18>:
9d000440:	0b402d72 	j	9d00b5c8 <.LFE0>
9d000444:	00000000 	nop

Disassembly of section .vector_19:

9d000460 <__vector_dispatch_19>:
9d000460:	0b402d72 	j	9d00b5c8 <.LFE0>
9d000464:	00000000 	nop

Disassembly of section .vector_20:

9d000480 <__vector_dispatch_20>:
9d000480:	0b402d72 	j	9d00b5c8 <.LFE0>
9d000484:	00000000 	nop

Disassembly of section .vector_21:

9d0004a0 <__vector_dispatch_21>:
9d0004a0:	0b402d72 	j	9d00b5c8 <.LFE0>
9d0004a4:	00000000 	nop

Disassembly of section .vector_22:

9d0004c0 <__vector_dispatch_22>:
9d0004c0:	0b402d72 	j	9d00b5c8 <.LFE0>
9d0004c4:	00000000 	nop

Disassembly of section .vector_23:

9d0004e0 <__vector_dispatch_23>:
9d0004e0:	0b402d72 	j	9d00b5c8 <.LFE0>
9d0004e4:	00000000 	nop

Disassembly of section .vector_24:

9d000500 <__vector_dispatch_24>:
9d000500:	0b402d72 	j	9d00b5c8 <.LFE0>
9d000504:	00000000 	nop

Disassembly of section .vector_25:

9d000520 <__vector_dispatch_25>:
9d000520:	0b402d72 	j	9d00b5c8 <.LFE0>
9d000524:	00000000 	nop

Disassembly of section .vector_26:

9d000540 <__vector_dispatch_26>:
9d000540:	0b400d33 	j	9d0034cc <CNISR>
9d000544:	00000000 	nop

Disassembly of section .vector_27:

9d000560 <__vector_dispatch_27>:
9d000560:	0b402d72 	j	9d00b5c8 <.LFE0>
9d000564:	00000000 	nop

Disassembly of section .vector_28:

9d000580 <__vector_dispatch_28>:
9d000580:	0b402d72 	j	9d00b5c8 <.LFE0>
9d000584:	00000000 	nop

Disassembly of section .vector_29:

9d0005a0 <__vector_dispatch_29>:
9d0005a0:	0b402d72 	j	9d00b5c8 <.LFE0>
9d0005a4:	00000000 	nop

Disassembly of section .vector_30:

9d0005c0 <__vector_dispatch_30>:
9d0005c0:	0b402d72 	j	9d00b5c8 <.LFE0>
9d0005c4:	00000000 	nop

Disassembly of section .vector_31:

9d0005e0 <__vector_dispatch_31>:
9d0005e0:	0b402d72 	j	9d00b5c8 <.LFE0>
9d0005e4:	00000000 	nop

Disassembly of section .vector_32:

9d000600 <__vector_dispatch_32>:
9d000600:	0b402d72 	j	9d00b5c8 <.LFE0>
9d000604:	00000000 	nop

Disassembly of section .vector_33:

9d000620 <__vector_dispatch_33>:
9d000620:	0b402d72 	j	9d00b5c8 <.LFE0>
9d000624:	00000000 	nop

Disassembly of section .vector_34:

9d000640 <__vector_dispatch_34>:
9d000640:	0b402d72 	j	9d00b5c8 <.LFE0>
9d000644:	00000000 	nop

Disassembly of section .vector_35:

9d000660 <__vector_dispatch_35>:
9d000660:	0b402d72 	j	9d00b5c8 <.LFE0>
9d000664:	00000000 	nop

Disassembly of section .vector_36:

9d000680 <__vector_dispatch_36>:
9d000680:	0b402d72 	j	9d00b5c8 <.LFE0>
9d000684:	00000000 	nop

Disassembly of section .vector_37:

9d0006a0 <__vector_dispatch_37>:
9d0006a0:	0b402d72 	j	9d00b5c8 <.LFE0>
9d0006a4:	00000000 	nop

Disassembly of section .vector_38:

9d0006c0 <__vector_dispatch_38>:
9d0006c0:	0b402d72 	j	9d00b5c8 <.LFE0>
9d0006c4:	00000000 	nop

Disassembly of section .vector_39:

9d0006e0 <__vector_dispatch_39>:
9d0006e0:	0b402d72 	j	9d00b5c8 <.LFE0>
9d0006e4:	00000000 	nop

Disassembly of section .vector_40:

9d000700 <__vector_dispatch_40>:
9d000700:	0b402d72 	j	9d00b5c8 <.LFE0>
9d000704:	00000000 	nop

Disassembly of section .vector_41:

9d000720 <__vector_dispatch_41>:
9d000720:	0b402d72 	j	9d00b5c8 <.LFE0>
9d000724:	00000000 	nop

Disassembly of section .vector_42:

9d000740 <__vector_dispatch_42>:
9d000740:	0b402d72 	j	9d00b5c8 <.LFE0>
9d000744:	00000000 	nop

Disassembly of section .vector_43:

9d000760 <__vector_dispatch_43>:
9d000760:	0b402d72 	j	9d00b5c8 <.LFE0>
9d000764:	00000000 	nop

Disassembly of section .vector_44:

9d000780 <__vector_dispatch_44>:
9d000780:	0b402d72 	j	9d00b5c8 <.LFE0>
9d000784:	00000000 	nop

Disassembly of section .vector_45:

9d0007a0 <__vector_dispatch_45>:
9d0007a0:	0b402d72 	j	9d00b5c8 <.LFE0>
9d0007a4:	00000000 	nop

Disassembly of section .vector_46:

9d0007c0 <__vector_dispatch_46>:
9d0007c0:	0b402d72 	j	9d00b5c8 <.LFE0>
9d0007c4:	00000000 	nop

Disassembly of section .vector_47:

9d0007e0 <__vector_dispatch_47>:
9d0007e0:	0b402d72 	j	9d00b5c8 <.LFE0>
9d0007e4:	00000000 	nop

Disassembly of section .vector_48:

9d000800 <__vector_dispatch_48>:
9d000800:	0b402d72 	j	9d00b5c8 <.LFE0>
9d000804:	00000000 	nop

Disassembly of section .vector_49:

9d000820 <__vector_dispatch_49>:
9d000820:	0b402d72 	j	9d00b5c8 <.LFE0>
9d000824:	00000000 	nop

Disassembly of section .vector_50:

9d000840 <__vector_dispatch_50>:
9d000840:	0b402d72 	j	9d00b5c8 <.LFE0>
9d000844:	00000000 	nop

Disassembly of section .vector_51:

9d000860 <__vector_dispatch_51>:
9d000860:	0b402d72 	j	9d00b5c8 <.LFE0>
9d000864:	00000000 	nop

Disassembly of section ._debug_exception:

bfc00480 <__DbgExecReturn>:
bfc00480:	409bf800 	mtc0	k1,c0_desave
bfc00484:	000000c0 	ehb
bfc00488:	3c1b9d01 	lui	k1,0x9d01
bfc0048c:	277bb658 	addiu	k1,k1,-18856
bfc00490:	13600002 	beqz	k1,bfc0049c <__DbgExecReturn+0x1c>
bfc00494:	00000000 	nop
bfc00498:	409bc000 	mtc0	k1,c0_depc
bfc0049c:	401bf800 	mfc0	k1,c0_desave
bfc004a0:	000000c0 	ehb
bfc004a4:	4200001f 	deret
bfc004a8:	00000000 	nop

Disassembly of section .text.do_scan:

9d001e00 <do_scan>:
9d001e00:	27bdff00 	addiu	sp,sp,-256
9d001e04:	afbf00fc 	sw	ra,252(sp)
9d001e08:	afbe00f8 	sw	s8,248(sp)
9d001e0c:	afb700f4 	sw	s7,244(sp)
9d001e10:	afb600f0 	sw	s6,240(sp)
9d001e14:	afb500ec 	sw	s5,236(sp)
9d001e18:	afb400e8 	sw	s4,232(sp)
9d001e1c:	afb300e4 	sw	s3,228(sp)
9d001e20:	afb200e0 	sw	s2,224(sp)
9d001e24:	afb100dc 	sw	s1,220(sp)
9d001e28:	afb000d8 	sw	s0,216(sp)
9d001e2c:	00809821 	move	s3,a0
9d001e30:	8c820018 	lw	v0,24(a0)
9d001e34:	00a08021 	move	s0,a1
9d001e38:	24050002 	li	a1,2
9d001e3c:	8c420010 	lw	v0,16(v0)
9d001e40:	0040f809 	jalr	v0
9d001e44:	00c08821 	move	s1,a2
9d001e48:	104000a2 	beqz	v0,9d0020d4 <do_scan+0x2d4>
9d001e4c:	2402ffff 	li	v0,-1
9d001e50:	afb30098 	sw	s3,152(sp)
9d001e54:	afa2009c 	sw	v0,156(sp)
9d001e58:	afb100a4 	sw	s1,164(sp)
9d001e5c:	afa000ac 	sw	zero,172(sp)
9d001e60:	afa000b0 	sw	zero,176(sp)
9d001e64:	afa000a8 	sw	zero,168(sp)
9d001e68:	02002821 	move	a1,s0
9d001e6c:	0000f021 	move	s8,zero
9d001e70:	3c109d01 	lui	s0,0x9d01
9d001e74:	26109ce1 	addiu	s0,s0,-25375
9d001e78:	3c159d00 	lui	s5,0x9d00
9d001e7c:	24a20001 	addiu	v0,a1,1
9d001e80:	afa200a0 	sw	v0,160(sp)
9d001e84:	80b10000 	lb	s1,0(a1)
9d001e88:	12200012 	beqz	s1,9d001ed4 <do_scan+0xd4>
9d001e8c:	26b51ff8 	addiu	s5,s5,8184
9d001e90:	17c00010 	bnez	s8,9d001ed4 <do_scan+0xd4>
9d001e94:	24020025 	li	v0,37
9d001e98:	12220033 	beq	s1,v0,9d001f68 <do_scan+0x168>
9d001e9c:	02301021 	addu	v0,s1,s0
9d001ea0:	80420000 	lb	v0,0(v0)
9d001ea4:	30420088 	andi	v0,v0,0x88
9d001ea8:	10400021 	beqz	v0,9d001f30 <do_scan+0x130>
9d001eac:	27a40098 	addiu	a0,sp,152
9d001eb0:	0f402abe 	jal	9d00aaf8 <_eat_white>
9d001eb4:	00000000 	nop
9d001eb8:	0040f021 	move	s8,v0
9d001ebc:	8fa500a0 	lw	a1,160(sp)
9d001ec0:	24a20001 	addiu	v0,a1,1
9d001ec4:	afa200a0 	sw	v0,160(sp)
9d001ec8:	80b10000 	lb	s1,0(a1)
9d001ecc:	1620fff0 	bnez	s1,9d001e90 <do_scan+0x90>
9d001ed0:	00000000 	nop
9d001ed4:	8fa4009c 	lw	a0,156(sp)
9d001ed8:	2402ffff 	li	v0,-1
9d001edc:	10820005 	beq	a0,v0,9d001ef4 <do_scan+0xf4>
9d001ee0:	00000000 	nop
9d001ee4:	96620010 	lhu	v0,16(s3)
9d001ee8:	30420080 	andi	v0,v0,0x80
9d001eec:	1040008d 	beqz	v0,9d002124 <do_scan+0x324>
9d001ef0:	2402ffff 	li	v0,-1
9d001ef4:	13c20075 	beq	s8,v0,9d0020cc <do_scan+0x2cc>
9d001ef8:	8fa200ac 	lw	v0,172(sp)
9d001efc:	8fa200b0 	lw	v0,176(sp)
9d001f00:	8fbf00fc 	lw	ra,252(sp)
9d001f04:	8fbe00f8 	lw	s8,248(sp)
9d001f08:	8fb700f4 	lw	s7,244(sp)
9d001f0c:	8fb600f0 	lw	s6,240(sp)
9d001f10:	8fb500ec 	lw	s5,236(sp)
9d001f14:	8fb400e8 	lw	s4,232(sp)
9d001f18:	8fb300e4 	lw	s3,228(sp)
9d001f1c:	8fb200e0 	lw	s2,224(sp)
9d001f20:	8fb100dc 	lw	s1,220(sp)
9d001f24:	8fb000d8 	lw	s0,216(sp)
9d001f28:	03e00008 	jr	ra
9d001f2c:	27bd0100 	addiu	sp,sp,256
9d001f30:	0f402cb4 	jal	9d00b2d0 <gsgetc>
9d001f34:	00000000 	nop
9d001f38:	2403ffff 	li	v1,-1
9d001f3c:	504301ce 	beql	v0,v1,9d002678 <do_scan+0x878>
9d001f40:	241effff 	li	s8,-1
9d001f44:	5222ffde 	beql	s1,v0,9d001ec0 <do_scan+0xc0>
9d001f48:	8fa500a0 	lw	a1,160(sp)
9d001f4c:	afa2009c 	sw	v0,156(sp)
9d001f50:	241e0001 	li	s8,1
9d001f54:	8fa200a8 	lw	v0,168(sp)
9d001f58:	2442ffff 	addiu	v0,v0,-1
9d001f5c:	afa200a8 	sw	v0,168(sp)
9d001f60:	0b4007b0 	j	9d001ec0 <do_scan+0xc0>
9d001f64:	8fa500a0 	lw	a1,160(sp)
9d001f68:	24a20002 	addiu	v0,a1,2
9d001f6c:	afa200a0 	sw	v0,160(sp)
9d001f70:	80b20001 	lb	s2,1(a1)
9d001f74:	125101a1 	beq	s2,s1,9d0025fc <do_scan+0x7fc>
9d001f78:	2402002a 	li	v0,42
9d001f7c:	124200dd 	beq	s2,v0,9d0022f4 <do_scan+0x4f4>
9d001f80:	00008821 	move	s1,zero
9d001f84:	02121021 	addu	v0,s0,s2
9d001f88:	90420000 	lbu	v0,0(v0)
9d001f8c:	30420004 	andi	v0,v0,0x4
9d001f90:	144000c1 	bnez	v0,9d002298 <do_scan+0x498>
9d001f94:	3c167fff 	lui	s6,0x7fff
9d001f98:	36d6ffff 	ori	s6,s6,0xffff
9d001f9c:	24020068 	li	v0,104
9d001fa0:	124200cc 	beq	s2,v0,9d0022d4 <do_scan+0x4d4>
9d001fa4:	afb600d0 	sw	s6,208(sp)
9d001fa8:	2a420069 	slti	v0,s2,105
9d001fac:	144000b2 	bnez	v0,9d002278 <do_scan+0x478>
9d001fb0:	2402006c 	li	v0,108
9d001fb4:	12420054 	beq	s2,v0,9d002108 <do_scan+0x308>
9d001fb8:	8fa300a0 	lw	v1,160(sp)
9d001fbc:	24020071 	li	v0,113
9d001fc0:	16420005 	bne	s2,v0,9d001fd8 <do_scan+0x1d8>
9d001fc4:	8fa200a0 	lw	v0,160(sp)
9d001fc8:	36310800 	ori	s1,s1,0x800
9d001fcc:	24430001 	addiu	v1,v0,1
9d001fd0:	afa300a0 	sw	v1,160(sp)
9d001fd4:	80520000 	lb	s2,0(v0)
9d001fd8:	2652ffbc 	addiu	s2,s2,-68
9d001fdc:	2e420035 	sltiu	v0,s2,53
9d001fe0:	104001be 	beqz	v0,9d0026dc <do_scan+0x8dc>
9d001fe4:	00129080 	sll	s2,s2,0x2
9d001fe8:	02b29021 	addu	s2,s5,s2
9d001fec:	8e420000 	lw	v0,0(s2)
9d001ff0:	00400008 	jr	v0
9d001ff4:	00000000 	nop
9d001ff8:	9d002140 	0x9d002140
9d001ffc:	9d002410 	0x9d002410
9d002000:	9d002410 	0x9d002410
9d002004:	9d002410 	0x9d002410
9d002008:	9d0026dc 	0x9d0026dc
9d00200c:	9d0026dc 	0x9d0026dc
9d002010:	9d0026dc 	0x9d0026dc
9d002014:	9d0026dc 	0x9d0026dc
9d002018:	9d0026dc 	0x9d0026dc
9d00201c:	9d0026dc 	0x9d0026dc
9d002020:	9d0026dc 	0x9d0026dc
9d002024:	9d002400 	0x9d002400
9d002028:	9d0026dc 	0x9d0026dc
9d00202c:	9d0026dc 	0x9d0026dc
9d002030:	9d0026dc 	0x9d0026dc
9d002034:	9d0026dc 	0x9d0026dc
9d002038:	9d0026dc 	0x9d0026dc
9d00203c:	9d0023f0 	0x9d0023f0
9d002040:	9d0026dc 	0x9d0026dc
9d002044:	9d0026dc 	0x9d0026dc
9d002048:	9d0023e4 	0x9d0023e4
9d00204c:	9d0026dc 	0x9d0026dc
9d002050:	9d0026dc 	0x9d0026dc
9d002054:	9d002354 	0x9d002354
9d002058:	9d0026dc 	0x9d0026dc
9d00205c:	9d0026dc 	0x9d0026dc
9d002060:	9d0026dc 	0x9d0026dc
9d002064:	9d0026dc 	0x9d0026dc
9d002068:	9d0026dc 	0x9d0026dc
9d00206c:	9d0026dc 	0x9d0026dc
9d002070:	9d0026dc 	0x9d0026dc
9d002074:	9d002314 	0x9d002314
9d002078:	9d002144 	0x9d002144
9d00207c:	9d002410 	0x9d002410
9d002080:	9d002410 	0x9d002410
9d002084:	9d002410 	0x9d002410
9d002088:	9d0026dc 	0x9d0026dc
9d00208c:	9d00237c 	0x9d00237c
9d002090:	9d0026dc 	0x9d0026dc
9d002094:	9d0026dc 	0x9d0026dc
9d002098:	9d0026dc 	0x9d0026dc
9d00209c:	9d0026dc 	0x9d0026dc
9d0020a0:	9d002388 	0x9d002388
9d0020a4:	9d002308 	0x9d002308
9d0020a8:	9d0023e4 	0x9d0023e4
9d0020ac:	9d0026dc 	0x9d0026dc
9d0020b0:	9d0026dc 	0x9d0026dc
9d0020b4:	9d0023c4 	0x9d0023c4
9d0020b8:	9d0026dc 	0x9d0026dc
9d0020bc:	9d002148 	0x9d002148
9d0020c0:	9d0026dc 	0x9d0026dc
9d0020c4:	9d0026dc 	0x9d0026dc
9d0020c8:	9d0023e4 	0x9d0023e4
9d0020cc:	1440ff8c 	bnez	v0,9d001f00 <do_scan+0x100>
9d0020d0:	8fa200b0 	lw	v0,176(sp)
9d0020d4:	2402ffff 	li	v0,-1
9d0020d8:	8fbf00fc 	lw	ra,252(sp)
9d0020dc:	8fbe00f8 	lw	s8,248(sp)
9d0020e0:	8fb700f4 	lw	s7,244(sp)
9d0020e4:	8fb600f0 	lw	s6,240(sp)
9d0020e8:	8fb500ec 	lw	s5,236(sp)
9d0020ec:	8fb400e8 	lw	s4,232(sp)
9d0020f0:	8fb300e4 	lw	s3,228(sp)
9d0020f4:	8fb200e0 	lw	s2,224(sp)
9d0020f8:	8fb100dc 	lw	s1,220(sp)
9d0020fc:	8fb000d8 	lw	s0,216(sp)
9d002100:	03e00008 	jr	ra
9d002104:	27bd0100 	addiu	sp,sp,256
9d002108:	24640001 	addiu	a0,v1,1
9d00210c:	afa400a0 	sw	a0,160(sp)
9d002110:	80720000 	lb	s2,0(v1)
9d002114:	12420118 	beq	s2,v0,9d002578 <do_scan+0x778>
9d002118:	24620002 	addiu	v0,v1,2
9d00211c:	0b4007f6 	j	9d001fd8 <do_scan+0x1d8>
9d002120:	36310200 	ori	s1,s1,0x200
9d002124:	0f4026a8 	jal	9d009aa0 <ungetc>
9d002128:	8fa50098 	lw	a1,152(sp)
9d00212c:	2402ffff 	li	v0,-1
9d002130:	57c2ff73 	bnel	s8,v0,9d001f00 <do_scan+0x100>
9d002134:	8fa200b0 	lw	v0,176(sp)
9d002138:	0b400833 	j	9d0020cc <do_scan+0x2cc>
9d00213c:	8fa200ac 	lw	v0,172(sp)
9d002140:	36310200 	ori	s1,s1,0x200
9d002144:	36311000 	ori	s1,s1,0x1000
9d002148:	2403000a 	li	v1,10
9d00214c:	afa300d4 	sw	v1,212(sp)
9d002150:	0f402abe 	jal	9d00aaf8 <_eat_white>
9d002154:	27a40098 	addiu	a0,sp,152
9d002158:	1440ff58 	bnez	v0,9d001ebc <do_scan+0xbc>
9d00215c:	0040f021 	move	s8,v0
9d002160:	27a40018 	addiu	a0,sp,24
9d002164:	afa400cc 	sw	a0,204(sp)
9d002168:	8fa200d0 	lw	v0,208(sp)
9d00216c:	1440010a 	bnez	v0,9d002598 <do_scan+0x798>
9d002170:	00009021 	move	s2,zero
9d002174:	27b60018 	addiu	s6,sp,24
9d002178:	8fa300d4 	lw	v1,212(sp)
9d00217c:	106000f9 	beqz	v1,9d002564 <do_scan+0x764>
9d002180:	2417ffff 	li	s7,-1
9d002184:	24020010 	li	v0,16
9d002188:	8fa300d4 	lw	v1,212(sp)
9d00218c:	10620159 	beq	v1,v0,9d0026f4 <do_scan+0x8f4>
9d002190:	24020030 	li	v0,48
9d002194:	24020008 	li	v0,8
9d002198:	8fa300d4 	lw	v1,212(sp)
9d00219c:	146200f4 	bne	v1,v0,9d002570 <do_scan+0x770>
9d0021a0:	3c029d01 	lui	v0,0x9d01
9d0021a4:	24030008 	li	v1,8
9d0021a8:	afa300d4 	sw	v1,212(sp)
9d0021ac:	3c049d01 	lui	a0,0x9d01
9d0021b0:	2494b7f8 	addiu	s4,a0,-18440
9d0021b4:	2403ffff 	li	v1,-1
9d0021b8:	12e30009 	beq	s7,v1,9d0021e0 <do_scan+0x3e0>
9d0021bc:	02802021 	move	a0,s4
9d0021c0:	0f40287a 	jal	9d00a1e8 <strchr>
9d0021c4:	02e02821 	move	a1,s7
9d0021c8:	1040011c 	beqz	v0,9d00263c <do_scan+0x83c>
9d0021cc:	26c20001 	addiu	v0,s6,1
9d0021d0:	afa200cc 	sw	v0,204(sp)
9d0021d4:	16400120 	bnez	s2,9d002658 <do_scan+0x858>
9d0021d8:	a2d70000 	sb	s7,0(s6)
9d0021dc:	8fb600cc 	lw	s6,204(sp)
9d0021e0:	a2c00000 	sb	zero,0(s6)
9d0021e4:	2417ffff 	li	s7,-1
9d0021e8:	32340800 	andi	s4,s1,0x800
9d0021ec:	32361000 	andi	s6,s1,0x1000
9d0021f0:	27a40018 	addiu	a0,sp,24
9d0021f4:	27a500cc 	addiu	a1,sp,204
9d0021f8:	12800109 	beqz	s4,9d002620 <do_scan+0x820>
9d0021fc:	8fa600d4 	lw	a2,212(sp)
9d002200:	12c00125 	beqz	s6,9d002698 <do_scan+0x898>
9d002204:	00000000 	nop
9d002208:	0f401dbb 	jal	9d0076ec <.LFE23>
9d00220c:	00000000 	nop
9d002210:	00402021 	move	a0,v0
9d002214:	00602821 	move	a1,v1
9d002218:	00001021 	move	v0,zero
9d00221c:	8fa300ac 	lw	v1,172(sp)
9d002220:	24630001 	addiu	v1,v1,1
9d002224:	afa300ac 	sw	v1,172(sp)
9d002228:	8fa300d0 	lw	v1,208(sp)
9d00222c:	10720114 	beq	v1,s2,9d002680 <do_scan+0x880>
9d002230:	32230001 	andi	v1,s1,0x1
9d002234:	5460ff22 	bnezl	v1,9d001ec0 <do_scan+0xc0>
9d002238:	8fa500a0 	lw	a1,160(sp)
9d00223c:	56800121 	bnezl	s4,9d0026c4 <do_scan+0x8c4>
9d002240:	8fa200a4 	lw	v0,164(sp)
9d002244:	32230200 	andi	v1,s1,0x200
9d002248:	10600170 	beqz	v1,9d00280c <do_scan+0xa0c>
9d00224c:	32230100 	andi	v1,s1,0x100
9d002250:	8fa300a4 	lw	v1,164(sp)
9d002254:	24640004 	addiu	a0,v1,4
9d002258:	afa400a4 	sw	a0,164(sp)
9d00225c:	8c630000 	lw	v1,0(v1)
9d002260:	ac620000 	sw	v0,0(v1)
9d002264:	8fa200b0 	lw	v0,176(sp)
9d002268:	24420001 	addiu	v0,v0,1
9d00226c:	afa200b0 	sw	v0,176(sp)
9d002270:	0b4007b0 	j	9d001ec0 <do_scan+0xc0>
9d002274:	8fa500a0 	lw	a1,160(sp)
9d002278:	2402004c 	li	v0,76
9d00227c:	1642ff56 	bne	s2,v0,9d001fd8 <do_scan+0x1d8>
9d002280:	8fa200a0 	lw	v0,160(sp)
9d002284:	36310400 	ori	s1,s1,0x400
9d002288:	24430001 	addiu	v1,v0,1
9d00228c:	afa300a0 	sw	v1,160(sp)
9d002290:	0b4007f6 	j	9d001fd8 <do_scan+0x1d8>
9d002294:	80520000 	lb	s2,0(v0)
9d002298:	27a500a0 	addiu	a1,sp,160
9d00229c:	2406000a 	li	a2,10
9d0022a0:	8fa200a0 	lw	v0,160(sp)
9d0022a4:	2442ffff 	addiu	v0,v0,-1
9d0022a8:	00402021 	move	a0,v0
9d0022ac:	0f4021a2 	jal	9d008688 <strtoul>
9d0022b0:	afa200a0 	sw	v0,160(sp)
9d0022b4:	afa200d0 	sw	v0,208(sp)
9d0022b8:	8fa200a0 	lw	v0,160(sp)
9d0022bc:	24430001 	addiu	v1,v0,1
9d0022c0:	afa300a0 	sw	v1,160(sp)
9d0022c4:	80520000 	lb	s2,0(v0)
9d0022c8:	24020068 	li	v0,104
9d0022cc:	5642ff37 	bnel	s2,v0,9d001fac <do_scan+0x1ac>
9d0022d0:	2a420069 	slti	v0,s2,105
9d0022d4:	8fa300a0 	lw	v1,160(sp)
9d0022d8:	24640001 	addiu	a0,v1,1
9d0022dc:	afa400a0 	sw	a0,160(sp)
9d0022e0:	80720000 	lb	s2,0(v1)
9d0022e4:	124200a8 	beq	s2,v0,9d002588 <do_scan+0x788>
9d0022e8:	24620002 	addiu	v0,v1,2
9d0022ec:	0b4007f6 	j	9d001fd8 <do_scan+0x1d8>
9d0022f0:	36310100 	ori	s1,s1,0x100
9d0022f4:	24a20003 	addiu	v0,a1,3
9d0022f8:	afa200a0 	sw	v0,160(sp)
9d0022fc:	80b20002 	lb	s2,2(a1)
9d002300:	0b4007e1 	j	9d001f84 <do_scan+0x184>
9d002304:	24110001 	li	s1,1
9d002308:	24030008 	li	v1,8
9d00230c:	0b400854 	j	9d002150 <do_scan+0x350>
9d002310:	afa300d4 	sw	v1,212(sp)
9d002314:	3c077fff 	lui	a3,0x7fff
9d002318:	34e7ffff 	ori	a3,a3,0xffff
9d00231c:	8fa300d0 	lw	v1,208(sp)
9d002320:	00673826 	xor	a3,v1,a3
9d002324:	27a20098 	addiu	v0,sp,152
9d002328:	afa20010 	sw	v0,16(sp)
9d00232c:	00002021 	move	a0,zero
9d002330:	00002821 	move	a1,zero
9d002334:	02203021 	move	a2,s1
9d002338:	24020001 	li	v0,1
9d00233c:	0047180a 	movz	v1,v0,a3
9d002340:	0f402101 	jal	9d008404 <_strtostr>
9d002344:	00603821 	move	a3,v1
9d002348:	0040f021 	move	s8,v0
9d00234c:	0b4007b0 	j	9d001ec0 <do_scan+0xc0>
9d002350:	8fa500a0 	lw	a1,160(sp)
9d002354:	27a20098 	addiu	v0,sp,152
9d002358:	afa20010 	sw	v0,16(sp)
9d00235c:	24040002 	li	a0,2
9d002360:	24050001 	li	a1,1
9d002364:	02203021 	move	a2,s1
9d002368:	0f402101 	jal	9d008404 <_strtostr>
9d00236c:	8fa700d0 	lw	a3,208(sp)
9d002370:	0040f021 	move	s8,v0
9d002374:	0b4007b0 	j	9d001ec0 <do_scan+0xc0>
9d002378:	8fa500a0 	lw	a1,160(sp)
9d00237c:	36311000 	ori	s1,s1,0x1000
9d002380:	0b400854 	j	9d002150 <do_scan+0x350>
9d002384:	afa000d4 	sw	zero,212(sp)
9d002388:	32220001 	andi	v0,s1,0x1
9d00238c:	1440fecc 	bnez	v0,9d001ec0 <do_scan+0xc0>
9d002390:	8fa500a0 	lw	a1,160(sp)
9d002394:	32230800 	andi	v1,s1,0x800
9d002398:	10600112 	beqz	v1,9d0027e4 <do_scan+0x9e4>
9d00239c:	8fa200a8 	lw	v0,168(sp)
9d0023a0:	8fa300a4 	lw	v1,164(sp)
9d0023a4:	000227c3 	sra	a0,v0,0x1f
9d0023a8:	24650004 	addiu	a1,v1,4
9d0023ac:	afa500a4 	sw	a1,164(sp)
9d0023b0:	8c630000 	lw	v1,0(v1)
9d0023b4:	ac620000 	sw	v0,0(v1)
9d0023b8:	ac640004 	sw	a0,4(v1)
9d0023bc:	0b4007b0 	j	9d001ec0 <do_scan+0xc0>
9d0023c0:	8fa500a0 	lw	a1,160(sp)
9d0023c4:	0f402abe 	jal	9d00aaf8 <_eat_white>
9d0023c8:	27a40098 	addiu	a0,sp,152
9d0023cc:	1440febb 	bnez	v0,9d001ebc <do_scan+0xbc>
9d0023d0:	0040f021 	move	s8,v0
9d0023d4:	27a20098 	addiu	v0,sp,152
9d0023d8:	afa20010 	sw	v0,16(sp)
9d0023dc:	0b4008d8 	j	9d002360 <do_scan+0x560>
9d0023e0:	24040001 	li	a0,1
9d0023e4:	24030010 	li	v1,16
9d0023e8:	0b400854 	j	9d002150 <do_scan+0x350>
9d0023ec:	afa300d4 	sw	v1,212(sp)
9d0023f0:	36310200 	ori	s1,s1,0x200
9d0023f4:	2403000a 	li	v1,10
9d0023f8:	0b400854 	j	9d002150 <do_scan+0x350>
9d0023fc:	afa300d4 	sw	v1,212(sp)
9d002400:	36310200 	ori	s1,s1,0x200
9d002404:	24030008 	li	v1,8
9d002408:	0b400854 	j	9d002150 <do_scan+0x350>
9d00240c:	afa300d4 	sw	v1,212(sp)
9d002410:	0f402abe 	jal	9d00aaf8 <_eat_white>
9d002414:	27a40098 	addiu	a0,sp,152
9d002418:	1440fea8 	bnez	v0,9d001ebc <do_scan+0xbc>
9d00241c:	0040f021 	move	s8,v0
9d002420:	8fa400d0 	lw	a0,208(sp)
9d002424:	afa400b8 	sw	a0,184(sp)
9d002428:	27a20098 	addiu	v0,sp,152
9d00242c:	afa200b4 	sw	v0,180(sp)
9d002430:	27a20018 	addiu	v0,sp,24
9d002434:	afa200bc 	sw	v0,188(sp)
9d002438:	afa000c0 	sw	zero,192(sp)
9d00243c:	24020080 	li	v0,128
9d002440:	afa200c4 	sw	v0,196(sp)
9d002444:	14800109 	bnez	a0,9d00286c <do_scan+0xa6c>
9d002448:	afa000c8 	sw	zero,200(sp)
9d00244c:	3c049d01 	lui	a0,0x9d01
9d002450:	24829ce0 	addiu	v0,a0,-25376
9d002454:	2416ffff 	li	s6,-1
9d002458:	0000a021 	move	s4,zero
9d00245c:	0b40091d 	j	9d002474 <do_scan+0x674>
9d002460:	27b200b4 	addiu	s2,sp,180
9d002464:	0f4026f5 	jal	9d009bd4 <putget.2780>
9d002468:	02c02021 	move	a0,s6
9d00246c:	0040b021 	move	s6,v0
9d002470:	02021021 	addu	v0,s0,v0
9d002474:	90420000 	lbu	v0,0(v0)
9d002478:	30420004 	andi	v0,v0,0x4
9d00247c:	1440fff9 	bnez	v0,9d002464 <do_scan+0x664>
9d002480:	02407821 	move	t7,s2
9d002484:	2402002e 	li	v0,46
9d002488:	12c20135 	beq	s6,v0,9d002960 <do_scan+0xb60>
9d00248c:	8fa200c8 	lw	v0,200(sp)
9d002490:	00541023 	subu	v0,v0,s4
9d002494:	18400005 	blez	v0,9d0024ac <do_scan+0x6ac>
9d002498:	2404ffdf 	li	a0,-33
9d00249c:	02c41824 	and	v1,s6,a0
9d0024a0:	24020045 	li	v0,69
9d0024a4:	1062010a 	beq	v1,v0,9d0028d0 <do_scan+0xad0>
9d0024a8:	02407821 	move	t7,s2
9d0024ac:	02407821 	move	t7,s2
9d0024b0:	0f4026f5 	jal	9d009bd4 <putget.2780>
9d0024b4:	00002021 	move	a0,zero
9d0024b8:	2402ffff 	li	v0,-1
9d0024bc:	12c20008 	beq	s6,v0,9d0024e0 <do_scan+0x6e0>
9d0024c0:	8fa200b4 	lw	v0,180(sp)
9d0024c4:	8c430010 	lw	v1,16(v0)
9d0024c8:	8fa400b8 	lw	a0,184(sp)
9d0024cc:	24840001 	addiu	a0,a0,1
9d0024d0:	afa400b8 	sw	a0,184(sp)
9d0024d4:	2463ffff 	addiu	v1,v1,-1
9d0024d8:	ac560004 	sw	s6,4(v0)
9d0024dc:	ac430010 	sw	v1,16(v0)
9d0024e0:	8fa200c8 	lw	v0,200(sp)
9d0024e4:	0054a023 	subu	s4,v0,s4
9d0024e8:	1a8000f7 	blez	s4,9d0028c8 <do_scan+0xac8>
9d0024ec:	8fa200b4 	lw	v0,180(sp)
9d0024f0:	32230001 	andi	v1,s1,0x1
9d0024f4:	8c440014 	lw	a0,20(v0)
9d0024f8:	24840001 	addiu	a0,a0,1
9d0024fc:	14600011 	bnez	v1,9d002544 <do_scan+0x744>
9d002500:	ac440014 	sw	a0,20(v0)
9d002504:	32230400 	andi	v1,s1,0x400
9d002508:	14600129 	bnez	v1,9d0029b0 <do_scan+0xbb0>
9d00250c:	00002821 	move	a1,zero
9d002510:	32310200 	andi	s1,s1,0x200
9d002514:	8c43000c 	lw	v1,12(v0)
9d002518:	8fa400bc 	lw	a0,188(sp)
9d00251c:	24660004 	addiu	a2,v1,4
9d002520:	1220011c 	beqz	s1,9d002994 <do_scan+0xb94>
9d002524:	ac46000c 	sw	a2,12(v0)
9d002528:	0f402e36 	jal	9d00b8d8 <strtod>
9d00252c:	8c710000 	lw	s1,0(v1)
9d002530:	ae220000 	sw	v0,0(s1)
9d002534:	8fa200b4 	lw	v0,180(sp)
9d002538:	8c430018 	lw	v1,24(v0)
9d00253c:	24630001 	addiu	v1,v1,1
9d002540:	ac430018 	sw	v1,24(v0)
9d002544:	8fa400c0 	lw	a0,192(sp)
9d002548:	5080fe5d 	beqzl	a0,9d001ec0 <do_scan+0xc0>
9d00254c:	8fa500a0 	lw	a1,160(sp)
9d002550:	0f402242 	jal	9d008908 <free>
9d002554:	00000000 	nop
9d002558:	0b4007b0 	j	9d001ec0 <do_scan+0xc0>
9d00255c:	8fa500a0 	lw	a1,160(sp)
9d002560:	2417ffff 	li	s7,-1
9d002564:	2403000a 	li	v1,10
9d002568:	afa300d4 	sw	v1,212(sp)
9d00256c:	3c029d01 	lui	v0,0x9d01
9d002570:	0b40086d 	j	9d0021b4 <do_scan+0x3b4>
9d002574:	2454b81c 	addiu	s4,v0,-18404
9d002578:	afa200a0 	sw	v0,160(sp)
9d00257c:	80720001 	lb	s2,1(v1)
9d002580:	0b4007f6 	j	9d001fd8 <do_scan+0x1d8>
9d002584:	36310800 	ori	s1,s1,0x800
9d002588:	afa200a0 	sw	v0,160(sp)
9d00258c:	80720001 	lb	s2,1(v1)
9d002590:	0b4007f6 	j	9d001fd8 <do_scan+0x1d8>
9d002594:	36310080 	ori	s1,s1,0x80
9d002598:	0f402cb4 	jal	9d00b2d0 <gsgetc>
9d00259c:	27a40098 	addiu	a0,sp,152
9d0025a0:	0040b821 	move	s7,v0
9d0025a4:	2402ffff 	li	v0,-1
9d0025a8:	12e2004f 	beq	s7,v0,9d0026e8 <do_scan+0x8e8>
9d0025ac:	8fa300d0 	lw	v1,208(sp)
9d0025b0:	2402002b 	li	v0,43
9d0025b4:	16e2010c 	bne	s7,v0,9d0029e8 <do_scan+0xbe8>
9d0025b8:	2472ffff 	addiu	s2,v1,-1
9d0025bc:	8fa200cc 	lw	v0,204(sp)
9d0025c0:	24430001 	addiu	v1,v0,1
9d0025c4:	afa300cc 	sw	v1,204(sp)
9d0025c8:	16400063 	bnez	s2,9d002758 <do_scan+0x958>
9d0025cc:	a0570000 	sb	s7,0(v0)
9d0025d0:	8fa300d4 	lw	v1,212(sp)
9d0025d4:	1060ffe2 	beqz	v1,9d002560 <do_scan+0x760>
9d0025d8:	8fb600cc 	lw	s6,204(sp)
9d0025dc:	24020010 	li	v0,16
9d0025e0:	1462feec 	bne	v1,v0,9d002194 <do_scan+0x394>
9d0025e4:	2417ffff 	li	s7,-1
9d0025e8:	24030010 	li	v1,16
9d0025ec:	afa300d4 	sw	v1,212(sp)
9d0025f0:	3c049d01 	lui	a0,0x9d01
9d0025f4:	0b40086d 	j	9d0021b4 <do_scan+0x3b4>
9d0025f8:	2494b804 	addiu	s4,a0,-18428
9d0025fc:	0f402cb4 	jal	9d00b2d0 <gsgetc>
9d002600:	27a40098 	addiu	a0,sp,152
9d002604:	2403ffff 	li	v1,-1
9d002608:	5043001b 	beql	v0,v1,9d002678 <do_scan+0x878>
9d00260c:	241effff 	li	s8,-1
9d002610:	5452fe4f 	bnel	v0,s2,9d001f50 <do_scan+0x150>
9d002614:	afa2009c 	sw	v0,156(sp)
9d002618:	0b4007b0 	j	9d001ec0 <do_scan+0xc0>
9d00261c:	8fa500a0 	lw	a1,160(sp)
9d002620:	12c00023 	beqz	s6,9d0026b0 <do_scan+0x8b0>
9d002624:	00000000 	nop
9d002628:	0f4022e1 	jal	9d008b84 <strtol>
9d00262c:	00000000 	nop
9d002630:	00002021 	move	a0,zero
9d002634:	0b400887 	j	9d00221c <do_scan+0x41c>
9d002638:	00002821 	move	a1,zero
9d00263c:	a2c00000 	sb	zero,0(s6)
9d002640:	26520001 	addiu	s2,s2,1
9d002644:	afb7009c 	sw	s7,156(sp)
9d002648:	8fa200a8 	lw	v0,168(sp)
9d00264c:	2442ffff 	addiu	v0,v0,-1
9d002650:	0b40087a 	j	9d0021e8 <do_scan+0x3e8>
9d002654:	afa200a8 	sw	v0,168(sp)
9d002658:	0f402cb4 	jal	9d00b2d0 <gsgetc>
9d00265c:	27a40098 	addiu	a0,sp,152
9d002660:	0040b821 	move	s7,v0
9d002664:	00021027 	nor	v0,zero,v0
9d002668:	8fb600cc 	lw	s6,204(sp)
9d00266c:	0002102b 	sltu	v0,zero,v0
9d002670:	0b40086d 	j	9d0021b4 <do_scan+0x3b4>
9d002674:	02429023 	subu	s2,s2,v0
9d002678:	0b4007b0 	j	9d001ec0 <do_scan+0xc0>
9d00267c:	8fa500a0 	lw	a1,160(sp)
9d002680:	241effff 	li	s8,-1
9d002684:	00174027 	nor	t0,zero,s7
9d002688:	24020001 	li	v0,1
9d00268c:	0048f00b 	movn	s8,v0,t0
9d002690:	0b4007b0 	j	9d001ec0 <do_scan+0xc0>
9d002694:	8fa500a0 	lw	a1,160(sp)
9d002698:	0f40203e 	jal	9d0080f8 <strtoull>
9d00269c:	00000000 	nop
9d0026a0:	00402021 	move	a0,v0
9d0026a4:	00602821 	move	a1,v1
9d0026a8:	0b400887 	j	9d00221c <do_scan+0x41c>
9d0026ac:	00001021 	move	v0,zero
9d0026b0:	0f4021a2 	jal	9d008688 <strtoul>
9d0026b4:	00000000 	nop
9d0026b8:	00002021 	move	a0,zero
9d0026bc:	0b400887 	j	9d00221c <do_scan+0x41c>
9d0026c0:	00002821 	move	a1,zero
9d0026c4:	24430004 	addiu	v1,v0,4
9d0026c8:	afa300a4 	sw	v1,164(sp)
9d0026cc:	8c420000 	lw	v0,0(v0)
9d0026d0:	ac440000 	sw	a0,0(v0)
9d0026d4:	0b400899 	j	9d002264 <do_scan+0x464>
9d0026d8:	ac450004 	sw	a1,4(v0)
9d0026dc:	241e0001 	li	s8,1
9d0026e0:	0b4007b0 	j	9d001ec0 <do_scan+0xc0>
9d0026e4:	8fa500a0 	lw	a1,160(sp)
9d0026e8:	8fb600cc 	lw	s6,204(sp)
9d0026ec:	0b40085e 	j	9d002178 <do_scan+0x378>
9d0026f0:	8fb200d0 	lw	s2,208(sp)
9d0026f4:	16e2ffbd 	bne	s7,v0,9d0025ec <do_scan+0x7ec>
9d0026f8:	24030010 	li	v1,16
9d0026fc:	26c20001 	addiu	v0,s6,1
9d002700:	afa200cc 	sw	v0,204(sp)
9d002704:	16400004 	bnez	s2,9d002718 <do_scan+0x918>
9d002708:	a2d70000 	sb	s7,0(s6)
9d00270c:	8fb600cc 	lw	s6,204(sp)
9d002710:	0b40097a 	j	9d0025e8 <do_scan+0x7e8>
9d002714:	2417ffff 	li	s7,-1
9d002718:	0f402cb4 	jal	9d00b2d0 <gsgetc>
9d00271c:	27a40098 	addiu	a0,sp,152
9d002720:	2416ffff 	li	s6,-1
9d002724:	1056fff9 	beq	v0,s6,9d00270c <do_scan+0x90c>
9d002728:	0040b821 	move	s7,v0
9d00272c:	2404ffdf 	li	a0,-33
9d002730:	00441824 	and	v1,v0,a0
9d002734:	24020058 	li	v0,88
9d002738:	146200a8 	bne	v1,v0,9d0029dc <do_scan+0xbdc>
9d00273c:	2654ffff 	addiu	s4,s2,-1
9d002740:	16800080 	bnez	s4,9d002944 <do_scan+0xb44>
9d002744:	00000000 	nop
9d002748:	8fb600cc 	lw	s6,204(sp)
9d00274c:	00009021 	move	s2,zero
9d002750:	0b40097a 	j	9d0025e8 <do_scan+0x7e8>
9d002754:	2417ffff 	li	s7,-1
9d002758:	0f402cb4 	jal	9d00b2d0 <gsgetc>
9d00275c:	27a40098 	addiu	a0,sp,152
9d002760:	0040b821 	move	s7,v0
9d002764:	2402ffff 	li	v0,-1
9d002768:	12e2ff9a 	beq	s7,v0,9d0025d4 <do_scan+0x7d4>
9d00276c:	8fa300d4 	lw	v1,212(sp)
9d002770:	8fb600cc 	lw	s6,204(sp)
9d002774:	8fa400d0 	lw	a0,208(sp)
9d002778:	2492fffe 	addiu	s2,a0,-2
9d00277c:	8fa300d4 	lw	v1,212(sp)
9d002780:	1460fe82 	bnez	v1,9d00218c <do_scan+0x38c>
9d002784:	24020010 	li	v0,16
9d002788:	24020030 	li	v0,48
9d00278c:	16e2ff76 	bne	s7,v0,9d002568 <do_scan+0x768>
9d002790:	2403000a 	li	v1,10
9d002794:	26c20001 	addiu	v0,s6,1
9d002798:	afa200cc 	sw	v0,204(sp)
9d00279c:	16400004 	bnez	s2,9d0027b0 <do_scan+0x9b0>
9d0027a0:	a2d70000 	sb	s7,0(s6)
9d0027a4:	2417ffff 	li	s7,-1
9d0027a8:	0b400869 	j	9d0021a4 <do_scan+0x3a4>
9d0027ac:	8fb600cc 	lw	s6,204(sp)
9d0027b0:	0f402cb4 	jal	9d00b2d0 <gsgetc>
9d0027b4:	27a40098 	addiu	a0,sp,152
9d0027b8:	2416ffff 	li	s6,-1
9d0027bc:	1056fff9 	beq	v0,s6,9d0027a4 <do_scan+0x9a4>
9d0027c0:	0040b821 	move	s7,v0
9d0027c4:	2404ffdf 	li	a0,-33
9d0027c8:	00441824 	and	v1,v0,a0
9d0027cc:	24020058 	li	v0,88
9d0027d0:	1062ffdb 	beq	v1,v0,9d002740 <do_scan+0x940>
9d0027d4:	2654ffff 	addiu	s4,s2,-1
9d0027d8:	02809021 	move	s2,s4
9d0027dc:	0b400869 	j	9d0021a4 <do_scan+0x3a4>
9d0027e0:	8fb600cc 	lw	s6,204(sp)
9d0027e4:	32230200 	andi	v1,s1,0x200
9d0027e8:	10600010 	beqz	v1,9d00282c <do_scan+0xa2c>
9d0027ec:	32230100 	andi	v1,s1,0x100
9d0027f0:	8fa300a4 	lw	v1,164(sp)
9d0027f4:	24640004 	addiu	a0,v1,4
9d0027f8:	afa400a4 	sw	a0,164(sp)
9d0027fc:	8c630000 	lw	v1,0(v1)
9d002800:	ac620000 	sw	v0,0(v1)
9d002804:	0b4007b0 	j	9d001ec0 <do_scan+0xc0>
9d002808:	8fa500a0 	lw	a1,160(sp)
9d00280c:	10600010 	beqz	v1,9d002850 <do_scan+0xa50>
9d002810:	32310080 	andi	s1,s1,0x80
9d002814:	8fa300a4 	lw	v1,164(sp)
9d002818:	24640004 	addiu	a0,v1,4
9d00281c:	afa400a4 	sw	a0,164(sp)
9d002820:	8c630000 	lw	v1,0(v1)
9d002824:	0b400899 	j	9d002264 <do_scan+0x464>
9d002828:	a4620000 	sh	v0,0(v1)
9d00282c:	1060003d 	beqz	v1,9d002924 <do_scan+0xb24>
9d002830:	32310080 	andi	s1,s1,0x80
9d002834:	8fa300a4 	lw	v1,164(sp)
9d002838:	24640004 	addiu	a0,v1,4
9d00283c:	afa400a4 	sw	a0,164(sp)
9d002840:	8c630000 	lw	v1,0(v1)
9d002844:	a4620000 	sh	v0,0(v1)
9d002848:	0b4007b0 	j	9d001ec0 <do_scan+0xc0>
9d00284c:	8fa500a0 	lw	a1,160(sp)
9d002850:	8fa300a4 	lw	v1,164(sp)
9d002854:	24640004 	addiu	a0,v1,4
9d002858:	afa400a4 	sw	a0,164(sp)
9d00285c:	1220002f 	beqz	s1,9d00291c <do_scan+0xb1c>
9d002860:	8c630000 	lw	v1,0(v1)
9d002864:	0b400899 	j	9d002264 <do_scan+0x464>
9d002868:	a0620000 	sb	v0,0(v1)
9d00286c:	0f402cb4 	jal	9d00b2d0 <gsgetc>
9d002870:	27a40098 	addiu	a0,sp,152
9d002874:	0040b021 	move	s6,v0
9d002878:	2402ffff 	li	v0,-1
9d00287c:	52c2fef4 	beql	s6,v0,9d002450 <do_scan+0x650>
9d002880:	3c049d01 	lui	a0,0x9d01
9d002884:	8fa200b8 	lw	v0,184(sp)
9d002888:	2442ffff 	addiu	v0,v0,-1
9d00288c:	afa200b8 	sw	v0,184(sp)
9d002890:	2402002b 	li	v0,43
9d002894:	56c20059 	bnel	s6,v0,9d0029fc <do_scan+0xbfc>
9d002898:	2402002d 	li	v0,45
9d00289c:	27b200b4 	addiu	s2,sp,180
9d0028a0:	02407821 	move	t7,s2
9d0028a4:	0f4026f5 	jal	9d009bd4 <putget.2780>
9d0028a8:	02c02021 	move	a0,s6
9d0028ac:	0040b021 	move	s6,v0
9d0028b0:	24420001 	addiu	v0,v0,1
9d0028b4:	3c049d01 	lui	a0,0x9d01
9d0028b8:	24839ce0 	addiu	v1,a0,-25376
9d0028bc:	00621021 	addu	v0,v1,v0
9d0028c0:	0b40091d 	j	9d002474 <do_scan+0x674>
9d0028c4:	24140001 	li	s4,1
9d0028c8:	0b400951 	j	9d002544 <do_scan+0x744>
9d0028cc:	241e0001 	li	s8,1
9d0028d0:	0f4026f5 	jal	9d009bd4 <putget.2780>
9d0028d4:	02c02021 	move	a0,s6
9d0028d8:	0040b021 	move	s6,v0
9d0028dc:	2402002d 	li	v0,45
9d0028e0:	12c20003 	beq	s6,v0,9d0028f0 <do_scan+0xaf0>
9d0028e4:	2402002b 	li	v0,43
9d0028e8:	16c20006 	bne	s6,v0,9d002904 <do_scan+0xb04>
9d0028ec:	02161021 	addu	v0,s0,s6
9d0028f0:	02407821 	move	t7,s2
9d0028f4:	0f4026f5 	jal	9d009bd4 <putget.2780>
9d0028f8:	02c02021 	move	a0,s6
9d0028fc:	0040b021 	move	s6,v0
9d002900:	02161021 	addu	v0,s0,s6
9d002904:	90420000 	lbu	v0,0(v0)
9d002908:	30420004 	andi	v0,v0,0x4
9d00290c:	1440fff9 	bnez	v0,9d0028f4 <do_scan+0xaf4>
9d002910:	02407821 	move	t7,s2
9d002914:	0b40092c 	j	9d0024b0 <do_scan+0x6b0>
9d002918:	00000000 	nop
9d00291c:	0b400899 	j	9d002264 <do_scan+0x464>
9d002920:	ac620000 	sw	v0,0(v1)
9d002924:	8fa300a4 	lw	v1,164(sp)
9d002928:	24640004 	addiu	a0,v1,4
9d00292c:	afa400a4 	sw	a0,164(sp)
9d002930:	1220001c 	beqz	s1,9d0029a4 <do_scan+0xba4>
9d002934:	8c630000 	lw	v1,0(v1)
9d002938:	a0620000 	sb	v0,0(v1)
9d00293c:	0b4007b0 	j	9d001ec0 <do_scan+0xc0>
9d002940:	8fa500a0 	lw	a1,160(sp)
9d002944:	0f402cb4 	jal	9d00b2d0 <gsgetc>
9d002948:	27a40098 	addiu	a0,sp,152
9d00294c:	10560023 	beq	v0,s6,9d0029dc <do_scan+0xbdc>
9d002950:	0040b821 	move	s7,v0
9d002954:	2652fffe 	addiu	s2,s2,-2
9d002958:	0b40097a 	j	9d0025e8 <do_scan+0x7e8>
9d00295c:	8fb600cc 	lw	s6,204(sp)
9d002960:	0b400a5b 	j	9d00296c <do_scan+0xb6c>
9d002964:	2404002e 	li	a0,46
9d002968:	02c02021 	move	a0,s6
9d00296c:	0f4026f5 	jal	9d009bd4 <putget.2780>
9d002970:	00000000 	nop
9d002974:	0040b021 	move	s6,v0
9d002978:	02021021 	addu	v0,s0,v0
9d00297c:	90420000 	lbu	v0,0(v0)
9d002980:	30420004 	andi	v0,v0,0x4
9d002984:	1440fff8 	bnez	v0,9d002968 <do_scan+0xb68>
9d002988:	02407821 	move	t7,s2
9d00298c:	0b400924 	j	9d002490 <do_scan+0x690>
9d002990:	8fa200c8 	lw	v0,200(sp)
9d002994:	0f402e67 	jal	9d00b99c <strtof>
9d002998:	8c710000 	lw	s1,0(v1)
9d00299c:	0b40094d 	j	9d002534 <do_scan+0x734>
9d0029a0:	ae220000 	sw	v0,0(s1)
9d0029a4:	ac620000 	sw	v0,0(v1)
9d0029a8:	0b4007b0 	j	9d001ec0 <do_scan+0xc0>
9d0029ac:	8fa500a0 	lw	a1,160(sp)
9d0029b0:	8c43000c 	lw	v1,12(v0)
9d0029b4:	8fa400bc 	lw	a0,188(sp)
9d0029b8:	24660004 	addiu	a2,v1,4
9d0029bc:	ac46000c 	sw	a2,12(v0)
9d0029c0:	0f402e36 	jal	9d00b8d8 <strtod>
9d0029c4:	8c710000 	lw	s1,0(v1)
9d0029c8:	0f402a1a 	jal	9d00a868 <__extendsfdf2>
9d0029cc:	00402021 	move	a0,v0
9d0029d0:	ae220000 	sw	v0,0(s1)
9d0029d4:	0b40094d 	j	9d002534 <do_scan+0x734>
9d0029d8:	ae230004 	sw	v1,4(s1)
9d0029dc:	8fb600cc 	lw	s6,204(sp)
9d0029e0:	0b40097a 	j	9d0025e8 <do_scan+0x7e8>
9d0029e4:	02809021 	move	s2,s4
9d0029e8:	2402002d 	li	v0,45
9d0029ec:	12e2fef4 	beq	s7,v0,9d0025c0 <do_scan+0x7c0>
9d0029f0:	8fa200cc 	lw	v0,204(sp)
9d0029f4:	0b4009df 	j	9d00277c <do_scan+0x97c>
9d0029f8:	8fb600cc 	lw	s6,204(sp)
9d0029fc:	52c2ffa8 	beql	s6,v0,9d0028a0 <do_scan+0xaa0>
9d002a00:	27b200b4 	addiu	s2,sp,180
9d002a04:	26c20001 	addiu	v0,s6,1
9d002a08:	3c049d01 	lui	a0,0x9d01
9d002a0c:	24839ce0 	addiu	v1,a0,-25376
9d002a10:	0b400916 	j	9d002458 <do_scan+0x658>
9d002a14:	00621021 	addu	v0,v1,v0

Disassembly of section .text._do_print_cdfFnopuxX:

9d002a18 <_do_print_cdfFnopuxX>:
9d002a18:	27bdff58 	addiu	sp,sp,-168
9d002a1c:	afbf00a4 	sw	ra,164(sp)
9d002a20:	afbe00a0 	sw	s8,160(sp)
9d002a24:	afb7009c 	sw	s7,156(sp)
9d002a28:	afb60098 	sw	s6,152(sp)
9d002a2c:	afb50094 	sw	s5,148(sp)
9d002a30:	afb40090 	sw	s4,144(sp)
9d002a34:	afb3008c 	sw	s3,140(sp)
9d002a38:	afb20088 	sw	s2,136(sp)
9d002a3c:	afb10084 	sw	s1,132(sp)
9d002a40:	afb00080 	sw	s0,128(sp)
9d002a44:	afa400a8 	sw	a0,168(sp)
9d002a48:	8c820018 	lw	v0,24(a0)
9d002a4c:	00a09021 	move	s2,a1
9d002a50:	24050001 	li	a1,1
9d002a54:	8c420010 	lw	v0,16(v0)
9d002a58:	0040f809 	jalr	v0
9d002a5c:	afa600b0 	sw	a2,176(sp)
9d002a60:	104001a5 	beqz	v0,9d0030f8 <_do_print_cdfFnopuxX+0x6e0>
9d002a64:	27a20058 	addiu	v0,sp,88
9d002a68:	afa00068 	sw	zero,104(sp)
9d002a6c:	afa20060 	sw	v0,96(sp)
9d002a70:	82440000 	lb	a0,0(s2)
9d002a74:	1080000d 	beqz	a0,9d002aac <_do_print_cdfFnopuxX+0x94>
9d002a78:	26500001 	addiu	s0,s2,1
9d002a7c:	24020025 	li	v0,37
9d002a80:	5082001c 	beql	a0,v0,9d002af4 <_do_print_cdfFnopuxX+0xdc>
9d002a84:	82460001 	lb	a2,1(s2)
9d002a88:	0f4029ef 	jal	9d00a7bc <fputc>
9d002a8c:	8fa500a8 	lw	a1,168(sp)
9d002a90:	8fa30068 	lw	v1,104(sp)
9d002a94:	24630001 	addiu	v1,v1,1
9d002a98:	afa30068 	sw	v1,104(sp)
9d002a9c:	02009021 	move	s2,s0
9d002aa0:	82440000 	lb	a0,0(s2)
9d002aa4:	1480fff5 	bnez	a0,9d002a7c <_do_print_cdfFnopuxX+0x64>
9d002aa8:	26500001 	addiu	s0,s2,1
9d002aac:	8fa400a8 	lw	a0,168(sp)
9d002ab0:	94820010 	lhu	v0,16(a0)
9d002ab4:	30420040 	andi	v0,v0,0x40
9d002ab8:	14400190 	bnez	v0,9d0030fc <_do_print_cdfFnopuxX+0x6e4>
9d002abc:	2402ffff 	li	v0,-1
9d002ac0:	8fa20068 	lw	v0,104(sp)
9d002ac4:	8fbf00a4 	lw	ra,164(sp)
9d002ac8:	8fbe00a0 	lw	s8,160(sp)
9d002acc:	8fb7009c 	lw	s7,156(sp)
9d002ad0:	8fb60098 	lw	s6,152(sp)
9d002ad4:	8fb50094 	lw	s5,148(sp)
9d002ad8:	8fb40090 	lw	s4,144(sp)
9d002adc:	8fb3008c 	lw	s3,140(sp)
9d002ae0:	8fb20088 	lw	s2,136(sp)
9d002ae4:	8fb10084 	lw	s1,132(sp)
9d002ae8:	8fb00080 	lw	s0,128(sp)
9d002aec:	03e00008 	jr	ra
9d002af0:	27bd00a8 	addiu	sp,sp,168
9d002af4:	10c40174 	beq	a2,a0,9d0030c8 <_do_print_cdfFnopuxX+0x6b0>
9d002af8:	0000b821 	move	s7,zero
9d002afc:	2402002d 	li	v0,45
9d002b00:	2403002b 	li	v1,43
9d002b04:	24040020 	li	a0,32
9d002b08:	24050023 	li	a1,35
9d002b0c:	10c2000e 	beq	a2,v0,9d002b48 <_do_print_cdfFnopuxX+0x130>
9d002b10:	24070030 	li	a3,48
9d002b14:	50c30010 	beql	a2,v1,9d002b58 <_do_print_cdfFnopuxX+0x140>
9d002b18:	36f70002 	ori	s7,s7,0x2
9d002b1c:	50c40011 	beql	a2,a0,9d002b64 <_do_print_cdfFnopuxX+0x14c>
9d002b20:	36f70001 	ori	s7,s7,0x1
9d002b24:	50c50012 	beql	a2,a1,9d002b70 <_do_print_cdfFnopuxX+0x158>
9d002b28:	36f70800 	ori	s7,s7,0x800
9d002b2c:	54c70013 	bnel	a2,a3,9d002b7c <_do_print_cdfFnopuxX+0x164>
9d002b30:	2402002a 	li	v0,42
9d002b34:	36f70004 	ori	s7,s7,0x4
9d002b38:	26100001 	addiu	s0,s0,1
9d002b3c:	82060000 	lb	a2,0(s0)
9d002b40:	14c2fff4 	bne	a2,v0,9d002b14 <_do_print_cdfFnopuxX+0xfc>
9d002b44:	00000000 	nop
9d002b48:	36f70008 	ori	s7,s7,0x8
9d002b4c:	26100001 	addiu	s0,s0,1
9d002b50:	0b400ad0 	j	9d002b40 <_do_print_cdfFnopuxX+0x128>
9d002b54:	82060000 	lb	a2,0(s0)
9d002b58:	26100001 	addiu	s0,s0,1
9d002b5c:	0b400ad0 	j	9d002b40 <_do_print_cdfFnopuxX+0x128>
9d002b60:	82060000 	lb	a2,0(s0)
9d002b64:	26100001 	addiu	s0,s0,1
9d002b68:	0b400ad0 	j	9d002b40 <_do_print_cdfFnopuxX+0x128>
9d002b6c:	82060000 	lb	a2,0(s0)
9d002b70:	26100001 	addiu	s0,s0,1
9d002b74:	0b400ad0 	j	9d002b40 <_do_print_cdfFnopuxX+0x128>
9d002b78:	82060000 	lb	a2,0(s0)
9d002b7c:	10c20141 	beq	a2,v0,9d003084 <_do_print_cdfFnopuxX+0x66c>
9d002b80:	02001821 	move	v1,s0
9d002b84:	24c2ffd0 	addiu	v0,a2,-48
9d002b88:	2c42000a 	sltiu	v0,v0,10
9d002b8c:	1040000b 	beqz	v0,9d002bbc <_do_print_cdfFnopuxX+0x1a4>
9d002b90:	0000b021 	move	s6,zero
9d002b94:	00161040 	sll	v0,s6,0x1
9d002b98:	001648c0 	sll	t1,s6,0x3
9d002b9c:	00494821 	addu	t1,v0,t1
9d002ba0:	26100001 	addiu	s0,s0,1
9d002ba4:	01264821 	addu	t1,t1,a2
9d002ba8:	82060000 	lb	a2,0(s0)
9d002bac:	24c2ffd0 	addiu	v0,a2,-48
9d002bb0:	2c42000a 	sltiu	v0,v0,10
9d002bb4:	1440fff7 	bnez	v0,9d002b94 <_do_print_cdfFnopuxX+0x17c>
9d002bb8:	2536ffd0 	addiu	s6,t1,-48
9d002bbc:	2402002e 	li	v0,46
9d002bc0:	10c2011c 	beq	a2,v0,9d003034 <_do_print_cdfFnopuxX+0x61c>
9d002bc4:	241effff 	li	s8,-1
9d002bc8:	24020068 	li	v0,104
9d002bcc:	10c20107 	beq	a2,v0,9d002fec <_do_print_cdfFnopuxX+0x5d4>
9d002bd0:	2402006c 	li	v0,108
9d002bd4:	10c20135 	beq	a2,v0,9d0030ac <_do_print_cdfFnopuxX+0x694>
9d002bd8:	24020071 	li	v0,113
9d002bdc:	10c20142 	beq	a2,v0,9d0030e8 <_do_print_cdfFnopuxX+0x6d0>
9d002be0:	2402004c 	li	v0,76
9d002be4:	50c201c9 	beql	a2,v0,9d00330c <_do_print_cdfFnopuxX+0x8f4>
9d002be8:	82060001 	lb	a2,1(s0)
9d002bec:	32e30002 	andi	v1,s7,0x2
9d002bf0:	32e2fffe 	andi	v0,s7,0xfffe
9d002bf4:	0043b80b 	movn	s7,v0,v1
9d002bf8:	24c2ffbc 	addiu	v0,a2,-68
9d002bfc:	32e50008 	andi	a1,s7,0x8
9d002c00:	32e4fffb 	andi	a0,s7,0xfffb
9d002c04:	2c430035 	sltiu	v1,v0,53
9d002c08:	26120001 	addiu	s2,s0,1
9d002c0c:	10600107 	beqz	v1,9d00302c <_do_print_cdfFnopuxX+0x614>
9d002c10:	0085b80b 	movn	s7,a0,a1
9d002c14:	00021080 	sll	v0,v0,0x2
9d002c18:	3c049d00 	lui	a0,0x9d00
9d002c1c:	24842c30 	addiu	a0,a0,11312
9d002c20:	00821021 	addu	v0,a0,v0
9d002c24:	8c420000 	lw	v0,0(v0)
9d002c28:	00400008 	jr	v0
9d002c2c:	00000000 	nop
9d002c30:	9d002fd8 	0x9d002fd8
9d002c34:	9d00302c 	0x9d00302c
9d002c38:	9d002f94 	0x9d002f94
9d002c3c:	9d00302c 	0x9d00302c
9d002c40:	9d00302c 	0x9d00302c
9d002c44:	9d00302c 	0x9d00302c
9d002c48:	9d00302c 	0x9d00302c
9d002c4c:	9d00302c 	0x9d00302c
9d002c50:	9d00302c 	0x9d00302c
9d002c54:	9d00302c 	0x9d00302c
9d002c58:	9d00302c 	0x9d00302c
9d002c5c:	9d003280 	0x9d003280
9d002c60:	9d002f84 	0x9d002f84
9d002c64:	9d00302c 	0x9d00302c
9d002c68:	9d00302c 	0x9d00302c
9d002c6c:	9d00302c 	0x9d00302c
9d002c70:	9d00302c 	0x9d00302c
9d002c74:	9d002eb8 	0x9d002eb8
9d002c78:	9d00302c 	0x9d00302c
9d002c7c:	9d00302c 	0x9d00302c
9d002c80:	9d002d04 	0x9d002d04
9d002c84:	9d00302c 	0x9d00302c
9d002c88:	9d00302c 	0x9d00302c
9d002c8c:	9d00302c 	0x9d00302c
9d002c90:	9d00302c 	0x9d00302c
9d002c94:	9d00302c 	0x9d00302c
9d002c98:	9d00302c 	0x9d00302c
9d002c9c:	9d00302c 	0x9d00302c
9d002ca0:	9d00302c 	0x9d00302c
9d002ca4:	9d00302c 	0x9d00302c
9d002ca8:	9d00302c 	0x9d00302c
9d002cac:	9d00321c 	0x9d00321c
9d002cb0:	9d002fdc 	0x9d002fdc
9d002cb4:	9d00302c 	0x9d00302c
9d002cb8:	9d002f98 	0x9d002f98
9d002cbc:	9d00302c 	0x9d00302c
9d002cc0:	9d00302c 	0x9d00302c
9d002cc4:	9d002fdc 	0x9d002fdc
9d002cc8:	9d00302c 	0x9d00302c
9d002ccc:	9d00302c 	0x9d00302c
9d002cd0:	9d00302c 	0x9d00302c
9d002cd4:	9d00302c 	0x9d00302c
9d002cd8:	9d003160 	0x9d003160
9d002cdc:	9d003158 	0x9d003158
9d002ce0:	9d002f88 	0x9d002f88
9d002ce4:	9d00302c 	0x9d00302c
9d002ce8:	9d00302c 	0x9d00302c
9d002cec:	9d0031a8 	0x9d0031a8
9d002cf0:	9d00302c 	0x9d00302c
9d002cf4:	9d002ebc 	0x9d002ebc
9d002cf8:	9d00302c 	0x9d00302c
9d002cfc:	9d00302c 	0x9d00302c
9d002d00:	9d002d08 	0x9d002d08
9d002d04:	36f70020 	ori	s7,s7,0x20
9d002d08:	24100010 	li	s0,16
9d002d0c:	2402ffff 	li	v0,-1
9d002d10:	13c2006f 	beq	s8,v0,9d002ed0 <_do_print_cdfFnopuxX+0x4b8>
9d002d14:	00002821 	move	a1,zero
9d002d18:	32f7fffb 	andi	s7,s7,0xfffb
9d002d1c:	27c5ffff 	addiu	a1,s8,-1
9d002d20:	32e200c0 	andi	v0,s7,0xc0
9d002d24:	1040006e 	beqz	v0,9d002ee0 <_do_print_cdfFnopuxX+0x4c8>
9d002d28:	afa2006c 	sw	v0,108(sp)
9d002d2c:	7c171620 	seh	v0,s7
9d002d30:	04400180 	bltz	v0,9d003334 <_do_print_cdfFnopuxX+0x91c>
9d002d34:	32e20010 	andi	v0,s7,0x10
9d002d38:	14400102 	bnez	v0,9d003144 <_do_print_cdfFnopuxX+0x72c>
9d002d3c:	8fa200b0 	lw	v0,176(sp)
9d002d40:	32e20041 	andi	v0,s7,0x41
9d002d44:	104001a8 	beqz	v0,9d0033e8 <_do_print_cdfFnopuxX+0x9d0>
9d002d48:	8fa400b0 	lw	a0,176(sp)
9d002d4c:	8fa300b0 	lw	v1,176(sp)
9d002d50:	8c750000 	lw	s5,0(v1)
9d002d54:	24630004 	addiu	v1,v1,4
9d002d58:	afa300b0 	sw	v1,176(sp)
9d002d5c:	0015a7c3 	sra	s4,s5,0x1f
9d002d60:	0683006d 	bgezl	s4,9d002f18 <_do_print_cdfFnopuxX+0x500>
9d002d64:	afa00074 	sw	zero,116(sp)
9d002d68:	00156823 	negu	t5,s5
9d002d6c:	000d102b 	sltu	v0,zero,t5
9d002d70:	00146023 	negu	t4,s4
9d002d74:	01a0a821 	move	s5,t5
9d002d78:	0182a023 	subu	s4,t4,v0
9d002d7c:	24020001 	li	v0,1
9d002d80:	12800067 	beqz	s4,9d002f20 <_do_print_cdfFnopuxX+0x508>
9d002d84:	afa20074 	sw	v0,116(sp)
9d002d88:	02b41025 	or	v0,s5,s4
9d002d8c:	104001ac 	beqz	v0,9d003440 <_do_print_cdfFnopuxX+0xa28>
9d002d90:	27a20057 	addiu	v0,sp,87
9d002d94:	afa20070 	sw	v0,112(sp)
9d002d98:	32e30020 	andi	v1,s7,0x20
9d002d9c:	24040037 	li	a0,55
9d002da0:	00108fc3 	sra	s1,s0,0x1f
9d002da4:	00409821 	move	s3,v0
9d002da8:	24020057 	li	v0,87
9d002dac:	0043200a 	movz	a0,v0,v1
9d002db0:	afa40064 	sw	a0,100(sp)
9d002db4:	02a02021 	move	a0,s5
9d002db8:	02802821 	move	a1,s4
9d002dbc:	02003021 	move	a2,s0
9d002dc0:	0f401877 	jal	9d0061dc <__umoddi3>
9d002dc4:	02203821 	move	a3,s1
9d002dc8:	2843000a 	slti	v1,v0,10
9d002dcc:	24460030 	addiu	a2,v0,48
9d002dd0:	8fa40064 	lw	a0,100(sp)
9d002dd4:	00441021 	addu	v0,v0,a0
9d002dd8:	0043300a 	movz	a2,v0,v1
9d002ddc:	2673ffff 	addiu	s3,s3,-1
9d002de0:	02a02021 	move	a0,s5
9d002de4:	02802821 	move	a1,s4
9d002de8:	a2660001 	sb	a2,1(s3)
9d002dec:	02003021 	move	a2,s0
9d002df0:	0f401990 	jal	9d006640 <.LFE1>
9d002df4:	02203821 	move	a3,s1
9d002df8:	00622025 	or	a0,v1,v0
9d002dfc:	0040a821 	move	s5,v0
9d002e00:	0060a021 	move	s4,v1
9d002e04:	1480ffeb 	bnez	a0,9d002db4 <_do_print_cdfFnopuxX+0x39c>
9d002e08:	27deffff 	addiu	s8,s8,-1
9d002e0c:	27c5ffff 	addiu	a1,s8,-1
9d002e10:	04a0000a 	bltz	a1,9d002e3c <_do_print_cdfFnopuxX+0x424>
9d002e14:	02601021 	move	v0,s3
9d002e18:	2664ffff 	addiu	a0,s3,-1
9d002e1c:	00852023 	subu	a0,a0,a1
9d002e20:	24030030 	li	v1,48
9d002e24:	a0430000 	sb	v1,0(v0)
9d002e28:	2442ffff 	addiu	v0,v0,-1
9d002e2c:	5444fffe 	bnel	v0,a0,9d002e28 <_do_print_cdfFnopuxX+0x410>
9d002e30:	a0430000 	sb	v1,0(v0)
9d002e34:	00052827 	nor	a1,zero,a1
9d002e38:	02659821 	addu	s3,s3,a1
9d002e3c:	32e20004 	andi	v0,s7,0x4
9d002e40:	14400112 	bnez	v0,9d00328c <_do_print_cdfFnopuxX+0x874>
9d002e44:	32e40800 	andi	a0,s7,0x800
9d002e48:	3084ffff 	andi	a0,a0,0xffff
9d002e4c:	50800007 	beqzl	a0,9d002e6c <_do_print_cdfFnopuxX+0x454>
9d002e50:	8fa3006c 	lw	v1,108(sp)
9d002e54:	24020008 	li	v0,8
9d002e58:	1202012f 	beq	s0,v0,9d003318 <_do_print_cdfFnopuxX+0x900>
9d002e5c:	24020010 	li	v0,16
9d002e60:	12020153 	beq	s0,v0,9d0033b0 <_do_print_cdfFnopuxX+0x998>
9d002e64:	32e40020 	andi	a0,s7,0x20
9d002e68:	8fa3006c 	lw	v1,108(sp)
9d002e6c:	10600007 	beqz	v1,9d002e8c <_do_print_cdfFnopuxX+0x474>
9d002e70:	8fa40074 	lw	a0,116(sp)
9d002e74:	14800121 	bnez	a0,9d0032fc <_do_print_cdfFnopuxX+0x8e4>
9d002e78:	32e20002 	andi	v0,s7,0x2
9d002e7c:	10400003 	beqz	v0,9d002e8c <_do_print_cdfFnopuxX+0x474>
9d002e80:	2402002b 	li	v0,43
9d002e84:	a2620000 	sb	v0,0(s3)
9d002e88:	2673ffff 	addiu	s3,s3,-1
9d002e8c:	26650001 	addiu	a1,s3,1
9d002e90:	afb70010 	sw	s7,16(sp)
9d002e94:	8fa400a8 	lw	a0,168(sp)
9d002e98:	8fa20060 	lw	v0,96(sp)
9d002e9c:	00453023 	subu	a2,v0,a1
9d002ea0:	0f402659 	jal	9d009964 <.LFE2>
9d002ea4:	02c03821 	move	a3,s6
9d002ea8:	8fa30068 	lw	v1,104(sp)
9d002eac:	00621821 	addu	v1,v1,v0
9d002eb0:	0b400a9c 	j	9d002a70 <_do_print_cdfFnopuxX+0x58>
9d002eb4:	afa30068 	sw	v1,104(sp)
9d002eb8:	36f70010 	ori	s7,s7,0x10
9d002ebc:	32f7f7ff 	andi	s7,s7,0xf7ff
9d002ec0:	2402ffff 	li	v0,-1
9d002ec4:	17c2ff94 	bne	s8,v0,9d002d18 <_do_print_cdfFnopuxX+0x300>
9d002ec8:	2410000a 	li	s0,10
9d002ecc:	00002821 	move	a1,zero
9d002ed0:	241e0001 	li	s8,1
9d002ed4:	32e200c0 	andi	v0,s7,0xc0
9d002ed8:	1440ff94 	bnez	v0,9d002d2c <_do_print_cdfFnopuxX+0x314>
9d002edc:	afa2006c 	sw	v0,108(sp)
9d002ee0:	7c171620 	seh	v0,s7
9d002ee4:	0440011b 	bltz	v0,9d003354 <_do_print_cdfFnopuxX+0x93c>
9d002ee8:	32e20010 	andi	v0,s7,0x10
9d002eec:	1440008f 	bnez	v0,9d00312c <_do_print_cdfFnopuxX+0x714>
9d002ef0:	8fa200b0 	lw	v0,176(sp)
9d002ef4:	32e20041 	andi	v0,s7,0x41
9d002ef8:	10400135 	beqz	v0,9d0033d0 <_do_print_cdfFnopuxX+0x9b8>
9d002efc:	8fa400b0 	lw	a0,176(sp)
9d002f00:	8fa300b0 	lw	v1,176(sp)
9d002f04:	8c750000 	lw	s5,0(v1)
9d002f08:	0000a021 	move	s4,zero
9d002f0c:	24630004 	addiu	v1,v1,4
9d002f10:	afa300b0 	sw	v1,176(sp)
9d002f14:	afa00074 	sw	zero,116(sp)
9d002f18:	1680ff9c 	bnez	s4,9d002d8c <_do_print_cdfFnopuxX+0x374>
9d002f1c:	02b41025 	or	v0,s5,s4
9d002f20:	12a0014b 	beqz	s5,9d003450 <_do_print_cdfFnopuxX+0xa38>
9d002f24:	02a06821 	move	t5,s5
9d002f28:	27a40057 	addiu	a0,sp,87
9d002f2c:	afa40070 	sw	a0,112(sp)
9d002f30:	32e30020 	andi	v1,s7,0x20
9d002f34:	24050037 	li	a1,55
9d002f38:	00809821 	move	s3,a0
9d002f3c:	24020057 	li	v0,87
9d002f40:	0043280a 	movz	a1,v0,v1
9d002f44:	01b0001b 	divu	zero,t5,s0
9d002f48:	020001f4 	teq	s0,zero,0x7
9d002f4c:	00001810 	mfhi	v1
9d002f50:	2673ffff 	addiu	s3,s3,-1
9d002f54:	27deffff 	addiu	s8,s8,-1
9d002f58:	01b0001b 	divu	zero,t5,s0
9d002f5c:	020001f4 	teq	s0,zero,0x7
9d002f60:	00006812 	mflo	t5
9d002f64:	2864000a 	slti	a0,v1,10
9d002f68:	24620030 	addiu	v0,v1,48
9d002f6c:	00651821 	addu	v1,v1,a1
9d002f70:	0064100a 	movz	v0,v1,a0
9d002f74:	15a0fff3 	bnez	t5,9d002f44 <_do_print_cdfFnopuxX+0x52c>
9d002f78:	a2620001 	sb	v0,1(s3)
9d002f7c:	0b400b84 	j	9d002e10 <_do_print_cdfFnopuxX+0x3f8>
9d002f80:	27c5ffff 	addiu	a1,s8,-1
9d002f84:	36f70020 	ori	s7,s7,0x20
9d002f88:	36f70810 	ori	s7,s7,0x810
9d002f8c:	0b400b43 	j	9d002d0c <_do_print_cdfFnopuxX+0x2f4>
9d002f90:	24100010 	li	s0,16
9d002f94:	36f70020 	ori	s7,s7,0x20
9d002f98:	32e20080 	andi	v0,s7,0x80
9d002f9c:	144000ac 	bnez	v0,9d003250 <_do_print_cdfFnopuxX+0x838>
9d002fa0:	36f00400 	ori	s0,s7,0x400
9d002fa4:	8fa400b0 	lw	a0,176(sp)
9d002fa8:	8c820000 	lw	v0,0(a0)
9d002fac:	24840004 	addiu	a0,a0,4
9d002fb0:	afa400b0 	sw	a0,176(sp)
9d002fb4:	afa20058 	sw	v0,88(sp)
9d002fb8:	8fa50058 	lw	a1,88(sp)
9d002fbc:	afbe0010 	sw	s8,16(sp)
9d002fc0:	afb00014 	sw	s0,20(sp)
9d002fc4:	8fa400a8 	lw	a0,168(sp)
9d002fc8:	0f4011d7 	jal	9d00475c <_fconvert>
9d002fcc:	02c03821 	move	a3,s6
9d002fd0:	0b400bab 	j	9d002eac <_do_print_cdfFnopuxX+0x494>
9d002fd4:	8fa30068 	lw	v1,104(sp)
9d002fd8:	36f70010 	ori	s7,s7,0x10
9d002fdc:	32e8f7ff 	andi	t0,s7,0xf7ff
9d002fe0:	351700c0 	ori	s7,t0,0xc0
9d002fe4:	0b400b43 	j	9d002d0c <_do_print_cdfFnopuxX+0x2f4>
9d002fe8:	2410000a 	li	s0,10
9d002fec:	82020001 	lb	v0,1(s0)
9d002ff0:	504600eb 	beql	v0,a2,9d0033a0 <_do_print_cdfFnopuxX+0x988>
9d002ff4:	82060002 	lb	a2,2(s0)
9d002ff8:	36f70040 	ori	s7,s7,0x40
9d002ffc:	00403021 	move	a2,v0
9d003000:	26100001 	addiu	s0,s0,1
9d003004:	32e30002 	andi	v1,s7,0x2
9d003008:	32e2fffe 	andi	v0,s7,0xfffe
9d00300c:	0043b80b 	movn	s7,v0,v1
9d003010:	24c2ffbc 	addiu	v0,a2,-68
9d003014:	32e50008 	andi	a1,s7,0x8
9d003018:	32e4fffb 	andi	a0,s7,0xfffb
9d00301c:	2c430035 	sltiu	v1,v0,53
9d003020:	26120001 	addiu	s2,s0,1
9d003024:	1460fefb 	bnez	v1,9d002c14 <_do_print_cdfFnopuxX+0x1fc>
9d003028:	0085b80b 	movn	s7,a0,a1
9d00302c:	0b400baa 	j	9d002ea8 <_do_print_cdfFnopuxX+0x490>
9d003030:	00001021 	move	v0,zero
9d003034:	82060001 	lb	a2,1(s0)
9d003038:	2402002a 	li	v0,42
9d00303c:	10c200ce 	beq	a2,v0,9d003378 <_do_print_cdfFnopuxX+0x960>
9d003040:	24c2ffd0 	addiu	v0,a2,-48
9d003044:	2c42000a 	sltiu	v0,v0,10
9d003048:	26100001 	addiu	s0,s0,1
9d00304c:	1040fede 	beqz	v0,9d002bc8 <_do_print_cdfFnopuxX+0x1b0>
9d003050:	0000f021 	move	s8,zero
9d003054:	001e1040 	sll	v0,s8,0x1
9d003058:	001e58c0 	sll	t3,s8,0x3
9d00305c:	004b5821 	addu	t3,v0,t3
9d003060:	26100001 	addiu	s0,s0,1
9d003064:	01665821 	addu	t3,t3,a2
9d003068:	82060000 	lb	a2,0(s0)
9d00306c:	24c2ffd0 	addiu	v0,a2,-48
9d003070:	2c42000a 	sltiu	v0,v0,10
9d003074:	1440fff7 	bnez	v0,9d003054 <_do_print_cdfFnopuxX+0x63c>
9d003078:	257effd0 	addiu	s8,t3,-48
9d00307c:	0b400af3 	j	9d002bcc <_do_print_cdfFnopuxX+0x1b4>
9d003080:	24020068 	li	v0,104
9d003084:	8fa200b0 	lw	v0,176(sp)
9d003088:	8c560000 	lw	s6,0(v0)
9d00308c:	24550004 	addiu	s5,v0,4
9d003090:	26100001 	addiu	s0,s0,1
9d003094:	06c10003 	bgez	s6,9d0030a4 <_do_print_cdfFnopuxX+0x68c>
9d003098:	80660001 	lb	a2,1(v1)
9d00309c:	36f70008 	ori	s7,s7,0x8
9d0030a0:	0016b023 	negu	s6,s6
9d0030a4:	0b400aef 	j	9d002bbc <_do_print_cdfFnopuxX+0x1a4>
9d0030a8:	afb500b0 	sw	s5,176(sp)
9d0030ac:	82020001 	lb	v0,1(s0)
9d0030b0:	504600d2 	beql	v0,a2,9d0033fc <_do_print_cdfFnopuxX+0x9e4>
9d0030b4:	82060002 	lb	a2,2(s0)
9d0030b8:	36f70010 	ori	s7,s7,0x10
9d0030bc:	00403021 	move	a2,v0
9d0030c0:	0b400c01 	j	9d003004 <_do_print_cdfFnopuxX+0x5ec>
9d0030c4:	26100001 	addiu	s0,s0,1
9d0030c8:	24040025 	li	a0,37
9d0030cc:	0f4029ef 	jal	9d00a7bc <fputc>
9d0030d0:	8fa500a8 	lw	a1,168(sp)
9d0030d4:	26520002 	addiu	s2,s2,2
9d0030d8:	8fa40068 	lw	a0,104(sp)
9d0030dc:	24840001 	addiu	a0,a0,1
9d0030e0:	0b400a9c 	j	9d002a70 <_do_print_cdfFnopuxX+0x58>
9d0030e4:	afa40068 	sw	a0,104(sp)
9d0030e8:	82060001 	lb	a2,1(s0)
9d0030ec:	36f78000 	ori	s7,s7,0x8000
9d0030f0:	0b400afb 	j	9d002bec <_do_print_cdfFnopuxX+0x1d4>
9d0030f4:	26100001 	addiu	s0,s0,1
9d0030f8:	2402ffff 	li	v0,-1
9d0030fc:	8fbf00a4 	lw	ra,164(sp)
9d003100:	8fbe00a0 	lw	s8,160(sp)
9d003104:	8fb7009c 	lw	s7,156(sp)
9d003108:	8fb60098 	lw	s6,152(sp)
9d00310c:	8fb50094 	lw	s5,148(sp)
9d003110:	8fb40090 	lw	s4,144(sp)
9d003114:	8fb3008c 	lw	s3,140(sp)
9d003118:	8fb20088 	lw	s2,136(sp)
9d00311c:	8fb10084 	lw	s1,132(sp)
9d003120:	8fb00080 	lw	s0,128(sp)
9d003124:	03e00008 	jr	ra
9d003128:	27bd00a8 	addiu	sp,sp,168
9d00312c:	8c550000 	lw	s5,0(v0)
9d003130:	0000a021 	move	s4,zero
9d003134:	24420004 	addiu	v0,v0,4
9d003138:	afa200b0 	sw	v0,176(sp)
9d00313c:	0b400bc6 	j	9d002f18 <_do_print_cdfFnopuxX+0x500>
9d003140:	afa00074 	sw	zero,116(sp)
9d003144:	8c550000 	lw	s5,0(v0)
9d003148:	24420004 	addiu	v0,v0,4
9d00314c:	afa200b0 	sw	v0,176(sp)
9d003150:	0b400b58 	j	9d002d60 <_do_print_cdfFnopuxX+0x348>
9d003154:	0015a7c3 	sra	s4,s5,0x1f
9d003158:	0b400b43 	j	9d002d0c <_do_print_cdfFnopuxX+0x2f4>
9d00315c:	24100008 	li	s0,8
9d003160:	7c171620 	seh	v0,s7
9d003164:	044000c2 	bltz	v0,9d003470 <_do_print_cdfFnopuxX+0xa58>
9d003168:	8fa400b0 	lw	a0,176(sp)
9d00316c:	32e20010 	andi	v0,s7,0x10
9d003170:	144000ab 	bnez	v0,9d003420 <_do_print_cdfFnopuxX+0xa08>
9d003174:	8fa200b0 	lw	v0,176(sp)
9d003178:	32e20040 	andi	v0,s7,0x40
9d00317c:	104000c7 	beqz	v0,9d00349c <_do_print_cdfFnopuxX+0xa84>
9d003180:	32e80001 	andi	t0,s7,0x1
9d003184:	8fa200b0 	lw	v0,176(sp)
9d003188:	8c430000 	lw	v1,0(v0)
9d00318c:	00001021 	move	v0,zero
9d003190:	8fa400b0 	lw	a0,176(sp)
9d003194:	24840004 	addiu	a0,a0,4
9d003198:	afa400b0 	sw	a0,176(sp)
9d00319c:	8fa40068 	lw	a0,104(sp)
9d0031a0:	0b400baa 	j	9d002ea8 <_do_print_cdfFnopuxX+0x490>
9d0031a4:	a4640000 	sh	a0,0(v1)
9d0031a8:	8fa400b0 	lw	a0,176(sp)
9d0031ac:	8c900000 	lw	s0,0(a0)
9d0031b0:	3c039d01 	lui	v1,0x9d01
9d0031b4:	2462b1ac 	addiu	v0,v1,-20052
9d0031b8:	0050800a 	movz	s0,v0,s0
9d0031bc:	2402ffff 	li	v0,-1
9d0031c0:	13c200a7 	beq	s8,v0,9d003460 <_do_print_cdfFnopuxX+0xa48>
9d0031c4:	24950004 	addiu	s5,a0,4
9d0031c8:	1bc00004 	blez	s8,9d0031dc <_do_print_cdfFnopuxX+0x7c4>
9d0031cc:	021e5821 	addu	t3,s0,s8
9d0031d0:	82030000 	lb	v1,0(s0)
9d0031d4:	14600005 	bnez	v1,9d0031ec <_do_print_cdfFnopuxX+0x7d4>
9d0031d8:	02001021 	move	v0,s0
9d0031dc:	0b400c7f 	j	9d0031fc <_do_print_cdfFnopuxX+0x7e4>
9d0031e0:	00001021 	move	v0,zero
9d0031e4:	50600005 	beqzl	v1,9d0031fc <_do_print_cdfFnopuxX+0x7e4>
9d0031e8:	00501023 	subu	v0,v0,s0
9d0031ec:	24420001 	addiu	v0,v0,1
9d0031f0:	544bfffc 	bnel	v0,t3,9d0031e4 <_do_print_cdfFnopuxX+0x7cc>
9d0031f4:	80430000 	lb	v1,0(v0)
9d0031f8:	00501023 	subu	v0,v0,s0
9d0031fc:	afb70010 	sw	s7,16(sp)
9d003200:	8fa400a8 	lw	a0,168(sp)
9d003204:	02002821 	move	a1,s0
9d003208:	00403021 	move	a2,v0
9d00320c:	0f402659 	jal	9d009964 <.LFE2>
9d003210:	02c03821 	move	a3,s6
9d003214:	0b400baa 	j	9d002ea8 <_do_print_cdfFnopuxX+0x490>
9d003218:	afb500b0 	sw	s5,176(sp)
9d00321c:	8fa300b0 	lw	v1,176(sp)
9d003220:	8c620000 	lw	v0,0(v1)
9d003224:	24750004 	addiu	s5,v1,4
9d003228:	afb70010 	sw	s7,16(sp)
9d00322c:	8fa400a8 	lw	a0,168(sp)
9d003230:	27a50018 	addiu	a1,sp,24
9d003234:	24060001 	li	a2,1
9d003238:	02c03821 	move	a3,s6
9d00323c:	a3a20018 	sb	v0,24(sp)
9d003240:	0f402659 	jal	9d009964 <.LFE2>
9d003244:	afb500b0 	sw	s5,176(sp)
9d003248:	0b400bab 	j	9d002eac <_do_print_cdfFnopuxX+0x494>
9d00324c:	8fa30068 	lw	v1,104(sp)
9d003250:	8fa300b0 	lw	v1,176(sp)
9d003254:	24750007 	addiu	s5,v1,7
9d003258:	7c151004 	ins	s5,zero,0x0,0x3
9d00325c:	8ea40000 	lw	a0,0(s5)
9d003260:	8ea50004 	lw	a1,4(s5)
9d003264:	26b50008 	addiu	s5,s5,8
9d003268:	afb500b0 	sw	s5,176(sp)
9d00326c:	0f4027fb 	jal	9d009fec <.LFE23>
9d003270:	afa60078 	sw	a2,120(sp)
9d003274:	afa20058 	sw	v0,88(sp)
9d003278:	0b400bee 	j	9d002fb8 <_do_print_cdfFnopuxX+0x5a0>
9d00327c:	8fa60078 	lw	a2,120(sp)
9d003280:	36f70010 	ori	s7,s7,0x10
9d003284:	0b400b43 	j	9d002d0c <_do_print_cdfFnopuxX+0x2f4>
9d003288:	24100008 	li	s0,8
9d00328c:	8fa20070 	lw	v0,112(sp)
9d003290:	02621823 	subu	v1,s3,v0
9d003294:	3084ffff 	andi	a0,a0,0xffff
9d003298:	10800006 	beqz	a0,9d0032b4 <_do_print_cdfFnopuxX+0x89c>
9d00329c:	02c31821 	addu	v1,s6,v1
9d0032a0:	24020008 	li	v0,8
9d0032a4:	12020059 	beq	s0,v0,9d00340c <_do_print_cdfFnopuxX+0x9f4>
9d0032a8:	2462fffe 	addiu	v0,v1,-2
9d0032ac:	3a050010 	xori	a1,s0,0x10
9d0032b0:	0045180a 	movz	v1,v0,a1
9d0032b4:	8fa2006c 	lw	v0,108(sp)
9d0032b8:	10400006 	beqz	v0,9d0032d4 <_do_print_cdfFnopuxX+0x8bc>
9d0032bc:	8fa20074 	lw	v0,116(sp)
9d0032c0:	54400004 	bnezl	v0,9d0032d4 <_do_print_cdfFnopuxX+0x8bc>
9d0032c4:	2463ffff 	addiu	v1,v1,-1
9d0032c8:	32e20003 	andi	v0,s7,0x3
9d0032cc:	54400001 	bnezl	v0,9d0032d4 <_do_print_cdfFnopuxX+0x8bc>
9d0032d0:	2463ffff 	addiu	v1,v1,-1
9d0032d4:	1860fedd 	blez	v1,9d002e4c <_do_print_cdfFnopuxX+0x434>
9d0032d8:	02601021 	move	v0,s3
9d0032dc:	02635023 	subu	t2,s3,v1
9d0032e0:	24030030 	li	v1,48
9d0032e4:	a0430000 	sb	v1,0(v0)
9d0032e8:	2442ffff 	addiu	v0,v0,-1
9d0032ec:	5542fffe 	bnel	t2,v0,9d0032e8 <_do_print_cdfFnopuxX+0x8d0>
9d0032f0:	a0430000 	sb	v1,0(v0)
9d0032f4:	0b400b93 	j	9d002e4c <_do_print_cdfFnopuxX+0x434>
9d0032f8:	01409821 	move	s3,t2
9d0032fc:	2402002d 	li	v0,45
9d003300:	a2620000 	sb	v0,0(s3)
9d003304:	0b400ba3 	j	9d002e8c <_do_print_cdfFnopuxX+0x474>
9d003308:	2673ffff 	addiu	s3,s3,-1
9d00330c:	36f70080 	ori	s7,s7,0x80
9d003310:	0b400c01 	j	9d003004 <_do_print_cdfFnopuxX+0x5ec>
9d003314:	26100001 	addiu	s0,s0,1
9d003318:	82630001 	lb	v1,1(s3)
9d00331c:	24020030 	li	v0,48
9d003320:	1062fed2 	beq	v1,v0,9d002e6c <_do_print_cdfFnopuxX+0x454>
9d003324:	8fa3006c 	lw	v1,108(sp)
9d003328:	a2620000 	sb	v0,0(s3)
9d00332c:	0b400b9a 	j	9d002e68 <_do_print_cdfFnopuxX+0x450>
9d003330:	2673ffff 	addiu	s3,s3,-1
9d003334:	8fa300b0 	lw	v1,176(sp)
9d003338:	24620007 	addiu	v0,v1,7
9d00333c:	7c021004 	ins	v0,zero,0x0,0x3
9d003340:	24440008 	addiu	a0,v0,8
9d003344:	afa400b0 	sw	a0,176(sp)
9d003348:	8c550000 	lw	s5,0(v0)
9d00334c:	0b400b58 	j	9d002d60 <_do_print_cdfFnopuxX+0x348>
9d003350:	8c540004 	lw	s4,4(v0)
9d003354:	8fa300b0 	lw	v1,176(sp)
9d003358:	24620007 	addiu	v0,v1,7
9d00335c:	7c021004 	ins	v0,zero,0x0,0x3
9d003360:	24440008 	addiu	a0,v0,8
9d003364:	afa400b0 	sw	a0,176(sp)
9d003368:	8c550000 	lw	s5,0(v0)
9d00336c:	8c540004 	lw	s4,4(v0)
9d003370:	0b400bc6 	j	9d002f18 <_do_print_cdfFnopuxX+0x500>
9d003374:	afa00074 	sw	zero,116(sp)
9d003378:	8fa300b0 	lw	v1,176(sp)
9d00337c:	8c7e0000 	lw	s8,0(v1)
9d003380:	24750004 	addiu	s5,v1,4
9d003384:	26020002 	addiu	v0,s0,2
9d003388:	82060002 	lb	a2,2(s0)
9d00338c:	afb500b0 	sw	s5,176(sp)
9d003390:	07c1fe0d 	bgez	s8,9d002bc8 <_do_print_cdfFnopuxX+0x1b0>
9d003394:	00408021 	move	s0,v0
9d003398:	0b400af2 	j	9d002bc8 <_do_print_cdfFnopuxX+0x1b0>
9d00339c:	241effff 	li	s8,-1
9d0033a0:	36f70001 	ori	s7,s7,0x1
9d0033a4:	26100001 	addiu	s0,s0,1
9d0033a8:	0b400c01 	j	9d003004 <_do_print_cdfFnopuxX+0x5ec>
9d0033ac:	26100001 	addiu	s0,s0,1
9d0033b0:	24020058 	li	v0,88
9d0033b4:	24030078 	li	v1,120
9d0033b8:	0064100a 	movz	v0,v1,a0
9d0033bc:	a2620000 	sb	v0,0(s3)
9d0033c0:	24020030 	li	v0,48
9d0033c4:	a262ffff 	sb	v0,-1(s3)
9d0033c8:	0b400b9a 	j	9d002e68 <_do_print_cdfFnopuxX+0x450>
9d0033cc:	2673fffe 	addiu	s3,s3,-2
9d0033d0:	8c950000 	lw	s5,0(a0)
9d0033d4:	0000a021 	move	s4,zero
9d0033d8:	24840004 	addiu	a0,a0,4
9d0033dc:	afa400b0 	sw	a0,176(sp)
9d0033e0:	0b400bc6 	j	9d002f18 <_do_print_cdfFnopuxX+0x500>
9d0033e4:	afa00074 	sw	zero,116(sp)
9d0033e8:	8c950000 	lw	s5,0(a0)
9d0033ec:	24840004 	addiu	a0,a0,4
9d0033f0:	afa400b0 	sw	a0,176(sp)
9d0033f4:	0b400b58 	j	9d002d60 <_do_print_cdfFnopuxX+0x348>
9d0033f8:	0015a7c3 	sra	s4,s5,0x1f
9d0033fc:	36f78000 	ori	s7,s7,0x8000
9d003400:	26100001 	addiu	s0,s0,1
9d003404:	0b400c01 	j	9d003004 <_do_print_cdfFnopuxX+0x5ec>
9d003408:	26100001 	addiu	s0,s0,1
9d00340c:	82620001 	lb	v0,1(s3)
9d003410:	38420030 	xori	v0,v0,0x30
9d003414:	0002102b 	sltu	v0,zero,v0
9d003418:	0b400cad 	j	9d0032b4 <_do_print_cdfFnopuxX+0x89c>
9d00341c:	00621823 	subu	v1,v1,v0
9d003420:	8c430000 	lw	v1,0(v0)
9d003424:	00001021 	move	v0,zero
9d003428:	8fa400b0 	lw	a0,176(sp)
9d00342c:	24840004 	addiu	a0,a0,4
9d003430:	afa400b0 	sw	a0,176(sp)
9d003434:	8fa40068 	lw	a0,104(sp)
9d003438:	0b400baa 	j	9d002ea8 <_do_print_cdfFnopuxX+0x490>
9d00343c:	ac640000 	sw	a0,0(v1)
9d003440:	27a30057 	addiu	v1,sp,87
9d003444:	afa30070 	sw	v1,112(sp)
9d003448:	0b400b84 	j	9d002e10 <_do_print_cdfFnopuxX+0x3f8>
9d00344c:	00609821 	move	s3,v1
9d003450:	27a20057 	addiu	v0,sp,87
9d003454:	afa20070 	sw	v0,112(sp)
9d003458:	0b400b84 	j	9d002e10 <_do_print_cdfFnopuxX+0x3f8>
9d00345c:	00409821 	move	s3,v0
9d003460:	0f402b32 	jal	9d00acc8 <strlen>
9d003464:	02002021 	move	a0,s0
9d003468:	0b400c80 	j	9d003200 <_do_print_cdfFnopuxX+0x7e8>
9d00346c:	afb70010 	sw	s7,16(sp)
9d003470:	8c820000 	lw	v0,0(a0)
9d003474:	8fa40068 	lw	a0,104(sp)
9d003478:	00041fc3 	sra	v1,a0,0x1f
9d00347c:	8fa400b0 	lw	a0,176(sp)
9d003480:	24840004 	addiu	a0,a0,4
9d003484:	afa400b0 	sw	a0,176(sp)
9d003488:	8fa40068 	lw	a0,104(sp)
9d00348c:	ac440000 	sw	a0,0(v0)
9d003490:	ac430004 	sw	v1,4(v0)
9d003494:	0b400baa 	j	9d002ea8 <_do_print_cdfFnopuxX+0x490>
9d003498:	00001021 	move	v0,zero
9d00349c:	8fa200b0 	lw	v0,176(sp)
9d0034a0:	8c430000 	lw	v1,0(v0)
9d0034a4:	00001021 	move	v0,zero
9d0034a8:	8fa400b0 	lw	a0,176(sp)
9d0034ac:	24840004 	addiu	a0,a0,4
9d0034b0:	afa400b0 	sw	a0,176(sp)
9d0034b4:	11000003 	beqz	t0,9d0034c4 <_do_print_cdfFnopuxX+0xaac>
9d0034b8:	8fa40068 	lw	a0,104(sp)
9d0034bc:	0b400baa 	j	9d002ea8 <_do_print_cdfFnopuxX+0x490>
9d0034c0:	a0640000 	sb	a0,0(v1)
9d0034c4:	0b400baa 	j	9d002ea8 <_do_print_cdfFnopuxX+0x490>
9d0034c8:	ac640000 	sw	a0,0(v1)

Disassembly of section .text:

9d0034cc <CNISR>:


// ***********************************************************************************************
// ISR using Change Notification for synchronization with PPOD controller - 
// ***********************************************************************************************
void __ISR(_CHANGE_NOTICE_VECTOR, IPL3SOFT) CNISR(void) { // INT step 1
9d0034cc:	415de800 	rdpgpr	sp,sp
9d0034d0:	401a7000 	mfc0	k0,c0_epc
9d0034d4:	401b6000 	mfc0	k1,c0_status
9d0034d8:	27bdff58 	addiu	sp,sp,-168
9d0034dc:	afba00a4 	sw	k0,164(sp)
9d0034e0:	401a6002 	mfc0	k0,c0_srsctl
9d0034e4:	afbb00a0 	sw	k1,160(sp)
9d0034e8:	afba009c 	sw	k0,156(sp)
9d0034ec:	7c1b7844 	ins	k1,zero,0x1,0xf
9d0034f0:	377b0c00 	ori	k1,k1,0xc00
9d0034f4:	409b6000 	mtc0	k1,c0_status
9d0034f8:	afbf008c 	sw	ra,140(sp)
9d0034fc:	afb90088 	sw	t9,136(sp)
9d003500:	afb80084 	sw	t8,132(sp)
9d003504:	afaf0080 	sw	t7,128(sp)
9d003508:	afae007c 	sw	t6,124(sp)
9d00350c:	afad0078 	sw	t5,120(sp)
9d003510:	afac0074 	sw	t4,116(sp)
9d003514:	afab0070 	sw	t3,112(sp)
9d003518:	afaa006c 	sw	t2,108(sp)
9d00351c:	afa90068 	sw	t1,104(sp)
9d003520:	afa80064 	sw	t0,100(sp)
9d003524:	afa70060 	sw	a3,96(sp)
9d003528:	afa6005c 	sw	a2,92(sp)
9d00352c:	afa50058 	sw	a1,88(sp)
9d003530:	afa40054 	sw	a0,84(sp)
9d003534:	afa30050 	sw	v1,80(sp)
9d003538:	afa2004c 	sw	v0,76(sp)
9d00353c:	afa10048 	sw	at,72(sp)
9d003540:	00001012 	mflo	v0
9d003544:	afa20094 	sw	v0,148(sp)
9d003548:	00001810 	mfhi	v1
9d00354c:	afa30090 	sw	v1,144(sp)
  
	// Since pins on port F are being monitored by CN, must read it to allow continued functioning
  newF = PORTF;
9d003550:	3c02bf88 	lui	v0,0xbf88
9d003554:	8c426150 	lw	v0,24912(v0)
9d003558:	af828028 	sw	v0,-32728(gp)

	// Save the current values for future use
  oldF = newF;
9d00355c:	af82802c 	sw	v0,-32724(gp)

	// =============================================================================================
	// If RecordFlag is on, start the procedure of recording droplet bouncing
	// =============================================================================================
	if (RecordFlag == 1) {
9d003560:	93838025 	lbu	v1,-32731(gp)
9d003564:	306300ff 	andi	v1,v1,0xff
9d003568:	24020001 	li	v0,1
9d00356c:	5462004f 	bnel	v1,v0,9d0036ac <.LBE2+0x4>
9d003570:	3c02bf88 	lui	v0,0xbf88

9d003574 <.LBB2>:

  	// Turn TriggerFlag ON to let ISRs know to create ExSync signals
	  TriggerFlag_Side = 1;
9d003574:	a3828024 	sb	v0,-32732(gp)

		// -------------------------------------------------------------------------------------------
		// Delay DELAYTIME seconds for phase relationship of droplet contacting bath
		// -------------------------------------------------------------------------------------------
		int counter1=0;
		int delay = DELAYTIME*40000000; //seems like it should be 80M, not 40M TODO - test this delay
9d003578:	8f848038 	lw	a0,-32712(gp)
9d00357c:	3c029d01 	lui	v0,0x9d01
9d003580:	0f40251b 	jal	9d00946c <.LFE9>
9d003584:	8c45b488 	lw	a1,-19320(v0)
9d003588:	0f402bb8 	jal	9d00aee0 <__fixsfsi>
9d00358c:	00402021 	move	a0,v0
		while( counter1 < delay ) {
9d003590:	18400004 	blez	v0,9d0035a4 <.LBB2+0x30>
9d003594:	00001821 	move	v1,zero
			counter1++;
9d003598:	24630001 	addiu	v1,v1,1
		// -------------------------------------------------------------------------------------------
		// Delay DELAYTIME seconds for phase relationship of droplet contacting bath
		// -------------------------------------------------------------------------------------------
		int counter1=0;
		int delay = DELAYTIME*40000000; //seems like it should be 80M, not 40M TODO - test this delay
		while( counter1 < delay ) {
9d00359c:	1462ffff 	bne	v1,v0,9d00359c <.LBB2+0x28>
9d0035a0:	24630001 	addiu	v1,v1,1
		// -------------------------------------------------------------------------------------------
		// Create droplet
		// -------------------------------------------------------------------------------------------

		//+Vcc: set L1 to LOW, L2 to HIGH, PWMA to >0
		OC1RS = 4000;
9d0035a4:	24030fa0 	li	v1,4000
9d0035a8:	3c02bf80 	lui	v0,0xbf80
9d0035ac:	ac433020 	sw	v1,12320(v0)
		LATDbits.LATD2 = 0;
9d0035b0:	3c02bf88 	lui	v0,0xbf88
9d0035b4:	944360e0 	lhu	v1,24800(v0)
9d0035b8:	7c031084 	ins	v1,zero,0x2,0x1
9d0035bc:	a44360e0 	sh	v1,24800(v0)
		LATDbits.LATD1 = 1;
9d0035c0:	944360e0 	lhu	v1,24800(v0)
9d0035c4:	24040001 	li	a0,1
9d0035c8:	7c830844 	ins	v1,a0,0x1,0x1
9d0035cc:	a44360e0 	sh	v1,24800(v0)

		//Remain +Vcc for PULSETIME microseconds
		int counter2=0;
		while( counter2 < (PULSETIME*40) ) {
9d0035d0:	8f828010 	lw	v0,-32752(gp)
9d0035d4:	000218c0 	sll	v1,v0,0x3
9d0035d8:	00021140 	sll	v0,v0,0x5
9d0035dc:	00621821 	addu	v1,v1,v0
9d0035e0:	58600006 	blezl	v1,9d0035fc <.LBB2+0x88>
9d0035e4:	24030fa0 	li	v1,4000
		OC1RS = 4000;
		LATDbits.LATD2 = 0;
		LATDbits.LATD1 = 1;

		//Remain +Vcc for PULSETIME microseconds
		int counter2=0;
9d0035e8:	00001021 	move	v0,zero
		while( counter2 < (PULSETIME*40) ) {
			counter2++;
9d0035ec:	24420001 	addiu	v0,v0,1
		LATDbits.LATD2 = 0;
		LATDbits.LATD1 = 1;

		//Remain +Vcc for PULSETIME microseconds
		int counter2=0;
		while( counter2 < (PULSETIME*40) ) {
9d0035f0:	5443ffff 	bnel	v0,v1,9d0035f0 <.LBB2+0x7c>
9d0035f4:	24420001 	addiu	v0,v0,1
			counter2++;
		}

		//-Vcc: set L1 to HIGH, L2 to LOW, PWMA to >0
		OC1RS = 4000;
9d0035f8:	24030fa0 	li	v1,4000
9d0035fc:	3c02bf80 	lui	v0,0xbf80
9d003600:	ac433020 	sw	v1,12320(v0)
		LATDbits.LATD2 = 1;
9d003604:	3c02bf88 	lui	v0,0xbf88
9d003608:	944360e0 	lhu	v1,24800(v0)
9d00360c:	24040001 	li	a0,1
9d003610:	7c831084 	ins	v1,a0,0x2,0x1
9d003614:	a44360e0 	sh	v1,24800(v0)
		LATDbits.LATD1 = 0;
9d003618:	944360e0 	lhu	v1,24800(v0)
9d00361c:	7c030844 	ins	v1,zero,0x1,0x1
9d003620:	a44360e0 	sh	v1,24800(v0)


		// -------------------------------------------------------------------------------------------
		// Wait until both ExSync signals have been sent
		// -------------------------------------------------------------------------------------------
		while( CurrentExSync_Side < (NUMIMAGES_Side-1) ) {
9d003624:	8f82803c 	lw	v0,-32708(gp)
9d003628:	0b400d8f 	j	9d00363c <.LBB2+0xc8>
9d00362c:	2442ffff 	addiu	v0,v0,-1

			// Turn TriggerFlag_Side OFF when CurrentExSync_Side is the same as NUMIMAGES_Side
			if( CurrentExSync_Side == (NUMIMAGES_Side-1) ) {
9d003630:	8f838020 	lw	v1,-32736(gp)
9d003634:	50430001 	beql	v0,v1,9d00363c <.LBB2+0xc8>
9d003638:	a3808024 	sb	zero,-32732(gp)


		// -------------------------------------------------------------------------------------------
		// Wait until both ExSync signals have been sent
		// -------------------------------------------------------------------------------------------
		while( CurrentExSync_Side < (NUMIMAGES_Side-1) ) {
9d00363c:	8f838020 	lw	v1,-32736(gp)
9d003640:	0062182a 	slt	v1,v1,v0
9d003644:	1460fffa 	bnez	v1,9d003630 <.LBB2+0xbc>
9d003648:	00000000 	nop
		}



		// Increment drop counter
		drop_counter++;
9d00364c:	8f82801c 	lw	v0,-32740(gp)
9d003650:	24420001 	addiu	v0,v0,1
9d003654:	af82801c 	sw	v0,-32740(gp)

		// Create message for LCD
		char message[50];

		// Display properties on LCD
		LCD_Clear();
9d003658:	0f401af1 	jal	9d006bc4 <LCD_Clear>
9d00365c:	00000000 	nop

9d003660 <.LVL11>:
		LCD_Move(0,0);
9d003660:	00002021 	move	a0,zero
9d003664:	0f401b31 	jal	9d006cc4 <LCD_Move>
9d003668:	00002821 	move	a1,zero

9d00366c <.LVL12>:
		sprintf(message, "Drops: %d", drop_counter);
9d00366c:	8f86801c 	lw	a2,-32740(gp)
9d003670:	27a40010 	addiu	a0,sp,16
9d003674:	3c059d01 	lui	a1,0x9d01
9d003678:	0f402c31 	jal	9d00b0c4 <_sprintf_cdfFnopuxX>
9d00367c:	24a5b44c 	addiu	a1,a1,-19380

9d003680 <.LVL13>:
		LCD_WriteString(message);
9d003680:	0f401b4d 	jal	9d006d34 <LCD_WriteString>
9d003684:	27a40010 	addiu	a0,sp,16

9d003688 <.LVL14>:

		
		// -------------------------------------------------------------------------------------------
		// Turn TriggerFlag and RecordFlag OFF, as well as resetting current ExSync signals
		// -------------------------------------------------------------------------------------------
		TriggerFlag_Side = 0;			// needs to be done again or after the first avi, trackcam only records 1 frame
9d003688:	a3808024 	sb	zero,-32732(gp)

		RecordFlag = 0;
9d00368c:	a3808025 	sb	zero,-32731(gp)

		CurrentExSync_Side = 0;
9d003690:	af808020 	sw	zero,-32736(gp)
9d003694:	3c0204c4 	lui	v0,0x4c4
9d003698:	3442b400 	ori	v0,v0,0xb400
9d00369c:	2442ffff 	addiu	v0,v0,-1



		// Sleep for 2 seconds - helps solves double drop production problem
		int counter3=0;
		while(counter3<(2*40000000)) {
9d0036a0:	1440ffff 	bnez	v0,9d0036a0 <.LVL14+0x18>
9d0036a4:	2442ffff 	addiu	v0,v0,-1

9d0036a8 <.LBE2>:

	}


	// Clear the interrupt flag
	IFS1bits.CNIF = 0;
9d0036a8:	3c02bf88 	lui	v0,0xbf88
9d0036ac:	8c431040 	lw	v1,4160(v0)
9d0036b0:	7c030004 	ins	v1,zero,0x0,0x1
9d0036b4:	ac431040 	sw	v1,4160(v0)
}
9d0036b8:	8fa20094 	lw	v0,148(sp)
9d0036bc:	00400013 	mtlo	v0
9d0036c0:	8fa30090 	lw	v1,144(sp)
9d0036c4:	00600011 	mthi	v1
9d0036c8:	8fbf008c 	lw	ra,140(sp)
9d0036cc:	8fb90088 	lw	t9,136(sp)
9d0036d0:	8fb80084 	lw	t8,132(sp)
9d0036d4:	8faf0080 	lw	t7,128(sp)
9d0036d8:	8fae007c 	lw	t6,124(sp)
9d0036dc:	8fad0078 	lw	t5,120(sp)
9d0036e0:	8fac0074 	lw	t4,116(sp)
9d0036e4:	8fab0070 	lw	t3,112(sp)
9d0036e8:	8faa006c 	lw	t2,108(sp)
9d0036ec:	8fa90068 	lw	t1,104(sp)
9d0036f0:	8fa80064 	lw	t0,100(sp)
9d0036f4:	8fa70060 	lw	a3,96(sp)
9d0036f8:	8fa6005c 	lw	a2,92(sp)
9d0036fc:	8fa50058 	lw	a1,88(sp)
9d003700:	8fa40054 	lw	a0,84(sp)
9d003704:	8fa30050 	lw	v1,80(sp)
9d003708:	8fa2004c 	lw	v0,76(sp)
9d00370c:	8fa10048 	lw	at,72(sp)
9d003710:	41606000 	di
9d003714:	000000c0 	ehb
9d003718:	8fba00a4 	lw	k0,164(sp)
9d00371c:	8fbb00a0 	lw	k1,160(sp)
9d003720:	409a7000 	mtc0	k0,c0_epc
9d003724:	8fba009c 	lw	k0,156(sp)
9d003728:	27bd00a8 	addiu	sp,sp,168
9d00372c:	409a6002 	mtc0	k0,c0_srsctl
9d003730:	41dde800 	wrpgpr	sp,sp
9d003734:	409b6000 	mtc0	k1,c0_status
9d003738:	42000018 	eret

9d00373c <ExSyncSide>:


// ***********************************************************************************************
// ISR using Timer2 to generate ExSync signal for Mikrotron and TrackCam cameras
// ***********************************************************************************************
void __ISR(_TIMER_2_VECTOR, IPL5SOFT) ExSyncSide(void) {
9d00373c:	415de800 	rdpgpr	sp,sp
9d003740:	401a7000 	mfc0	k0,c0_epc
9d003744:	401b6000 	mfc0	k1,c0_status
9d003748:	27bdffd8 	addiu	sp,sp,-40
9d00374c:	afba0024 	sw	k0,36(sp)
9d003750:	401a6002 	mfc0	k0,c0_srsctl
9d003754:	afbb0020 	sw	k1,32(sp)
9d003758:	afba001c 	sw	k0,28(sp)
9d00375c:	7c1b7844 	ins	k1,zero,0x1,0xf
9d003760:	377b1400 	ori	k1,k1,0x1400
9d003764:	409b6000 	mtc0	k1,c0_status
9d003768:	afa4000c 	sw	a0,12(sp)
9d00376c:	afa30008 	sw	v1,8(sp)
9d003770:	afa20004 	sw	v0,4(sp)
9d003774:	00001012 	mflo	v0
9d003778:	afa20014 	sw	v0,20(sp)
9d00377c:	00001810 	mfhi	v1
9d003780:	afa30010 	sw	v1,16(sp)

	// =============================================================================================
	// If TriggerFlag_Side is on, generate ExSync signals
	// =============================================================================================
	if( TriggerFlag_Side == 1 ) {
9d003784:	93838024 	lbu	v1,-32732(gp)
9d003788:	306300ff 	andi	v1,v1,0xff
9d00378c:	24020001 	li	v0,1
9d003790:	14620043 	bne	v1,v0,9d0038a0 <.LBE5+0x10>
9d003794:	3c02bf88 	lui	v0,0xbf88

		// Send ExSync signals to both cameras for the first frame
		if( CurrentExSync_Side == 0 ) {
9d003798:	8f828020 	lw	v0,-32736(gp)
9d00379c:	14400015 	bnez	v0,9d0037f4 <.LBE3+0x8>
9d0037a0:	3c02bf88 	lui	v0,0xbf88

9d0037a4 <.LBB3>:
			// Set B3/B4 to LOW
			LATBbits.LATB3 = 0;
9d0037a4:	94436060 	lhu	v1,24672(v0)
9d0037a8:	7c0318c4 	ins	v1,zero,0x3,0x1
9d0037ac:	a4436060 	sh	v1,24672(v0)
			LATBbits.LATB4 = 0;
9d0037b0:	94436060 	lhu	v1,24672(v0)
9d0037b4:	7c032104 	ins	v1,zero,0x4,0x1
9d0037b8:	a4436060 	sh	v1,24672(v0)
9d0037bc:	240203e8 	li	v0,1000
9d0037c0:	2442ffff 	addiu	v0,v0,-1

			// Remain LOW for 100 clock cycles
			int counter1 = 0;
			while( counter1 < 1000 ) {
9d0037c4:	1440ffff 	bnez	v0,9d0037c4 <.LBB3+0x20>
9d0037c8:	2442ffff 	addiu	v0,v0,-1
				counter1++;
			}

			// Set B3/B4 to HIGH
			LATBbits.LATB3 = 1;
9d0037cc:	3c02bf88 	lui	v0,0xbf88
9d0037d0:	94436060 	lhu	v1,24672(v0)
9d0037d4:	24040001 	li	a0,1
9d0037d8:	7c8318c4 	ins	v1,a0,0x3,0x1
9d0037dc:	a4436060 	sh	v1,24672(v0)
			LATBbits.LATB4 = 1;
9d0037e0:	94436060 	lhu	v1,24672(v0)
9d0037e4:	7c832104 	ins	v1,a0,0x4,0x1
9d0037e8:	a4436060 	sh	v1,24672(v0)

9d0037ec <.LBE3>:
9d0037ec:	0b400e24 	j	9d003890 <.LBE5>
9d0037f0:	00000000 	nop
		}
		// If integer multiple of side-view camera, send ExSync signals to both camera
		else if( (CurrentExSync_Side % INTEGER_MULTIPLE) == 0 ) {
9d0037f4:	8f838020 	lw	v1,-32736(gp)
9d0037f8:	8f828040 	lw	v0,-32704(gp)
9d0037fc:	0062001a 	div	zero,v1,v0
9d003800:	004001f4 	teq	v0,zero,0x7
9d003804:	00002010 	mfhi	a0
9d003808:	14800015 	bnez	a0,9d003860 <.LBB5>
9d00380c:	3c02bf88 	lui	v0,0xbf88

9d003810 <.LBB4>:
			// Set B3/B4 to LOW
			LATBbits.LATB3 = 0;
9d003810:	94436060 	lhu	v1,24672(v0)
9d003814:	7c0318c4 	ins	v1,zero,0x3,0x1
9d003818:	a4436060 	sh	v1,24672(v0)
			LATBbits.LATB4 = 0;
9d00381c:	94436060 	lhu	v1,24672(v0)
9d003820:	7c032104 	ins	v1,zero,0x4,0x1
9d003824:	a4436060 	sh	v1,24672(v0)
9d003828:	240203e8 	li	v0,1000
9d00382c:	2442ffff 	addiu	v0,v0,-1

			// Remain LOW for 100 clock cycles
			int counter1 = 0;
			while( counter1 < 1000 ) {
9d003830:	1440ffff 	bnez	v0,9d003830 <.LBB4+0x20>
9d003834:	2442ffff 	addiu	v0,v0,-1
				counter1++;
			}

			// Set B3/B4 to HIGH
			LATBbits.LATB3 = 1;
9d003838:	3c02bf88 	lui	v0,0xbf88
9d00383c:	94436060 	lhu	v1,24672(v0)
9d003840:	24040001 	li	a0,1
9d003844:	7c8318c4 	ins	v1,a0,0x3,0x1
9d003848:	a4436060 	sh	v1,24672(v0)
			LATBbits.LATB4 = 1;
9d00384c:	94436060 	lhu	v1,24672(v0)
9d003850:	7c832104 	ins	v1,a0,0x4,0x1
9d003854:	a4436060 	sh	v1,24672(v0)

9d003858 <.LBE4>:
9d003858:	0b400e24 	j	9d003890 <.LBE5>
9d00385c:	00000000 	nop

9d003860 <.LBB5>:
		}
		// If not integer multiple of side-view camera, send ExSync signals to side-view camera only
		else {
			// Set B3 to LOW
			LATBbits.LATB3 = 0;
9d003860:	94436060 	lhu	v1,24672(v0)
9d003864:	7c0318c4 	ins	v1,zero,0x3,0x1
9d003868:	a4436060 	sh	v1,24672(v0)
9d00386c:	240203e8 	li	v0,1000
9d003870:	2442ffff 	addiu	v0,v0,-1

			// Remain LOW for 100 clock cycles
			int counter1 = 0;
			while( counter1 < 1000 ) {
9d003874:	1440ffff 	bnez	v0,9d003874 <.LBB5+0x14>
9d003878:	2442ffff 	addiu	v0,v0,-1
				counter1++;
			}

			// Set B3 to HIGH
			LATBbits.LATB3 = 1;
9d00387c:	3c02bf88 	lui	v0,0xbf88
9d003880:	94436060 	lhu	v1,24672(v0)
9d003884:	24040001 	li	a0,1
9d003888:	7c8318c4 	ins	v1,a0,0x3,0x1
9d00388c:	a4436060 	sh	v1,24672(v0)

9d003890 <.LBE5>:
		}


		// Increment current ExSync signal
		CurrentExSync_Side++;
9d003890:	8f828020 	lw	v0,-32736(gp)
9d003894:	24420001 	addiu	v0,v0,1
9d003898:	af828020 	sw	v0,-32736(gp)
	}

	// Clear interrupt flag
	IFS0bits.T2IF = 0;
9d00389c:	3c02bf88 	lui	v0,0xbf88
9d0038a0:	8c431030 	lw	v1,4144(v0)
9d0038a4:	7c034204 	ins	v1,zero,0x8,0x1
9d0038a8:	ac431030 	sw	v1,4144(v0)
}
9d0038ac:	8fa20014 	lw	v0,20(sp)
9d0038b0:	00400013 	mtlo	v0
9d0038b4:	8fa30010 	lw	v1,16(sp)
9d0038b8:	00600011 	mthi	v1
9d0038bc:	8fa4000c 	lw	a0,12(sp)
9d0038c0:	8fa30008 	lw	v1,8(sp)
9d0038c4:	8fa20004 	lw	v0,4(sp)
9d0038c8:	41606000 	di
9d0038cc:	000000c0 	ehb
9d0038d0:	8fba0024 	lw	k0,36(sp)
9d0038d4:	8fbb0020 	lw	k1,32(sp)
9d0038d8:	409a7000 	mtc0	k0,c0_epc
9d0038dc:	8fba001c 	lw	k0,28(sp)
9d0038e0:	27bd0028 	addiu	sp,sp,40
9d0038e4:	409a6002 	mtc0	k0,c0_srsctl
9d0038e8:	41dde800 	wrpgpr	sp,sp
9d0038ec:	409b6000 	mtc0	k1,c0_status
9d0038f0:	42000018 	eret

9d0038f4 <Ext2ISR>:


// ***********************************************************************************************
// If USER button has been pressed, create a droplet (not for video recording)
// ***********************************************************************************************
void __ISR(_EXTERNAL_2_VECTOR, IPL2SOFT) Ext2ISR(void) { // step 1: the ISR
9d0038f4:	415de800 	rdpgpr	sp,sp
9d0038f8:	401a7000 	mfc0	k0,c0_epc
9d0038fc:	401b6000 	mfc0	k1,c0_status
9d003900:	27bdfec8 	addiu	sp,sp,-312
9d003904:	afba0134 	sw	k0,308(sp)
9d003908:	401a6002 	mfc0	k0,c0_srsctl
9d00390c:	afbb0130 	sw	k1,304(sp)
9d003910:	afba012c 	sw	k0,300(sp)
9d003914:	7c1b7844 	ins	k1,zero,0x1,0xf
9d003918:	377b0800 	ori	k1,k1,0x800
9d00391c:	409b6000 	mtc0	k1,c0_status
9d003920:	afbf011c 	sw	ra,284(sp)
9d003924:	afb90118 	sw	t9,280(sp)
9d003928:	afb80114 	sw	t8,276(sp)
9d00392c:	afaf0110 	sw	t7,272(sp)
9d003930:	afae010c 	sw	t6,268(sp)
9d003934:	afad0108 	sw	t5,264(sp)
9d003938:	afac0104 	sw	t4,260(sp)
9d00393c:	afab0100 	sw	t3,256(sp)
9d003940:	afaa00fc 	sw	t2,252(sp)
9d003944:	afa900f8 	sw	t1,248(sp)
9d003948:	afa800f4 	sw	t0,244(sp)
9d00394c:	afa700f0 	sw	a3,240(sp)
9d003950:	afa600ec 	sw	a2,236(sp)
9d003954:	afa500e8 	sw	a1,232(sp)
9d003958:	afa400e4 	sw	a0,228(sp)
9d00395c:	afa300e0 	sw	v1,224(sp)
9d003960:	afa200dc 	sw	v0,220(sp)
9d003964:	afa100d8 	sw	at,216(sp)
9d003968:	00001012 	mflo	v0
9d00396c:	afa20124 	sw	v0,292(sp)
9d003970:	00001810 	mfhi	v1
9d003974:	afa30120 	sw	v1,288(sp)

	// Wait until USER button is released, then wait 5M core ticks before clearing interrupt flag
	while(!PORTDbits.RD7) {		// Pin D7 is the USER switch, low if pressed.
9d003978:	3c03bf88 	lui	v1,0xbf88
9d00397c:	8c6260d0 	lw	v0,24784(v1)
9d003980:	30420080 	andi	v0,v0,0x80
9d003984:	1040fffd 	beqz	v0,9d00397c <Ext2ISR+0x88>
9d003988:	3c02004c 	lui	v0,0x4c
9d00398c:	24424b40 	addiu	v0,v0,19264
9d003990:	2442ffff 	addiu	v0,v0,-1
		;
	}

	int counter=0;
	while(counter<5000000) {
9d003994:	1440ffff 	bnez	v0,9d003994 <Ext2ISR+0xa0>
9d003998:	2442ffff 	addiu	v0,v0,-1
		counter++;
	}
	
	//+Vcc: set L1 to LOW, L2 to HIGH, PWMA to >0
	OC1RS = 4000;
9d00399c:	24030fa0 	li	v1,4000
9d0039a0:	3c02bf80 	lui	v0,0xbf80
9d0039a4:	ac433020 	sw	v1,12320(v0)
	LATDbits.LATD2 = 0;
9d0039a8:	3c02bf88 	lui	v0,0xbf88
9d0039ac:	944360e0 	lhu	v1,24800(v0)
9d0039b0:	7c031084 	ins	v1,zero,0x2,0x1
9d0039b4:	a44360e0 	sh	v1,24800(v0)
	LATDbits.LATD1 = 1;
9d0039b8:	944360e0 	lhu	v1,24800(v0)
9d0039bc:	24040001 	li	a0,1
9d0039c0:	7c830844 	ins	v1,a0,0x1,0x1
9d0039c4:	a44360e0 	sh	v1,24800(v0)

	//Remain +Vcc for PULSETIME microseconds
	int counter3=0;
	while(counter3<(PULSETIME*40)) { //Why 40? It works, so not changing it
9d0039c8:	8f828010 	lw	v0,-32752(gp)
9d0039cc:	000218c0 	sll	v1,v0,0x3
9d0039d0:	00021140 	sll	v0,v0,0x5
9d0039d4:	00621821 	addu	v1,v1,v0
9d0039d8:	18600004 	blez	v1,9d0039ec <Ext2ISR+0xf8>
9d0039dc:	00001021 	move	v0,zero
		counter3++;
9d0039e0:	24420001 	addiu	v0,v0,1
	LATDbits.LATD2 = 0;
	LATDbits.LATD1 = 1;

	//Remain +Vcc for PULSETIME microseconds
	int counter3=0;
	while(counter3<(PULSETIME*40)) { //Why 40? It works, so not changing it
9d0039e4:	1443ffff 	bne	v0,v1,9d0039e4 <Ext2ISR+0xf0>
9d0039e8:	24420001 	addiu	v0,v0,1
		counter3++;
	}

	//-Vcc: set L1 to HIGH, L2 to LOW, PWMA to >0
	OC1RS = 4000;
9d0039ec:	24030fa0 	li	v1,4000
9d0039f0:	3c02bf80 	lui	v0,0xbf80
9d0039f4:	ac433020 	sw	v1,12320(v0)
	LATDbits.LATD2 = 1;
9d0039f8:	3c02bf88 	lui	v0,0xbf88
9d0039fc:	944360e0 	lhu	v1,24800(v0)
9d003a00:	24040001 	li	a0,1
9d003a04:	7c831084 	ins	v1,a0,0x2,0x1
9d003a08:	a44360e0 	sh	v1,24800(v0)
	LATDbits.LATD1 = 0;
9d003a0c:	944360e0 	lhu	v1,24800(v0)
9d003a10:	7c030844 	ins	v1,zero,0x1,0x1
9d003a14:	a44360e0 	sh	v1,24800(v0)

	// Increment drop counter
	drop_counter++;
9d003a18:	8f82801c 	lw	v0,-32740(gp)
9d003a1c:	24420001 	addiu	v0,v0,1
9d003a20:	af82801c 	sw	v0,-32740(gp)

	// Create message for LCD
	char message[MAX_MESSAGE_LENGTH];

	// Display properties on LCD
	LCD_Clear();
9d003a24:	0f401af1 	jal	9d006bc4 <LCD_Clear>
9d003a28:	00000000 	nop

9d003a2c <.LVL38>:
	LCD_Move(0,0);
9d003a2c:	00002021 	move	a0,zero
9d003a30:	0f401b31 	jal	9d006cc4 <LCD_Move>
9d003a34:	00002821 	move	a1,zero

9d003a38 <.LVL39>:
	sprintf(message, "Drops: %d", drop_counter);
9d003a38:	8f86801c 	lw	a2,-32740(gp)
9d003a3c:	27a40010 	addiu	a0,sp,16
9d003a40:	3c059d01 	lui	a1,0x9d01
9d003a44:	0f402c31 	jal	9d00b0c4 <_sprintf_cdfFnopuxX>
9d003a48:	24a5b44c 	addiu	a1,a1,-19380

9d003a4c <.LVL40>:
	LCD_WriteString(message);  
9d003a4c:	0f401b4d 	jal	9d006d34 <LCD_WriteString>
9d003a50:	27a40010 	addiu	a0,sp,16

9d003a54 <.LVL41>:
9d003a54:	3c02004c 	lui	v0,0x4c
9d003a58:	24424b40 	addiu	v0,v0,19264
9d003a5c:	2442ffff 	addiu	v0,v0,-1
	
	counter = 0;
	while (counter<5000000) {
9d003a60:	1440ffff 	bnez	v0,9d003a60 <.LVL41+0xc>
9d003a64:	2442ffff 	addiu	v0,v0,-1
		counter++;
	}

	// Clear interrupt flag
	IFS0bits.INT2IF = 0;
9d003a68:	3c02bf88 	lui	v0,0xbf88
9d003a6c:	8c431030 	lw	v1,4144(v0)
9d003a70:	7c035ac4 	ins	v1,zero,0xb,0x1
9d003a74:	ac431030 	sw	v1,4144(v0)
}
9d003a78:	8fa20124 	lw	v0,292(sp)
9d003a7c:	00400013 	mtlo	v0
9d003a80:	8fa30120 	lw	v1,288(sp)
9d003a84:	00600011 	mthi	v1
9d003a88:	8fbf011c 	lw	ra,284(sp)
9d003a8c:	8fb90118 	lw	t9,280(sp)
9d003a90:	8fb80114 	lw	t8,276(sp)
9d003a94:	8faf0110 	lw	t7,272(sp)
9d003a98:	8fae010c 	lw	t6,268(sp)
9d003a9c:	8fad0108 	lw	t5,264(sp)
9d003aa0:	8fac0104 	lw	t4,260(sp)
9d003aa4:	8fab0100 	lw	t3,256(sp)
9d003aa8:	8faa00fc 	lw	t2,252(sp)
9d003aac:	8fa900f8 	lw	t1,248(sp)
9d003ab0:	8fa800f4 	lw	t0,244(sp)
9d003ab4:	8fa700f0 	lw	a3,240(sp)
9d003ab8:	8fa600ec 	lw	a2,236(sp)
9d003abc:	8fa500e8 	lw	a1,232(sp)
9d003ac0:	8fa400e4 	lw	a0,228(sp)
9d003ac4:	8fa300e0 	lw	v1,224(sp)
9d003ac8:	8fa200dc 	lw	v0,220(sp)
9d003acc:	8fa100d8 	lw	at,216(sp)
9d003ad0:	41606000 	di
9d003ad4:	000000c0 	ehb
9d003ad8:	8fba0134 	lw	k0,308(sp)
9d003adc:	8fbb0130 	lw	k1,304(sp)
9d003ae0:	409a7000 	mtc0	k0,c0_epc
9d003ae4:	8fba012c 	lw	k0,300(sp)
9d003ae8:	27bd0138 	addiu	sp,sp,312
9d003aec:	409a6002 	mtc0	k0,c0_srsctl
9d003af0:	41dde800 	wrpgpr	sp,sp
9d003af4:	409b6000 	mtc0	k1,c0_status
9d003af8:	42000018 	eret

9d003afc <main>:


int main(void) {
9d003afc:	27bdfef0 	addiu	sp,sp,-272
9d003b00:	afbf010c 	sw	ra,268(sp)
9d003b04:	afbe0108 	sw	s8,264(sp)
9d003b08:	afb70104 	sw	s7,260(sp)
9d003b0c:	afb60100 	sw	s6,256(sp)
9d003b10:	afb500fc 	sw	s5,252(sp)
9d003b14:	afb400f8 	sw	s4,248(sp)
9d003b18:	afb300f4 	sw	s3,244(sp)
9d003b1c:	afb200f0 	sw	s2,240(sp)
9d003b20:	afb100ec 	sw	s1,236(sp)

	// Cache on, min flash wait, interrupts on, LED/button init, UART init
	NU32_Startup();
9d003b24:	0f4024aa 	jal	9d0092a8 <NU32_Startup>
9d003b28:	afb000e8 	sw	s0,232(sp)

9d003b2c <.LVL45>:

	// Setup LCD and create message to be sent
	LCD_Setup();
9d003b2c:	0f401b78 	jal	9d006de0 <LCD_Setup>
9d003b30:	00000000 	nop

9d003b34 <.LVL46>:


	// =============================================================================================
	// Change Notification Digital Input Interrupt from PPOD
	// =============================================================================================
	CNPUEbits.CNPUE17 = 0;  						// CN17/RF4 input has no internal pull-up
9d003b34:	3c02bf88 	lui	v0,0xbf88
9d003b38:	8c4361e0 	lw	v1,25056(v0)
9d003b3c:	7c038c44 	ins	v1,zero,0x11,0x1
9d003b40:	ac4361e0 	sw	v1,25056(v0)

	oldF = PORTF;           						// all pins of port F are inputs, by default
9d003b44:	3c02bf88 	lui	v0,0xbf88
9d003b48:	8c426150 	lw	v0,24912(v0)
9d003b4c:	af82802c 	sw	v0,-32724(gp)

	//__builtin_disable_interrupts(); 		// step 1: disable interrupts
	CNCONbits.ON = 1;               		// step 2: configure peripheral: turn on CN
9d003b50:	3c02bf88 	lui	v0,0xbf88
9d003b54:	944461c0 	lhu	a0,25024(v0)
9d003b58:	24030001 	li	v1,1
9d003b5c:	7c647bc4 	ins	a0,v1,0xf,0x1
9d003b60:	a44461c0 	sh	a0,25024(v0)
	CNENbits.CNEN17 = 1; 								//         listen to CN17/RF4
9d003b64:	3c02bf88 	lui	v0,0xbf88
9d003b68:	8c4461d0 	lw	a0,25040(v0)
9d003b6c:	7c648c44 	ins	a0,v1,0x11,0x1
9d003b70:	ac4461d0 	sw	a0,25040(v0)
	IPC6bits.CNIP = 3;              		// step 3: set interrupt priority
9d003b74:	3c02bf88 	lui	v0,0xbf88
9d003b78:	8c4410f0 	lw	a0,4336(v0)
9d003b7c:	24050003 	li	a1,3
9d003b80:	7ca4a484 	ins	a0,a1,0x12,0x3
9d003b84:	ac4410f0 	sw	a0,4336(v0)
	IPC6bits.CNIS = 2;              		// step 4: set interrupt subpriority
9d003b88:	8c4410f0 	lw	a0,4336(v0)
9d003b8c:	24050002 	li	a1,2
9d003b90:	7ca48c04 	ins	a0,a1,0x10,0x2
9d003b94:	ac4410f0 	sw	a0,4336(v0)
	IFS1bits.CNIF = 0;              		// step 5: clear the interrupt flag
9d003b98:	3c02bf88 	lui	v0,0xbf88
9d003b9c:	8c441040 	lw	a0,4160(v0)
9d003ba0:	7c040004 	ins	a0,zero,0x0,0x1
9d003ba4:	ac441040 	sw	a0,4160(v0)
	IEC1bits.CNIE = 1;              		// step 6: enable the _CN interrupt
9d003ba8:	3c02bf88 	lui	v0,0xbf88
9d003bac:	8c441070 	lw	a0,4208(v0)
9d003bb0:	7c640004 	ins	a0,v1,0x0,0x1
9d003bb4:	ac441070 	sw	a0,4208(v0)
	__builtin_enable_interrupts();  		// step 7: CPU enabled for mvec interrupts
9d003bb8:	41626020 	ei	v0


	// =============================================================================================
	// USER Button Interrupt
	// =============================================================================================
	__builtin_disable_interrupts(); 	// step 2: disable interrupts
9d003bbc:	41626000 	di	v0
9d003bc0:	000000c0 	ehb
	INTCONbits.INT2EP = 0;              // step 3: INT2 triggers on falling edge
9d003bc4:	3c02bf88 	lui	v0,0xbf88
9d003bc8:	8c431000 	lw	v1,4096(v0)
9d003bcc:	7c031084 	ins	v1,zero,0x2,0x1
9d003bd0:	ac431000 	sw	v1,4096(v0)
	IPC2bits.INT2IP = 2;           		// step 4: interrupt priority to 2
9d003bd4:	3c02bf88 	lui	v0,0xbf88
9d003bd8:	8c4310b0 	lw	v1,4272(v0)
9d003bdc:	24040002 	li	a0,2
9d003be0:	7c83e684 	ins	v1,a0,0x1a,0x3
9d003be4:	ac4310b0 	sw	v1,4272(v0)
	IPC2bits.INT2IS = 1;               	// step 4: interrupt subpriority to 1
9d003be8:	8c4310b0 	lw	v1,4272(v0)
9d003bec:	24040001 	li	a0,1
9d003bf0:	7c83ce04 	ins	v1,a0,0x18,0x2
9d003bf4:	ac4310b0 	sw	v1,4272(v0)
	IFS0bits.INT2IF = 0;           	 	// step 5: clear the int flag
9d003bf8:	3c02bf88 	lui	v0,0xbf88
9d003bfc:	8c431030 	lw	v1,4144(v0)
9d003c00:	7c035ac4 	ins	v1,zero,0xb,0x1
9d003c04:	ac431030 	sw	v1,4144(v0)
	IEC0bits.INT2IE = 1;              	// step 6: enable INT2 by setting IEC0<11>
9d003c08:	3c02bf88 	lui	v0,0xbf88
9d003c0c:	8c431060 	lw	v1,4192(v0)
9d003c10:	7c835ac4 	ins	v1,a0,0xb,0x1
9d003c14:	ac431060 	sw	v1,4192(v0)
	__builtin_enable_interrupts();  	// step 7: enable interrupts
9d003c18:	41626020 	ei	v0

	
	// =============================================================================================
	// PWM and digital output for piezoelectric droplet generator
	// =============================================================================================
	OC1CONbits.OCTSEL = 1;  			 			// Select Timer3 for comparison
9d003c1c:	3c03bf80 	lui	v1,0xbf80
9d003c20:	94643000 	lhu	a0,12288(v1)
9d003c24:	24020001 	li	v0,1
9d003c28:	7c4418c4 	ins	a0,v0,0x3,0x1
9d003c2c:	a4643000 	sh	a0,12288(v1)

	T3CONbits.TCKPS = 0;     						// Timer3 prescaler N=1 (1:1)
9d003c30:	3c04bf80 	lui	a0,0xbf80
9d003c34:	94850a00 	lhu	a1,2560(a0)
9d003c38:	7c053104 	ins	a1,zero,0x4,0x3
9d003c3c:	a4850a00 	sh	a1,2560(a0)
	PR3 = 3999;              						// period = (PR3+1) * N * 12.5 ns = 20 kHz
9d003c40:	24060f9f 	li	a2,3999
9d003c44:	3c05bf80 	lui	a1,0xbf80
9d003c48:	aca60a20 	sw	a2,2592(a1)
	TMR3 = 0;                						// initial TMR3 count is 0
9d003c4c:	3c05bf80 	lui	a1,0xbf80
9d003c50:	aca00a10 	sw	zero,2576(a1)

	OC1CONbits.OCM = 0b110; 						// PWM mode with no fault pin; other OC1CON bits are defaults
9d003c54:	94653000 	lhu	a1,12288(v1)
9d003c58:	24060006 	li	a2,6
9d003c5c:	7cc51004 	ins	a1,a2,0x0,0x3
9d003c60:	a4653000 	sh	a1,12288(v1)
	OC1RS = 0;           								// duty cycle = OC1RS/(PR3+1) = 75%
9d003c64:	3c05bf80 	lui	a1,0xbf80
9d003c68:	aca03020 	sw	zero,12320(a1)
	OC1R = 0;             							// initialize before turning OC1 on; afterward it is read-only
9d003c6c:	3c06bf80 	lui	a2,0xbf80
9d003c70:	acc03010 	sw	zero,12304(a2)

	T3CONbits.ON = 1;        						// turn on Timer3
9d003c74:	94860a00 	lhu	a2,2560(a0)
9d003c78:	7c467bc4 	ins	a2,v0,0xf,0x1
9d003c7c:	a4860a00 	sh	a2,2560(a0)
	OC1CONbits.ON = 1;       						// turn on OC1
9d003c80:	94643000 	lhu	a0,12288(v1)
9d003c84:	7c447bc4 	ins	a0,v0,0xf,0x1
9d003c88:	a4643000 	sh	a0,12288(v1)

	// Set D2/A2 to digital output pins
	TRISDbits.TRISD2 = 0;							// RA10 is an output pin
9d003c8c:	3c03bf88 	lui	v1,0xbf88
9d003c90:	946460c0 	lhu	a0,24768(v1)
9d003c94:	7c041084 	ins	a0,zero,0x2,0x1
9d003c98:	a46460c0 	sh	a0,24768(v1)
	TRISDbits.TRISD1 = 0;								// RA2 is an output pin
9d003c9c:	946460c0 	lhu	a0,24768(v1)
9d003ca0:	7c040844 	ins	a0,zero,0x1,0x1
9d003ca4:	a46460c0 	sh	a0,24768(v1)
													
	//-Vcc: set L1 to HIGH, L2 to LOW, PWMA to >0
	OC1RS = 4000;
9d003ca8:	24030fa0 	li	v1,4000
9d003cac:	aca33020 	sw	v1,12320(a1)
	LATDbits.LATD2 = 1;
9d003cb0:	3c03bf88 	lui	v1,0xbf88
9d003cb4:	946460e0 	lhu	a0,24800(v1)
9d003cb8:	7c441084 	ins	a0,v0,0x2,0x1
9d003cbc:	a46460e0 	sh	a0,24800(v1)
	LATDbits.LATD1 = 0;
9d003cc0:	946460e0 	lhu	a0,24800(v1)
9d003cc4:	7c040844 	ins	a0,zero,0x1,0x1
9d003cc8:	a46460e0 	sh	a0,24800(v1)
	// =============================================================================================
	// TrackCam ExSync Trigger - Side (B3), Top (B4)
	// =============================================================================================

	// Digital output pin
	TRISBbits.TRISB3 = 0;
9d003ccc:	3c03bf88 	lui	v1,0xbf88
9d003cd0:	94646040 	lhu	a0,24640(v1)
9d003cd4:	7c0418c4 	ins	a0,zero,0x3,0x1
9d003cd8:	a4646040 	sh	a0,24640(v1)
	TRISBbits.TRISB4 = 0;
9d003cdc:	94646040 	lhu	a0,24640(v1)
9d003ce0:	7c042104 	ins	a0,zero,0x4,0x1
9d003ce4:	a4646040 	sh	a0,24640(v1)

	// Set to HIGH
	LATBbits.LATB3 = 1;
9d003ce8:	3c03bf88 	lui	v1,0xbf88
9d003cec:	94646060 	lhu	a0,24672(v1)
9d003cf0:	7c4418c4 	ins	a0,v0,0x3,0x1
9d003cf4:	a4646060 	sh	a0,24672(v1)
	LATBbits.LATB4 = 1;
9d003cf8:	94646060 	lhu	a0,24672(v1)
9d003cfc:	7c442104 	ins	a0,v0,0x4,0x1
9d003d00:	a4646060 	sh	a0,24672(v1)
		
		// Get message from computer
		NU32_ReadUART3(message, MAX_MESSAGE_LENGTH);

		//Serial message: [NUMIMAGES_Side, FPS_Side, INTEGER_MULTIPLE, PULSETIME, DELAYTIME]
		sscanf(message, "%d%*c %d%*c %d%*c %d%*c %f", &NUMIMAGES_Side, &FPS_Side, &INTEGER_MULTIPLE, &PULSETIME, &DELAYTIME);		//%*c reads in comma and ignores it
9d003d04:	3c1e9d01 	lui	s8,0x9d01
9d003d08:	27deb458 	addiu	s8,s8,-19368
		// -------------------------------------------------------------------------------------------
		// Side Camera Interrupt -  NUMIMAGES_Side Hz - Timer2
		// -------------------------------------------------------------------------------------------

		// Calculate pre-scaler based on FPS_Side
		Time1_Side = (((1.0/FPS_Side*1.0)*1e9)/12.5); // Ticks per frame = 8e6/FPS_Side would save some rounding errors
9d003d0c:	3c029d01 	lui	v0,0x9d01
9d003d10:	8c57b48c 	lw	s7,-19316(v0)
9d003d14:	3c029d01 	lui	v0,0x9d01
9d003d18:	8c56b490 	lw	s6,-19312(v0)
9d003d1c:	3c029d01 	lui	v0,0x9d01
9d003d20:	8c55b494 	lw	s5,-19308(v0)
		N_Side = ceil( (Time1_Side*1.0/65535.0) ); 
9d003d24:	3c029d01 	lui	v0,0x9d01
9d003d28:	8c54b498 	lw	s4,-19304(v0)


		__builtin_disable_interrupts(); 	// INT step 2: disable interrupts at CPU

											// INT step 3: 	setup TMR2 to call ISR at frequency of 5 kHz
		PR2 = PR_Side;						// set period register
9d003d2c:	3c13bf80 	lui	s3,0xbf80
		RecordFlag = 1;
		
		// Display properties on LCD
		LCD_Clear();
		LCD_Move(0,0);
		sprintf(message, "%d, %d, %d", FPS_Side, NUMIMAGES_Side, INTEGER_MULTIPLE);
9d003d30:	3c129d01 	lui	s2,0x9d01
9d003d34:	2652b474 	addiu	s2,s2,-19340
		LCD_WriteString(message);                     	

		LCD_Move(1,0);
		sprintf(message, "%d, %f", PULSETIME, DELAYTIME);
9d003d38:	3c119d01 	lui	s1,0x9d01
9d003d3c:	2631b480 	addiu	s1,s1,-19328
	// Keep program running to look for command from master to start record procedure
	// =============================================================================================
	while(1) {
		
		// Get message from computer
		NU32_ReadUART3(message, MAX_MESSAGE_LENGTH);
9d003d40:	27a40020 	addiu	a0,sp,32
9d003d44:	0f4024ef 	jal	9d0093bc <NU32_ReadUART3>
9d003d48:	240500c8 	li	a1,200

9d003d4c <.LVL48>:

		//Serial message: [NUMIMAGES_Side, FPS_Side, INTEGER_MULTIPLE, PULSETIME, DELAYTIME]
		sscanf(message, "%d%*c %d%*c %d%*c %d%*c %f", &NUMIMAGES_Side, &FPS_Side, &INTEGER_MULTIPLE, &PULSETIME, &DELAYTIME);		//%*c reads in comma and ignores it
9d003d4c:	27828040 	addiu	v0,gp,-32704
9d003d50:	afa20010 	sw	v0,16(sp)
9d003d54:	27828010 	addiu	v0,gp,-32752
9d003d58:	afa20014 	sw	v0,20(sp)
9d003d5c:	27828038 	addiu	v0,gp,-32712
9d003d60:	afa20018 	sw	v0,24(sp)
9d003d64:	27a40020 	addiu	a0,sp,32
9d003d68:	03c02821 	move	a1,s8
9d003d6c:	2786803c 	addiu	a2,gp,-32708
9d003d70:	0f402c14 	jal	9d00b050 <_sscanf_cdfFnopuxX>
9d003d74:	27878034 	addiu	a3,gp,-32716

9d003d78 <.LVL49>:
		// -------------------------------------------------------------------------------------------
		// Side Camera Interrupt -  NUMIMAGES_Side Hz - Timer2
		// -------------------------------------------------------------------------------------------

		// Calculate pre-scaler based on FPS_Side
		Time1_Side = (((1.0/FPS_Side*1.0)*1e9)/12.5); // Ticks per frame = 8e6/FPS_Side would save some rounding errors
9d003d78:	0f402ce6 	jal	9d00b398 <__floatsisf>
9d003d7c:	8f848034 	lw	a0,-32716(gp)
9d003d80:	02e02021 	move	a0,s7
9d003d84:	0f40241e 	jal	9d009078 <__divsf3>
9d003d88:	00402821 	move	a1,v0
9d003d8c:	00402021 	move	a0,v0
9d003d90:	0f40251b 	jal	9d00946c <.LFE9>
9d003d94:	02c02821 	move	a1,s6
9d003d98:	00402021 	move	a0,v0
9d003d9c:	0f40241e 	jal	9d009078 <__divsf3>
9d003da0:	02a02821 	move	a1,s5
9d003da4:	0f402bb8 	jal	9d00aee0 <__fixsfsi>
9d003da8:	00402021 	move	a0,v0
9d003dac:	00408021 	move	s0,v0
		N_Side = ceil( (Time1_Side*1.0/65535.0) ); 
9d003db0:	0f402ce6 	jal	9d00b398 <__floatsisf>
9d003db4:	00402021 	move	a0,v0
9d003db8:	00402021 	move	a0,v0
9d003dbc:	0f40241e 	jal	9d009078 <__divsf3>
9d003dc0:	02802821 	move	a1,s4
9d003dc4:	0f4029c3 	jal	9d00a70c <.LFE3>
9d003dc8:	00402021 	move	a0,v0

9d003dcc <.LVL58>:
9d003dcc:	0f402bb8 	jal	9d00aee0 <__fixsfsi>
9d003dd0:	00402021 	move	a0,v0

		// Select best pre-scaler of 1, 2, 4, 8, 16, 32, 64, or 256 
		if( N_Side == 1 ) {
9d003dd4:	24040001 	li	a0,1
9d003dd8:	10440018 	beq	v0,a0,9d003e3c <.LVL58+0x70>
9d003ddc:	00401821 	move	v1,v0
			N_Side = 1;
			TCKPS_Side = 0;
		} else if( N_Side <= 2 ) {
9d003de0:	28420003 	slti	v0,v0,3
9d003de4:	5440001e 	bnezl	v0,9d003e60 <.LVL58+0x94>
9d003de8:	24030002 	li	v1,2
			N_Side = 2;
			TCKPS_Side = 1;
		} else if( N_Side <= 4 ) {
9d003dec:	28620005 	slti	v0,v1,5
9d003df0:	54400014 	bnezl	v0,9d003e44 <.LVL58+0x78>
9d003df4:	24040002 	li	a0,2
			N_Side = 4;
			TCKPS_Side = 2;
		} else if( N_Side <= 8 ) {
9d003df8:	28620009 	slti	v0,v1,9
9d003dfc:	54400013 	bnezl	v0,9d003e4c <.LVL58+0x80>
9d003e00:	24040003 	li	a0,3
			N_Side = 8;
			TCKPS_Side = 3;

		} else if( N_Side <= 16 ) {
9d003e04:	28620011 	slti	v0,v1,17
9d003e08:	54400012 	bnezl	v0,9d003e54 <.LVL58+0x88>
9d003e0c:	24040004 	li	a0,4
			N_Side = 16;
			TCKPS_Side = 4;
		} else if( N_Side <= 32 ) {
9d003e10:	28620021 	slti	v0,v1,33
9d003e14:	54400011 	bnezl	v0,9d003e5c <.LVL58+0x90>
9d003e18:	24040005 	li	a0,5
			N_Side = 32;
			TCKPS_Side = 5;
		} else if( N_Side <= 64 ) {
9d003e1c:	28620041 	slti	v0,v1,65
			N_Side = 64;
			TCKPS_Side = 6;
9d003e20:	24030006 	li	v1,6
9d003e24:	24040007 	li	a0,7
9d003e28:	0062200b 	movn	a0,v1,v0
9d003e2c:	24030040 	li	v1,64
9d003e30:	24050100 	li	a1,256
9d003e34:	0b400f98 	j	9d003e60 <.LVL58+0x94>
9d003e38:	00a2180a 	movz	v1,a1,v0
		N_Side = ceil( (Time1_Side*1.0/65535.0) ); 

		// Select best pre-scaler of 1, 2, 4, 8, 16, 32, 64, or 256 
		if( N_Side == 1 ) {
			N_Side = 1;
			TCKPS_Side = 0;
9d003e3c:	0b400f98 	j	9d003e60 <.LVL58+0x94>
9d003e40:	00002021 	move	a0,zero
		} else if( N_Side <= 2 ) {
			N_Side = 2;
			TCKPS_Side = 1;
		} else if( N_Side <= 4 ) {
			N_Side = 4;
9d003e44:	0b400f98 	j	9d003e60 <.LVL58+0x94>
9d003e48:	24030004 	li	v1,4
			TCKPS_Side = 2;
		} else if( N_Side <= 8 ) {
			N_Side = 8;
9d003e4c:	0b400f98 	j	9d003e60 <.LVL58+0x94>
9d003e50:	24030008 	li	v1,8
			TCKPS_Side = 3;

		} else if( N_Side <= 16 ) {
			N_Side = 16;
9d003e54:	0b400f98 	j	9d003e60 <.LVL58+0x94>
9d003e58:	24030010 	li	v1,16
			TCKPS_Side = 4;
		} else if( N_Side <= 32 ) {
			N_Side = 32;
9d003e5c:	24030020 	li	v1,32
		//LCD_Move(1, 0);
		//sprintf(message, "%d", PR_Side);
		//LCD_WriteString(message);


		__builtin_disable_interrupts(); 	// INT step 2: disable interrupts at CPU
9d003e60:	41626000 	di	v0
9d003e64:	000000c0 	ehb
			N_Side = 256;
			TCKPS_Side = 7;
		}

		// Calculate period register based on selected prescaler
		PR_Side = (Time1_Side / N_Side) - 1;
9d003e68:	0203001a 	div	zero,s0,v1
9d003e6c:	006001f4 	teq	v1,zero,0x7
9d003e70:	00008012 	mflo	s0
9d003e74:	2610ffff 	addiu	s0,s0,-1


		__builtin_disable_interrupts(); 	// INT step 2: disable interrupts at CPU

											// INT step 3: 	setup TMR2 to call ISR at frequency of 5 kHz
		PR2 = PR_Side;						// set period register
9d003e78:	ae700820 	sw	s0,2080(s3)
		TMR2 = 0;							// initialize count to 0
9d003e7c:	3c02bf80 	lui	v0,0xbf80
9d003e80:	ac400810 	sw	zero,2064(v0)
		T2CONbits.TCKPS = TCKPS_Side;		// 	set prescaler to 1:1
9d003e84:	3c02bf80 	lui	v0,0xbf80
9d003e88:	94430800 	lhu	v1,2048(v0)
9d003e8c:	7c833104 	ins	v1,a0,0x4,0x3
9d003e90:	a4430800 	sh	v1,2048(v0)
		T2CONbits.ON = 1; 					// turn on Timer2
9d003e94:	94430800 	lhu	v1,2048(v0)
9d003e98:	24040001 	li	a0,1
9d003e9c:	7c837bc4 	ins	v1,a0,0xf,0x1
9d003ea0:	a4430800 	sh	v1,2048(v0)
		IPC2bits.T2IP = 5; 					// INT step 4: 	priority 5
9d003ea4:	3c02bf88 	lui	v0,0xbf88
9d003ea8:	8c4310b0 	lw	v1,4272(v0)
9d003eac:	24050005 	li	a1,5
9d003eb0:	7ca32084 	ins	v1,a1,0x2,0x3
9d003eb4:	ac4310b0 	sw	v1,4272(v0)
		IPC2bits.T2IS = 2; 					// subpriority 2
9d003eb8:	8c4310b0 	lw	v1,4272(v0)
9d003ebc:	24050002 	li	a1,2
9d003ec0:	7ca30804 	ins	v1,a1,0x0,0x2
9d003ec4:	ac4310b0 	sw	v1,4272(v0)
		IFS0bits.T2IF = 0; 					// INT step 5: 	clear interrupt flag
9d003ec8:	3c02bf88 	lui	v0,0xbf88
9d003ecc:	8c431030 	lw	v1,4144(v0)
9d003ed0:	7c034204 	ins	v1,zero,0x8,0x1
9d003ed4:	ac431030 	sw	v1,4144(v0)
		IEC0bits.T2IE = 1; 					// INT step 6: 	enable interrupt
9d003ed8:	3c02bf88 	lui	v0,0xbf88
9d003edc:	8c431060 	lw	v1,4192(v0)
9d003ee0:	7c834204 	ins	v1,a0,0x8,0x1
9d003ee4:	ac431060 	sw	v1,4192(v0)

		__builtin_enable_interrupts(); 		// INT step 7: 	enable interrupts at CPU
9d003ee8:	41626020 	ei	v0


		// Turn RecordFlag ON since we have received command from master
		RecordFlag = 1;
9d003eec:	24020001 	li	v0,1
9d003ef0:	a3828025 	sb	v0,-32731(gp)
		
		// Display properties on LCD
		LCD_Clear();
9d003ef4:	0f401af1 	jal	9d006bc4 <LCD_Clear>
9d003ef8:	00000000 	nop

9d003efc <.LVL71>:
		LCD_Move(0,0);
9d003efc:	00002021 	move	a0,zero
9d003f00:	0f401b31 	jal	9d006cc4 <LCD_Move>
9d003f04:	00002821 	move	a1,zero

9d003f08 <.LVL72>:
		sprintf(message, "%d, %d, %d", FPS_Side, NUMIMAGES_Side, INTEGER_MULTIPLE);
9d003f08:	8f828040 	lw	v0,-32704(gp)
9d003f0c:	afa20010 	sw	v0,16(sp)
9d003f10:	27a40020 	addiu	a0,sp,32
9d003f14:	02402821 	move	a1,s2
9d003f18:	8f868034 	lw	a2,-32716(gp)
9d003f1c:	0f402c31 	jal	9d00b0c4 <_sprintf_cdfFnopuxX>
9d003f20:	8f87803c 	lw	a3,-32708(gp)

9d003f24 <.LVL73>:
		LCD_WriteString(message);                     	
9d003f24:	0f401b4d 	jal	9d006d34 <LCD_WriteString>
9d003f28:	27a40020 	addiu	a0,sp,32

9d003f2c <.LVL74>:

		LCD_Move(1,0);
9d003f2c:	24040001 	li	a0,1
9d003f30:	0f401b31 	jal	9d006cc4 <LCD_Move>
9d003f34:	00002821 	move	a1,zero

9d003f38 <.LVL75>:
		sprintf(message, "%d, %f", PULSETIME, DELAYTIME);
9d003f38:	8f878038 	lw	a3,-32712(gp)
9d003f3c:	27a40020 	addiu	a0,sp,32
9d003f40:	02202821 	move	a1,s1
9d003f44:	0f402c31 	jal	9d00b0c4 <_sprintf_cdfFnopuxX>
9d003f48:	8f868010 	lw	a2,-32752(gp)

9d003f4c <.LVL76>:
		LCD_WriteString(message);
9d003f4c:	0f401b4d 	jal	9d006d34 <LCD_WriteString>
9d003f50:	27a40020 	addiu	a0,sp,32

9d003f54 <.LVL77>:
		
	}
9d003f54:	0b400f51 	j	9d003d44 <.LVL46+0x210>
9d003f58:	27a40020 	addiu	a0,sp,32

Disassembly of section .text.malloc:

9d003f5c <malloc>:
9d003f5c:	27bdffc0 	addiu	sp,sp,-64
9d003f60:	afbf003c 	sw	ra,60(sp)
9d003f64:	afbe0038 	sw	s8,56(sp)
9d003f68:	afb70034 	sw	s7,52(sp)
9d003f6c:	afb60030 	sw	s6,48(sp)
9d003f70:	afb5002c 	sw	s5,44(sp)
9d003f74:	afb40028 	sw	s4,40(sp)
9d003f78:	afb30024 	sw	s3,36(sp)
9d003f7c:	afb20020 	sw	s2,32(sp)
9d003f80:	afb1001c 	sw	s1,28(sp)
9d003f84:	afb00018 	sw	s0,24(sp)
9d003f88:	2490000b 	addiu	s0,a0,11
9d003f8c:	2e020017 	sltiu	v0,s0,23
9d003f90:	10400021 	beqz	v0,9d004018 <malloc+0xbc>
9d003f94:	7c101004 	ins	s0,zero,0x0,0x3
9d003f98:	2c840011 	sltiu	a0,a0,17
9d003f9c:	10800086 	beqz	a0,9d0041b8 <malloc+0x25c>
9d003fa0:	24100010 	li	s0,16
9d003fa4:	3c11a000 	lui	s1,0xa000
9d003fa8:	2631003c 	addiu	s1,s1,60
9d003fac:	02301821 	addu	v1,s1,s0
9d003fb0:	8c62000c 	lw	v0,12(v1)
9d003fb4:	104300bb 	beq	v0,v1,9d0042a4 <malloc+0x348>
9d003fb8:	001040c2 	srl	t0,s0,0x3
9d003fbc:	8c430004 	lw	v1,4(v0)
9d003fc0:	8c44000c 	lw	a0,12(v0)
9d003fc4:	8c450008 	lw	a1,8(v0)
9d003fc8:	7c030804 	ins	v1,zero,0x0,0x2
9d003fcc:	00431821 	addu	v1,v0,v1
9d003fd0:	8c660004 	lw	a2,4(v1)
9d003fd4:	aca4000c 	sw	a0,12(a1)
9d003fd8:	24420008 	addiu	v0,v0,8
9d003fdc:	34c60001 	ori	a2,a2,0x1
9d003fe0:	ac850008 	sw	a1,8(a0)
9d003fe4:	ac660004 	sw	a2,4(v1)
9d003fe8:	8fbf003c 	lw	ra,60(sp)
9d003fec:	8fbe0038 	lw	s8,56(sp)
9d003ff0:	8fb70034 	lw	s7,52(sp)
9d003ff4:	8fb60030 	lw	s6,48(sp)
9d003ff8:	8fb5002c 	lw	s5,44(sp)
9d003ffc:	8fb40028 	lw	s4,40(sp)
9d004000:	8fb30024 	lw	s3,36(sp)
9d004004:	8fb20020 	lw	s2,32(sp)
9d004008:	8fb1001c 	lw	s1,28(sp)
9d00400c:	8fb00018 	lw	s0,24(sp)
9d004010:	03e00008 	jr	ra
9d004014:	27bd0040 	addiu	sp,sp,64
9d004018:	06000067 	bltz	s0,9d0041b8 <malloc+0x25c>
9d00401c:	0204202b 	sltu	a0,s0,a0
9d004020:	14800065 	bnez	a0,9d0041b8 <malloc+0x25c>
9d004024:	2e0201f8 	sltiu	v0,s0,504
9d004028:	1440ffdf 	bnez	v0,9d003fa8 <malloc+0x4c>
9d00402c:	3c11a000 	lui	s1,0xa000
9d004030:	00101242 	srl	v0,s0,0x9
9d004034:	1040000a 	beqz	v0,9d004060 <malloc+0x104>
9d004038:	2406007e 	li	a2,126
9d00403c:	2c430005 	sltiu	v1,v0,5
9d004040:	1460003d 	bnez	v1,9d004138 <malloc+0x1dc>
9d004044:	00104182 	srl	t0,s0,0x6
9d004048:	2c430015 	sltiu	v1,v0,21
9d00404c:	106000fc 	beqz	v1,9d004440 <malloc+0x4e4>
9d004050:	2c430055 	sltiu	v1,v0,85
9d004054:	2448005b 	addiu	t0,v0,91
9d004058:	0b40101a 	j	9d004068 <malloc+0x10c>
9d00405c:	00083040 	sll	a2,t0,0x1
9d004060:	2408003f 	li	t0,63
9d004064:	3c11a000 	lui	s1,0xa000
9d004068:	00063080 	sll	a2,a2,0x2
9d00406c:	2631003c 	addiu	s1,s1,60
9d004070:	02263021 	addu	a2,s1,a2
9d004074:	8cc2000c 	lw	v0,12(a2)
9d004078:	54c20009 	bnel	a2,v0,9d0040a0 <malloc+0x144>
9d00407c:	8c440004 	lw	a0,4(v0)
9d004080:	0b40102f 	j	9d0040bc <malloc+0x160>
9d004084:	25080001 	addiu	t0,t0,1
9d004088:	0463005b 	bgezl	v1,9d0041f8 <malloc+0x29c>
9d00408c:	00442021 	addu	a0,v0,a0
9d004090:	8c42000c 	lw	v0,12(v0)
9d004094:	50c20009 	beql	a2,v0,9d0040bc <malloc+0x160>
9d004098:	25080001 	addiu	t0,t0,1
9d00409c:	8c440004 	lw	a0,4(v0)
9d0040a0:	7c040804 	ins	a0,zero,0x0,0x2
9d0040a4:	00901823 	subu	v1,a0,s0
9d0040a8:	28650010 	slti	a1,v1,16
9d0040ac:	14a0fff6 	bnez	a1,9d004088 <malloc+0x12c>
9d0040b0:	00000000 	nop
9d0040b4:	2508ffff 	addiu	t0,t0,-1
9d0040b8:	25080001 	addiu	t0,t0,1
9d0040bc:	8e220010 	lw	v0,16(s1)
9d0040c0:	3c06a000 	lui	a2,0xa000
9d0040c4:	24c60044 	addiu	a2,a2,68
9d0040c8:	5046007c 	beql	v0,a2,9d0042bc <malloc+0x360>
9d0040cc:	8e240004 	lw	a0,4(s1)
9d0040d0:	8c440004 	lw	a0,4(v0)
9d0040d4:	7c040804 	ins	a0,zero,0x0,0x2
9d0040d8:	00901823 	subu	v1,a0,s0
9d0040dc:	28650010 	slti	a1,v1,16
9d0040e0:	50a00059 	beqzl	a1,9d004248 <malloc+0x2ec>
9d0040e4:	00502021 	addu	a0,v0,s0
9d0040e8:	ae260014 	sw	a2,20(s1)
9d0040ec:	04600015 	bltz	v1,9d004144 <malloc+0x1e8>
9d0040f0:	ae260010 	sw	a2,16(s1)
9d0040f4:	00442021 	addu	a0,v0,a0
9d0040f8:	8c830004 	lw	v1,4(a0)
9d0040fc:	24420008 	addiu	v0,v0,8
9d004100:	34630001 	ori	v1,v1,0x1
9d004104:	ac830004 	sw	v1,4(a0)
9d004108:	8fbf003c 	lw	ra,60(sp)
9d00410c:	8fbe0038 	lw	s8,56(sp)
9d004110:	8fb70034 	lw	s7,52(sp)
9d004114:	8fb60030 	lw	s6,48(sp)
9d004118:	8fb5002c 	lw	s5,44(sp)
9d00411c:	8fb40028 	lw	s4,40(sp)
9d004120:	8fb30024 	lw	s3,36(sp)
9d004124:	8fb20020 	lw	s2,32(sp)
9d004128:	8fb1001c 	lw	s1,28(sp)
9d00412c:	8fb00018 	lw	s0,24(sp)
9d004130:	03e00008 	jr	ra
9d004134:	27bd0040 	addiu	sp,sp,64
9d004138:	25080038 	addiu	t0,t0,56
9d00413c:	0b401019 	j	9d004064 <malloc+0x108>
9d004140:	00083040 	sll	a2,t0,0x1
9d004144:	2c830200 	sltiu	v1,a0,512
9d004148:	546000c6 	bnezl	v1,9d004464 <malloc+0x508>
9d00414c:	000420c2 	srl	a0,a0,0x3
9d004150:	00041a42 	srl	v1,a0,0x9
9d004154:	2c650005 	sltiu	a1,v1,5
9d004158:	10a0014b 	beqz	a1,9d004688 <malloc+0x72c>
9d00415c:	2c650015 	sltiu	a1,v1,21
9d004160:	00042982 	srl	a1,a0,0x6
9d004164:	24a50038 	addiu	a1,a1,56
9d004168:	000538c0 	sll	a3,a1,0x3
9d00416c:	02273821 	addu	a3,s1,a3
9d004170:	8ce30008 	lw	v1,8(a3)
9d004174:	50670151 	beql	v1,a3,9d0046bc <malloc+0x760>
9d004178:	8e240004 	lw	a0,4(s1)
9d00417c:	8c650004 	lw	a1,4(v1)
9d004180:	7c050804 	ins	a1,zero,0x0,0x2
9d004184:	0085282b 	sltu	a1,a0,a1
9d004188:	50a00005 	beqzl	a1,9d0041a0 <malloc+0x244>
9d00418c:	8c65000c 	lw	a1,12(v1)
9d004190:	8c630008 	lw	v1,8(v1)
9d004194:	54e3fffa 	bnel	a3,v1,9d004180 <malloc+0x224>
9d004198:	8c650004 	lw	a1,4(v1)
9d00419c:	8c65000c 	lw	a1,12(v1)
9d0041a0:	8e240004 	lw	a0,4(s1)
9d0041a4:	ac45000c 	sw	a1,12(v0)
9d0041a8:	ac430008 	sw	v1,8(v0)
9d0041ac:	aca20008 	sw	v0,8(a1)
9d0041b0:	0b4010af 	j	9d0042bc <malloc+0x360>
9d0041b4:	ac62000c 	sw	v0,12(v1)
9d0041b8:	2403000c 	li	v1,12
9d0041bc:	3c02a000 	lui	v0,0xa000
9d0041c0:	ac430020 	sw	v1,32(v0)
9d0041c4:	00001021 	move	v0,zero
9d0041c8:	8fbf003c 	lw	ra,60(sp)
9d0041cc:	8fbe0038 	lw	s8,56(sp)
9d0041d0:	8fb70034 	lw	s7,52(sp)
9d0041d4:	8fb60030 	lw	s6,48(sp)
9d0041d8:	8fb5002c 	lw	s5,44(sp)
9d0041dc:	8fb40028 	lw	s4,40(sp)
9d0041e0:	8fb30024 	lw	s3,36(sp)
9d0041e4:	8fb20020 	lw	s2,32(sp)
9d0041e8:	8fb1001c 	lw	s1,28(sp)
9d0041ec:	8fb00018 	lw	s0,24(sp)
9d0041f0:	03e00008 	jr	ra
9d0041f4:	27bd0040 	addiu	sp,sp,64
9d0041f8:	8c860004 	lw	a2,4(a0)
9d0041fc:	8c43000c 	lw	v1,12(v0)
9d004200:	8c450008 	lw	a1,8(v0)
9d004204:	34c60001 	ori	a2,a2,0x1
9d004208:	24420008 	addiu	v0,v0,8
9d00420c:	aca3000c 	sw	v1,12(a1)
9d004210:	ac650008 	sw	a1,8(v1)
9d004214:	ac860004 	sw	a2,4(a0)
9d004218:	8fbf003c 	lw	ra,60(sp)
9d00421c:	8fbe0038 	lw	s8,56(sp)
9d004220:	8fb70034 	lw	s7,52(sp)
9d004224:	8fb60030 	lw	s6,48(sp)
9d004228:	8fb5002c 	lw	s5,44(sp)
9d00422c:	8fb40028 	lw	s4,40(sp)
9d004230:	8fb30024 	lw	s3,36(sp)
9d004234:	8fb20020 	lw	s2,32(sp)
9d004238:	8fb1001c 	lw	s1,28(sp)
9d00423c:	8fb00018 	lw	s0,24(sp)
9d004240:	03e00008 	jr	ra
9d004244:	27bd0040 	addiu	sp,sp,64
9d004248:	36100001 	ori	s0,s0,0x1
9d00424c:	34670001 	ori	a3,v1,0x1
9d004250:	00832821 	addu	a1,a0,v1
9d004254:	ac500004 	sw	s0,4(v0)
9d004258:	24420008 	addiu	v0,v0,8
9d00425c:	ae240014 	sw	a0,20(s1)
9d004260:	ae240010 	sw	a0,16(s1)
9d004264:	ac86000c 	sw	a2,12(a0)
9d004268:	ac860008 	sw	a2,8(a0)
9d00426c:	ac870004 	sw	a3,4(a0)
9d004270:	aca30000 	sw	v1,0(a1)
9d004274:	8fbf003c 	lw	ra,60(sp)
9d004278:	8fbe0038 	lw	s8,56(sp)
9d00427c:	8fb70034 	lw	s7,52(sp)
9d004280:	8fb60030 	lw	s6,48(sp)
9d004284:	8fb5002c 	lw	s5,44(sp)
9d004288:	8fb40028 	lw	s4,40(sp)
9d00428c:	8fb30024 	lw	s3,36(sp)
9d004290:	8fb20020 	lw	s2,32(sp)
9d004294:	8fb1001c 	lw	s1,28(sp)
9d004298:	8fb00018 	lw	s0,24(sp)
9d00429c:	03e00008 	jr	ra
9d0042a0:	27bd0040 	addiu	sp,sp,64
9d0042a4:	24430008 	addiu	v1,v0,8
9d0042a8:	8c420014 	lw	v0,20(v0)
9d0042ac:	1062ff83 	beq	v1,v0,9d0040bc <malloc+0x160>
9d0042b0:	25080002 	addiu	t0,t0,2
9d0042b4:	0b400ff0 	j	9d003fc0 <malloc+0x64>
9d0042b8:	8c430004 	lw	v1,4(v0)
9d0042bc:	00081083 	sra	v0,t0,0x2
9d0042c0:	24070001 	li	a3,1
9d0042c4:	00473804 	sllv	a3,a3,v0
9d0042c8:	0087102b 	sltu	v0,a0,a3
9d0042cc:	5440002a 	bnezl	v0,9d004378 <malloc+0x41c>
9d0042d0:	8e320008 	lw	s2,8(s1)
9d0042d4:	00871024 	and	v0,a0,a3
9d0042d8:	50400070 	beqzl	v0,9d00449c <malloc+0x540>
9d0042dc:	00073840 	sll	a3,a3,0x1
9d0042e0:	000850c0 	sll	t2,t0,0x3
9d0042e4:	022a5021 	addu	t2,s1,t2
9d0042e8:	01404821 	move	t1,t2
9d0042ec:	01005821 	move	t3,t0
9d0042f0:	8d22000c 	lw	v0,12(t1)
9d0042f4:	55220009 	bnel	t1,v0,9d00431c <malloc+0x3c0>
9d0042f8:	8c440004 	lw	a0,4(v0)
9d0042fc:	0b401134 	j	9d0044d0 <malloc+0x574>
9d004300:	256b0001 	addiu	t3,t3,1
9d004304:	04630090 	bgezl	v1,9d004548 <malloc+0x5ec>
9d004308:	00442021 	addu	a0,v0,a0
9d00430c:	8c42000c 	lw	v0,12(v0)
9d004310:	5122006f 	beql	t1,v0,9d0044d0 <malloc+0x574>
9d004314:	256b0001 	addiu	t3,t3,1
9d004318:	8c440004 	lw	a0,4(v0)
9d00431c:	7c040804 	ins	a0,zero,0x0,0x2
9d004320:	00901823 	subu	v1,a0,s0
9d004324:	28650010 	slti	a1,v1,16
9d004328:	14a0fff6 	bnez	a1,9d004304 <malloc+0x3a8>
9d00432c:	00000000 	nop
9d004330:	8c45000c 	lw	a1,12(v0)
9d004334:	8c470008 	lw	a3,8(v0)
9d004338:	00502021 	addu	a0,v0,s0
9d00433c:	36100001 	ori	s0,s0,0x1
9d004340:	34690001 	ori	t1,v1,0x1
9d004344:	00834021 	addu	t0,a0,v1
9d004348:	ac500004 	sw	s0,4(v0)
9d00434c:	24420008 	addiu	v0,v0,8
9d004350:	ace5000c 	sw	a1,12(a3)
9d004354:	aca70008 	sw	a3,8(a1)
9d004358:	ae240014 	sw	a0,20(s1)
9d00435c:	ae240010 	sw	a0,16(s1)
9d004360:	ac86000c 	sw	a2,12(a0)
9d004364:	ac860008 	sw	a2,8(a0)
9d004368:	ac890004 	sw	t1,4(a0)
9d00436c:	0b400ffa 	j	9d003fe8 <malloc+0x8c>
9d004370:	ad030000 	sw	v1,0(t0)
9d004374:	8e320008 	lw	s2,8(s1)
9d004378:	8e540004 	lw	s4,4(s2)
9d00437c:	7c140804 	ins	s4,zero,0x0,0x2
9d004380:	0290102b 	sltu	v0,s4,s0
9d004384:	14400004 	bnez	v0,9d004398 <malloc+0x43c>
9d004388:	02901023 	subu	v0,s4,s0
9d00438c:	28430010 	slti	v1,v0,16
9d004390:	10600024 	beqz	v1,9d004424 <malloc+0x4c8>
9d004394:	02501821 	addu	v1,s2,s0
9d004398:	3c02a000 	lui	v0,0xa000
9d00439c:	8c5505d0 	lw	s5,1488(v0)
9d0043a0:	3c1ea000 	lui	s8,0xa000
9d0043a4:	0254b821 	addu	s7,s2,s4
9d0043a8:	26b50010 	addiu	s5,s5,16
9d0043ac:	0f402ed9 	jal	9d00bb64 <getpagesize>
9d0043b0:	02b0a821 	addu	s5,s5,s0
9d0043b4:	0040b021 	move	s6,v0
9d0043b8:	8fc30034 	lw	v1,52(s8)
9d0043bc:	2402ffff 	li	v0,-1
9d0043c0:	10620004 	beq	v1,v0,9d0043d4 <malloc+0x478>
9d0043c4:	26a2ffff 	addiu	v0,s5,-1
9d0043c8:	00561021 	addu	v0,v0,s6
9d0043cc:	0016a823 	negu	s5,s6
9d0043d0:	02a2a824 	and	s5,s5,v0
9d0043d4:	0f402d27 	jal	9d00b49c <sbrk>
9d0043d8:	02a02021 	move	a0,s5
9d0043dc:	00409821 	move	s3,v0
9d0043e0:	2402ffff 	li	v0,-1
9d0043e4:	52620007 	beql	s3,v0,9d004404 <malloc+0x4a8>
9d0043e8:	8e320008 	lw	s2,8(s1)
9d0043ec:	0277102b 	sltu	v0,s3,s7
9d0043f0:	1040005e 	beqz	v0,9d00456c <malloc+0x610>
9d0043f4:	3c03a000 	lui	v1,0xa000
9d0043f8:	5251005d 	beql	s2,s1,9d004570 <malloc+0x614>
9d0043fc:	8c6205a0 	lw	v0,1440(v1)
9d004400:	8e320008 	lw	s2,8(s1)
9d004404:	8e420004 	lw	v0,4(s2)
9d004408:	7c020804 	ins	v0,zero,0x0,0x2
9d00440c:	0050182b 	sltu	v1,v0,s0
9d004410:	146000a1 	bnez	v1,9d004698 <malloc+0x73c>
9d004414:	00501023 	subu	v0,v0,s0
9d004418:	28430010 	slti	v1,v0,16
9d00441c:	1460009e 	bnez	v1,9d004698 <malloc+0x73c>
9d004420:	02501821 	addu	v1,s2,s0
9d004424:	36100001 	ori	s0,s0,0x1
9d004428:	34440001 	ori	a0,v0,0x1
9d00442c:	ae500004 	sw	s0,4(s2)
9d004430:	26420008 	addiu	v0,s2,8
9d004434:	ae230008 	sw	v1,8(s1)
9d004438:	0b400ffa 	j	9d003fe8 <malloc+0x8c>
9d00443c:	ac640004 	sw	a0,4(v1)
9d004440:	14600020 	bnez	v1,9d0044c4 <malloc+0x568>
9d004444:	00104302 	srl	t0,s0,0xc
9d004448:	2c430155 	sltiu	v1,v0,341
9d00444c:	10600088 	beqz	v1,9d004670 <malloc+0x714>
9d004450:	2c420555 	sltiu	v0,v0,1365
9d004454:	001043c2 	srl	t0,s0,0xf
9d004458:	25080077 	addiu	t0,t0,119
9d00445c:	0b401019 	j	9d004064 <malloc+0x108>
9d004460:	00083040 	sll	a2,t0,0x1
9d004464:	000418c0 	sll	v1,a0,0x3
9d004468:	02231821 	addu	v1,s1,v1
9d00446c:	8e270004 	lw	a3,4(s1)
9d004470:	8c650008 	lw	a1,8(v1)
9d004474:	00042083 	sra	a0,a0,0x2
9d004478:	24090001 	li	t1,1
9d00447c:	00892004 	sllv	a0,t1,a0
9d004480:	00872025 	or	a0,a0,a3
9d004484:	ac43000c 	sw	v1,12(v0)
9d004488:	ac450008 	sw	a1,8(v0)
9d00448c:	ae240004 	sw	a0,4(s1)
9d004490:	ac620008 	sw	v0,8(v1)
9d004494:	0b4010af 	j	9d0042bc <malloc+0x360>
9d004498:	aca2000c 	sw	v0,12(a1)
9d00449c:	7c080804 	ins	t0,zero,0x0,0x2
9d0044a0:	00871024 	and	v0,a0,a3
9d0044a4:	1440ff8e 	bnez	v0,9d0042e0 <malloc+0x384>
9d0044a8:	25080004 	addiu	t0,t0,4
9d0044ac:	00073840 	sll	a3,a3,0x1
9d0044b0:	00871024 	and	v0,a0,a3
9d0044b4:	1040fffd 	beqz	v0,9d0044ac <malloc+0x550>
9d0044b8:	25080004 	addiu	t0,t0,4
9d0044bc:	0b4010b9 	j	9d0042e4 <malloc+0x388>
9d0044c0:	000850c0 	sll	t2,t0,0x3
9d0044c4:	2508006e 	addiu	t0,t0,110
9d0044c8:	0b401019 	j	9d004064 <malloc+0x108>
9d0044cc:	00083040 	sll	a2,t0,0x1
9d0044d0:	31620003 	andi	v0,t3,0x3
9d0044d4:	1440ff86 	bnez	v0,9d0042f0 <malloc+0x394>
9d0044d8:	25290008 	addiu	t1,t1,8
9d0044dc:	0b40113c 	j	9d0044f0 <malloc+0x594>
9d0044e0:	2542fff8 	addiu	v0,t2,-8
9d0044e4:	15420009 	bne	t2,v0,9d00450c <malloc+0x5b0>
9d0044e8:	2508ffff 	addiu	t0,t0,-1
9d0044ec:	2542fff8 	addiu	v0,t2,-8
9d0044f0:	31030003 	andi	v1,t0,0x3
9d0044f4:	5460fffb 	bnezl	v1,9d0044e4 <malloc+0x588>
9d0044f8:	8d4a0000 	lw	t2,0(t2)
9d0044fc:	8e220004 	lw	v0,4(s1)
9d004500:	00071827 	nor	v1,zero,a3
9d004504:	00621024 	and	v0,v1,v0
9d004508:	ae220004 	sw	v0,4(s1)
9d00450c:	8e220004 	lw	v0,4(s1)
9d004510:	00073840 	sll	a3,a3,0x1
9d004514:	0047182b 	sltu	v1,v0,a3
9d004518:	5460ff97 	bnezl	v1,9d004378 <malloc+0x41c>
9d00451c:	8e320008 	lw	s2,8(s1)
9d004520:	10e0ff94 	beqz	a3,9d004374 <malloc+0x418>
9d004524:	00e21824 	and	v1,a3,v0
9d004528:	1460ff6d 	bnez	v1,9d0042e0 <malloc+0x384>
9d00452c:	01604021 	move	t0,t3
9d004530:	00073840 	sll	a3,a3,0x1
9d004534:	00e21824 	and	v1,a3,v0
9d004538:	1060fffd 	beqz	v1,9d004530 <malloc+0x5d4>
9d00453c:	25080004 	addiu	t0,t0,4
9d004540:	0b4010b9 	j	9d0042e4 <malloc+0x388>
9d004544:	000850c0 	sll	t2,t0,0x3
9d004548:	8c860004 	lw	a2,4(a0)
9d00454c:	8c43000c 	lw	v1,12(v0)
9d004550:	8c450008 	lw	a1,8(v0)
9d004554:	34c60001 	ori	a2,a2,0x1
9d004558:	ac860004 	sw	a2,4(a0)
9d00455c:	24420008 	addiu	v0,v0,8
9d004560:	aca3000c 	sw	v1,12(a1)
9d004564:	0b400ffa 	j	9d003fe8 <malloc+0x8c>
9d004568:	ac650008 	sw	a1,8(v1)
9d00456c:	8c6205a0 	lw	v0,1440(v1)
9d004570:	26c5ffff 	addiu	a1,s6,-1
9d004574:	02a21021 	addu	v0,s5,v0
9d004578:	12f3005c 	beq	s7,s3,9d0046ec <malloc+0x790>
9d00457c:	ac6205a0 	sw	v0,1440(v1)
9d004580:	8fc60034 	lw	a2,52(s8)
9d004584:	2404ffff 	li	a0,-1
9d004588:	50c40068 	beql	a2,a0,9d00472c <malloc+0x7d0>
9d00458c:	3c02a000 	lui	v0,0xa000
9d004590:	0277b823 	subu	s7,s3,s7
9d004594:	00571021 	addu	v0,v0,s7
9d004598:	ac6205a0 	sw	v0,1440(v1)
9d00459c:	32640007 	andi	a0,s3,0x7
9d0045a0:	10800004 	beqz	a0,9d0045b4 <malloc+0x658>
9d0045a4:	00001021 	move	v0,zero
9d0045a8:	24020008 	li	v0,8
9d0045ac:	00441023 	subu	v0,v0,a0
9d0045b0:	02629821 	addu	s3,s3,v0
9d0045b4:	0275a821 	addu	s5,s3,s5
9d0045b8:	00561021 	addu	v0,v0,s6
9d0045bc:	02a52824 	and	a1,s5,a1
9d0045c0:	0045a823 	subu	s5,v0,a1
9d0045c4:	02a02021 	move	a0,s5
9d0045c8:	0f402d27 	jal	9d00b49c <sbrk>
9d0045cc:	afa30010 	sw	v1,16(sp)
9d0045d0:	2404ffff 	li	a0,-1
9d0045d4:	10440052 	beq	v0,a0,9d004720 <malloc+0x7c4>
9d0045d8:	8fa30010 	lw	v1,16(sp)
9d0045dc:	00531023 	subu	v0,v0,s3
9d0045e0:	02a22021 	addu	a0,s5,v0
9d0045e4:	34840001 	ori	a0,a0,0x1
9d0045e8:	8c6205a0 	lw	v0,1440(v1)
9d0045ec:	ae330008 	sw	s3,8(s1)
9d0045f0:	02a21021 	addu	v0,s5,v0
9d0045f4:	ac6205a0 	sw	v0,1440(v1)
9d0045f8:	1251000f 	beq	s2,s1,9d004638 <malloc+0x6dc>
9d0045fc:	ae640004 	sw	a0,4(s3)
9d004600:	2e830010 	sltiu	v1,s4,16
9d004604:	14600028 	bnez	v1,9d0046a8 <malloc+0x74c>
9d004608:	2683fff4 	addiu	v1,s4,-12
9d00460c:	7c031004 	ins	v1,zero,0x0,0x3
9d004610:	02432021 	addu	a0,s2,v1
9d004614:	24050005 	li	a1,5
9d004618:	ac850004 	sw	a1,4(a0)
9d00461c:	ac850008 	sw	a1,8(a0)
9d004620:	8e450004 	lw	a1,4(s2)
9d004624:	2c640010 	sltiu	a0,v1,16
9d004628:	30a50001 	andi	a1,a1,0x1
9d00462c:	00651825 	or	v1,v1,a1
9d004630:	10800036 	beqz	a0,9d00470c <malloc+0x7b0>
9d004634:	ae430004 	sw	v1,4(s2)
9d004638:	3c03a000 	lui	v1,0xa000
9d00463c:	8c6405cc 	lw	a0,1484(v1)
9d004640:	0082202b 	sltu	a0,a0,v0
9d004644:	54800001 	bnezl	a0,9d00464c <malloc+0x6f0>
9d004648:	ac6205cc 	sw	v0,1484(v1)
9d00464c:	3c03a000 	lui	v1,0xa000
9d004650:	8c6405c8 	lw	a0,1480(v1)
9d004654:	0082202b 	sltu	a0,a0,v0
9d004658:	10800002 	beqz	a0,9d004664 <malloc+0x708>
9d00465c:	8e320008 	lw	s2,8(s1)
9d004660:	ac6205c8 	sw	v0,1480(v1)
9d004664:	8e420004 	lw	v0,4(s2)
9d004668:	0b401103 	j	9d00440c <malloc+0x4b0>
9d00466c:	7c020804 	ins	v0,zero,0x0,0x2
9d004670:	5040000b 	beqzl	v0,9d0046a0 <malloc+0x744>
9d004674:	240600fc 	li	a2,252
9d004678:	00104482 	srl	t0,s0,0x12
9d00467c:	2508007c 	addiu	t0,t0,124
9d004680:	0b401019 	j	9d004064 <malloc+0x108>
9d004684:	00083040 	sll	a2,t0,0x1
9d004688:	50a00013 	beqzl	a1,9d0046d8 <malloc+0x77c>
9d00468c:	2c650055 	sltiu	a1,v1,85
9d004690:	0b40105a 	j	9d004168 <malloc+0x20c>
9d004694:	2465005b 	addiu	a1,v1,91
9d004698:	0b400ffa 	j	9d003fe8 <malloc+0x8c>
9d00469c:	00001021 	move	v0,zero
9d0046a0:	0b401019 	j	9d004064 <malloc+0x108>
9d0046a4:	2408007e 	li	t0,126
9d0046a8:	24020001 	li	v0,1
9d0046ac:	ae620004 	sw	v0,4(s3)
9d0046b0:	02609021 	move	s2,s3
9d0046b4:	0b401103 	j	9d00440c <malloc+0x4b0>
9d0046b8:	00001021 	move	v0,zero
9d0046bc:	00052883 	sra	a1,a1,0x2
9d0046c0:	24070001 	li	a3,1
9d0046c4:	00a72804 	sllv	a1,a3,a1
9d0046c8:	00a42025 	or	a0,a1,a0
9d0046cc:	ae240004 	sw	a0,4(s1)
9d0046d0:	0b401069 	j	9d0041a4 <malloc+0x248>
9d0046d4:	00602821 	move	a1,v1
9d0046d8:	50a00016 	beqzl	a1,9d004734 <malloc+0x7d8>
9d0046dc:	2c650155 	sltiu	a1,v1,341
9d0046e0:	00042b02 	srl	a1,a0,0xc
9d0046e4:	0b40105a 	j	9d004168 <malloc+0x20c>
9d0046e8:	24a5006e 	addiu	a1,a1,110
9d0046ec:	02e52024 	and	a0,s7,a1
9d0046f0:	5480ffa4 	bnezl	a0,9d004584 <malloc+0x628>
9d0046f4:	8fc60034 	lw	a2,52(s8)
9d0046f8:	8e230008 	lw	v1,8(s1)
9d0046fc:	02b42021 	addu	a0,s5,s4
9d004700:	34840001 	ori	a0,a0,0x1
9d004704:	0b40118e 	j	9d004638 <malloc+0x6dc>
9d004708:	ac640004 	sw	a0,4(v1)
9d00470c:	0f402242 	jal	9d008908 <free>
9d004710:	26440008 	addiu	a0,s2,8
9d004714:	3c02a000 	lui	v0,0xa000
9d004718:	0b40118e 	j	9d004638 <malloc+0x6dc>
9d00471c:	8c4205a0 	lw	v0,1440(v0)
9d004720:	24040001 	li	a0,1
9d004724:	0b40117a 	j	9d0045e8 <malloc+0x68c>
9d004728:	0000a821 	move	s5,zero
9d00472c:	0b401167 	j	9d00459c <malloc+0x640>
9d004730:	ac530034 	sw	s3,52(v0)
9d004734:	10a00004 	beqz	a1,9d004748 <malloc+0x7ec>
9d004738:	2c630555 	sltiu	v1,v1,1365
9d00473c:	00042bc2 	srl	a1,a0,0xf
9d004740:	0b40105a 	j	9d004168 <malloc+0x20c>
9d004744:	24a50077 	addiu	a1,a1,119
9d004748:	1060fe87 	beqz	v1,9d004168 <malloc+0x20c>
9d00474c:	2405007e 	li	a1,126
9d004750:	00042c82 	srl	a1,a0,0x12
9d004754:	0b40105a 	j	9d004168 <malloc+0x20c>
9d004758:	24a5007c 	addiu	a1,a1,124

Disassembly of section .text._fconvert:

9d00475c <_fconvert>:
9d00475c:	27bdfda0 	addiu	sp,sp,-608
9d004760:	afbf025c 	sw	ra,604(sp)
9d004764:	afbe0258 	sw	s8,600(sp)
9d004768:	afb70254 	sw	s7,596(sp)
9d00476c:	afb60250 	sw	s6,592(sp)
9d004770:	afb5024c 	sw	s5,588(sp)
9d004774:	afb40248 	sw	s4,584(sp)
9d004778:	afb30244 	sw	s3,580(sp)
9d00477c:	afb20240 	sw	s2,576(sp)
9d004780:	afb1023c 	sw	s1,572(sp)
9d004784:	afb00238 	sw	s0,568(sp)
9d004788:	00a08021 	move	s0,a1
9d00478c:	3c027f80 	lui	v0,0x7f80
9d004790:	00451824 	and	v1,v0,a1
9d004794:	afa40260 	sw	a0,608(sp)
9d004798:	afa60268 	sw	a2,616(sp)
9d00479c:	00e0b821 	move	s7,a3
9d0047a0:	8fb50270 	lw	s5,624(sp)
9d0047a4:	97a40274 	lhu	a0,628(sp)
9d0047a8:	106200d3 	beq	v1,v0,9d004af8 <_fconvert+0x39c>
9d0047ac:	afa40228 	sw	a0,552(sp)
9d0047b0:	2402ffff 	li	v0,-1
9d0047b4:	12a2011e 	beq	s5,v0,9d004c30 <_fconvert+0x4d4>
9d0047b8:	2aa20028 	slti	v0,s5,40
9d0047bc:	14400009 	bnez	v0,9d0047e4 <_fconvert+0x88>
9d0047c0:	afa0022c 	sw	zero,556(sp)
9d0047c4:	8fa30268 	lw	v1,616(sp)
9d0047c8:	7c032944 	ins	v1,zero,0x5,0x1
9d0047cc:	24020047 	li	v0,71
9d0047d0:	10620134 	beq	v1,v0,9d004ca4 <_fconvert+0x548>
9d0047d4:	8fa30228 	lw	v1,552(sp)
9d0047d8:	26b5ffd9 	addiu	s5,s5,-39
9d0047dc:	afb5022c 	sw	s5,556(sp)
9d0047e0:	24150027 	li	s5,39
9d0047e4:	a3a00019 	sb	zero,25(sp)
9d0047e8:	06000069 	bltz	s0,9d004990 <_fconvert+0x234>
9d0047ec:	afa00230 	sw	zero,560(sp)
9d0047f0:	02002021 	move	a0,s0
9d0047f4:	0f402927 	jal	9d00a49c <fpmodf>
9d0047f8:	27a50224 	addiu	a1,sp,548
9d0047fc:	0040b021 	move	s6,v0
9d004800:	8fbe0224 	lw	s8,548(sp)
9d004804:	00002821 	move	a1,zero
9d004808:	0f402ae5 	jal	9d00ab94 <__eqsf2>
9d00480c:	03c02021 	move	a0,s8
9d004810:	1040012e 	beqz	v0,9d004ccc <_fconvert+0x570>
9d004814:	3c029d01 	lui	v0,0x9d01
9d004818:	3c109d01 	lui	s0,0x9d01
9d00481c:	8e12b1f4 	lw	s2,-19980(s0)
9d004820:	8c54b1f8 	lw	s4,-19976(v0)
9d004824:	00008821 	move	s1,zero
9d004828:	27b00218 	addiu	s0,sp,536
9d00482c:	02409821 	move	s3,s2
9d004830:	03c02021 	move	a0,s8
9d004834:	0f40241e 	jal	9d009078 <__divsf3>
9d004838:	02402821 	move	a1,s2
9d00483c:	00402021 	move	a0,v0
9d004840:	0f402927 	jal	9d00a49c <fpmodf>
9d004844:	27a50224 	addiu	a1,sp,548
9d004848:	00402021 	move	a0,v0
9d00484c:	02802821 	move	a1,s4
9d004850:	0f402382 	jal	9d008e08 <__addsf3>
9d004854:	afa20220 	sw	v0,544(sp)
9d004858:	00402021 	move	a0,v0
9d00485c:	0f40251b 	jal	9d00946c <.LFE9>
9d004860:	02602821 	move	a1,s3
9d004864:	0f402bb8 	jal	9d00aee0 <__fixsfsi>
9d004868:	00402021 	move	a0,v0
9d00486c:	8fbe0224 	lw	s8,548(sp)
9d004870:	2610ffff 	addiu	s0,s0,-1
9d004874:	24420030 	addiu	v0,v0,48
9d004878:	03c02021 	move	a0,s8
9d00487c:	00002821 	move	a1,zero
9d004880:	a2020001 	sb	v0,1(s0)
9d004884:	0f402ae5 	jal	9d00ab94 <__eqsf2>
9d004888:	26310001 	addiu	s1,s1,1
9d00488c:	1440ffe9 	bnez	v0,9d004834 <_fconvert+0xd8>
9d004890:	03c02021 	move	a0,s8
9d004894:	24020046 	li	v0,70
9d004898:	8fa30268 	lw	v1,616(sp)
9d00489c:	10620041 	beq	v1,v0,9d0049a4 <_fconvert+0x248>
9d0048a0:	24020066 	li	v0,102
9d0048a4:	1062003f 	beq	v1,v0,9d0049a4 <_fconvert+0x248>
9d0048a8:	00009821 	move	s3,zero
9d0048ac:	83a40019 	lb	a0,25(sp)
9d0048b0:	27a20019 	addiu	v0,sp,25
9d0048b4:	27a3001a 	addiu	v1,sp,26
9d0048b8:	0064100a 	movz	v0,v1,a0
9d0048bc:	8fa30230 	lw	v1,560(sp)
9d0048c0:	10600027 	beqz	v1,9d004960 <_fconvert+0x204>
9d0048c4:	8fa40228 	lw	a0,552(sp)
9d0048c8:	2452ffff 	addiu	s2,v0,-1
9d0048cc:	a043ffff 	sb	v1,-1(v0)
9d0048d0:	26730001 	addiu	s3,s3,1
9d0048d4:	8fa30228 	lw	v1,552(sp)
9d0048d8:	30710008 	andi	s1,v1,0x8
9d0048dc:	3231ffff 	andi	s1,s1,0xffff
9d0048e0:	8fa3022c 	lw	v1,556(sp)
9d0048e4:	1620006f 	bnez	s1,9d004aa4 <_fconvert+0x348>
9d0048e8:	02638021 	addu	s0,s3,v1
9d0048ec:	0217102a 	slt	v0,s0,s7
9d0048f0:	1040006d 	beqz	v0,9d004aa8 <_fconvert+0x34c>
9d0048f4:	02402021 	move	a0,s2
9d0048f8:	8fa30228 	lw	v1,552(sp)
9d0048fc:	30620004 	andi	v0,v1,0x4
9d004900:	8fa40260 	lw	a0,608(sp)
9d004904:	104000ec 	beqz	v0,9d004cb8 <_fconvert+0x55c>
9d004908:	02f02823 	subu	a1,s7,s0
9d00490c:	3c069d01 	lui	a2,0x9d01
9d004910:	0f402a97 	jal	9d00aa5c <repl>
9d004914:	24c6b1b4 	addiu	a2,a2,-20044
9d004918:	2403ffff 	li	v1,-1
9d00491c:	14430062 	bne	v0,v1,9d004aa8 <_fconvert+0x34c>
9d004920:	02402021 	move	a0,s2
9d004924:	0217102a 	slt	v0,s0,s7
9d004928:	0202b80a 	movz	s7,s0,v0
9d00492c:	02e01021 	move	v0,s7
9d004930:	8fbf025c 	lw	ra,604(sp)
9d004934:	8fbe0258 	lw	s8,600(sp)
9d004938:	8fb70254 	lw	s7,596(sp)
9d00493c:	8fb60250 	lw	s6,592(sp)
9d004940:	8fb5024c 	lw	s5,588(sp)
9d004944:	8fb40248 	lw	s4,584(sp)
9d004948:	8fb30244 	lw	s3,580(sp)
9d00494c:	8fb20240 	lw	s2,576(sp)
9d004950:	8fb1023c 	lw	s1,572(sp)
9d004954:	8fb00238 	lw	s0,568(sp)
9d004958:	03e00008 	jr	ra
9d00495c:	27bd0260 	addiu	sp,sp,608
9d004960:	30830002 	andi	v1,a0,0x2
9d004964:	546000b9 	bnezl	v1,9d004c4c <_fconvert+0x4f0>
9d004968:	2452ffff 	addiu	s2,v0,-1
9d00496c:	8fa40228 	lw	a0,552(sp)
9d004970:	30830001 	andi	v1,a0,0x1
9d004974:	1060ffd7 	beqz	v1,9d0048d4 <_fconvert+0x178>
9d004978:	00409021 	move	s2,v0
9d00497c:	2452ffff 	addiu	s2,v0,-1
9d004980:	24030020 	li	v1,32
9d004984:	a043ffff 	sb	v1,-1(v0)
9d004988:	0b401235 	j	9d0048d4 <_fconvert+0x178>
9d00498c:	26730001 	addiu	s3,s3,1
9d004990:	3c028000 	lui	v0,0x8000
9d004994:	00508026 	xor	s0,v0,s0
9d004998:	2403002d 	li	v1,45
9d00499c:	0b4011fc 	j	9d0047f0 <_fconvert+0x94>
9d0049a0:	afa30230 	sw	v1,560(sp)
9d0049a4:	1220006f 	beqz	s1,9d004b64 <_fconvert+0x408>
9d0049a8:	24020030 	li	v0,48
9d0049ac:	26020001 	addiu	v0,s0,1
9d0049b0:	27a50219 	addiu	a1,sp,537
9d0049b4:	0045182b 	sltu	v1,v0,a1
9d0049b8:	106000d9 	beqz	v1,9d004d20 <_fconvert+0x5c4>
9d0049bc:	27b2001a 	addiu	s2,sp,26
9d0049c0:	02401821 	move	v1,s2
9d0049c4:	80440000 	lb	a0,0(v0)
9d0049c8:	24630001 	addiu	v1,v1,1
9d0049cc:	24420001 	addiu	v0,v0,1
9d0049d0:	1445fffc 	bne	v0,a1,9d0049c4 <_fconvert+0x268>
9d0049d4:	a064ffff 	sb	a0,-1(v1)
9d0049d8:	03b08023 	subu	s0,sp,s0
9d0049dc:	26100218 	addiu	s0,s0,536
9d0049e0:	02508021 	addu	s0,s2,s0
9d0049e4:	12a00064 	beqz	s5,9d004b78 <_fconvert+0x41c>
9d0049e8:	8fa30228 	lw	v1,552(sp)
9d0049ec:	02c02021 	move	a0,s6
9d0049f0:	00002821 	move	a1,zero
9d0049f4:	26130001 	addiu	s3,s0,1
9d0049f8:	2402002e 	li	v0,46
9d0049fc:	0f402ae5 	jal	9d00ab94 <__eqsf2>
9d004a00:	a2020000 	sb	v0,0(s0)
9d004a04:	10400082 	beqz	v0,9d004c10 <_fconvert+0x4b4>
9d004a08:	26a3ffff 	addiu	v1,s5,-1
9d004a0c:	3c109d01 	lui	s0,0x9d01
9d004a10:	0b40128a 	j	9d004a28 <_fconvert+0x2cc>
9d004a14:	8e11b1f4 	lw	s1,-19980(s0)
9d004a18:	0f402ae5 	jal	9d00ab94 <__eqsf2>
9d004a1c:	00000000 	nop
9d004a20:	1040007b 	beqz	v0,9d004c10 <_fconvert+0x4b4>
9d004a24:	26a3ffff 	addiu	v1,s5,-1
9d004a28:	02c02021 	move	a0,s6
9d004a2c:	0f40251b 	jal	9d00946c <.LFE9>
9d004a30:	02202821 	move	a1,s1
9d004a34:	00402021 	move	a0,v0
9d004a38:	0f402927 	jal	9d00a49c <fpmodf>
9d004a3c:	27a50220 	addiu	a1,sp,544
9d004a40:	0040b021 	move	s6,v0
9d004a44:	8fa40220 	lw	a0,544(sp)
9d004a48:	26730001 	addiu	s3,s3,1
9d004a4c:	0f402bb8 	jal	9d00aee0 <__fixsfsi>
9d004a50:	26b5ffff 	addiu	s5,s5,-1
9d004a54:	02c02021 	move	a0,s6
9d004a58:	00002821 	move	a1,zero
9d004a5c:	24420030 	addiu	v0,v0,48
9d004a60:	16a0ffed 	bnez	s5,9d004a18 <_fconvert+0x2bc>
9d004a64:	a262ffff 	sb	v0,-1(s3)
9d004a68:	02c02021 	move	a0,s6
9d004a6c:	0f402ae5 	jal	9d00ab94 <__eqsf2>
9d004a70:	00002821 	move	a1,zero
9d004a74:	54400049 	bnezl	v0,9d004b9c <_fconvert+0x440>
9d004a78:	8e05b1f4 	lw	a1,-19980(s0)
9d004a7c:	02729823 	subu	s3,s3,s2
9d004a80:	83a40019 	lb	a0,25(sp)
9d004a84:	27a20019 	addiu	v0,sp,25
9d004a88:	27a3001a 	addiu	v1,sp,26
9d004a8c:	0064100a 	movz	v0,v1,a0
9d004a90:	8fa30230 	lw	v1,560(sp)
9d004a94:	1060ffb2 	beqz	v1,9d004960 <_fconvert+0x204>
9d004a98:	8fa40228 	lw	a0,552(sp)
9d004a9c:	0b401233 	j	9d0048cc <_fconvert+0x170>
9d004aa0:	2452ffff 	addiu	s2,v0,-1
9d004aa4:	02402021 	move	a0,s2
9d004aa8:	02602821 	move	a1,s3
9d004aac:	0f402c4c 	jal	9d00b130 <__sputn>
9d004ab0:	8fa60260 	lw	a2,608(sp)
9d004ab4:	2412ffff 	li	s2,-1
9d004ab8:	1052ff9a 	beq	v0,s2,9d004924 <_fconvert+0x1c8>
9d004abc:	8fa3022c 	lw	v1,556(sp)
9d004ac0:	14600066 	bnez	v1,9d004c5c <_fconvert+0x500>
9d004ac4:	8fa40260 	lw	a0,608(sp)
9d004ac8:	1220ff97 	beqz	s1,9d004928 <_fconvert+0x1cc>
9d004acc:	0217102a 	slt	v0,s0,s7
9d004ad0:	0217102a 	slt	v0,s0,s7
9d004ad4:	5040ff94 	beqzl	v0,9d004928 <_fconvert+0x1cc>
9d004ad8:	0217102a 	slt	v0,s0,s7
9d004adc:	8fa40260 	lw	a0,608(sp)
9d004ae0:	02f02823 	subu	a1,s7,s0
9d004ae4:	3c069d01 	lui	a2,0x9d01
9d004ae8:	0f402a97 	jal	9d00aa5c <repl>
9d004aec:	24c6b1d4 	addiu	a2,a2,-20012
9d004af0:	0b40124a 	j	9d004928 <_fconvert+0x1cc>
9d004af4:	0217102a 	slt	v0,s0,s7
9d004af8:	0f402ae5 	jal	9d00ab94 <__eqsf2>
9d004afc:	00a02021 	move	a0,a1
9d004b00:	1440005e 	bnez	v0,9d004c7c <_fconvert+0x520>
9d004b04:	02002021 	move	a0,s0
9d004b08:	0f402ae5 	jal	9d00ab94 <__eqsf2>
9d004b0c:	00002821 	move	a1,zero
9d004b10:	8fa30228 	lw	v1,552(sp)
9d004b14:	afa30010 	sw	v1,16(sp)
9d004b18:	0440006f 	bltz	v0,9d004cd8 <_fconvert+0x57c>
9d004b1c:	8fa40260 	lw	a0,608(sp)
9d004b20:	3c059d01 	lui	a1,0x9d01
9d004b24:	24a5b1a4 	addiu	a1,a1,-20060
9d004b28:	24060004 	li	a2,4
9d004b2c:	0f402659 	jal	9d009964 <.LFE2>
9d004b30:	02e03821 	move	a3,s7
9d004b34:	8fbf025c 	lw	ra,604(sp)
9d004b38:	8fbe0258 	lw	s8,600(sp)
9d004b3c:	8fb70254 	lw	s7,596(sp)
9d004b40:	8fb60250 	lw	s6,592(sp)
9d004b44:	8fb5024c 	lw	s5,588(sp)
9d004b48:	8fb40248 	lw	s4,584(sp)
9d004b4c:	8fb30244 	lw	s3,580(sp)
9d004b50:	8fb20240 	lw	s2,576(sp)
9d004b54:	8fb1023c 	lw	s1,572(sp)
9d004b58:	8fb00238 	lw	s0,568(sp)
9d004b5c:	03e00008 	jr	ra
9d004b60:	27bd0260 	addiu	sp,sp,608
9d004b64:	a3a2001a 	sb	v0,26(sp)
9d004b68:	27b0001b 	addiu	s0,sp,27
9d004b6c:	16a0ff9f 	bnez	s5,9d0049ec <_fconvert+0x290>
9d004b70:	27b2001a 	addiu	s2,sp,26
9d004b74:	8fa30228 	lw	v1,552(sp)
9d004b78:	30620800 	andi	v0,v1,0x800
9d004b7c:	1440005d 	bnez	v0,9d004cf4 <_fconvert+0x598>
9d004b80:	02c02021 	move	a0,s6
9d004b84:	0f402ae5 	jal	9d00ab94 <__eqsf2>
9d004b88:	00002821 	move	a1,zero
9d004b8c:	1040ffbb 	beqz	v0,9d004a7c <_fconvert+0x320>
9d004b90:	02009821 	move	s3,s0
9d004b94:	3c109d01 	lui	s0,0x9d01
9d004b98:	8e05b1f4 	lw	a1,-19980(s0)
9d004b9c:	02c02021 	move	a0,s6
9d004ba0:	0f40251b 	jal	9d00946c <.LFE9>
9d004ba4:	2670ffff 	addiu	s0,s3,-1
9d004ba8:	00402021 	move	a0,v0
9d004bac:	0f402927 	jal	9d00a49c <fpmodf>
9d004bb0:	27a5021c 	addiu	a1,sp,540
9d004bb4:	3c029d01 	lui	v0,0x9d01
9d004bb8:	8c44b1fc 	lw	a0,-19972(v0)
9d004bbc:	0f402ae5 	jal	9d00ab94 <__eqsf2>
9d004bc0:	8fa5021c 	lw	a1,540(sp)
9d004bc4:	2404002e 	li	a0,46
9d004bc8:	0440000b 	bltz	v0,9d004bf8 <_fconvert+0x49c>
9d004bcc:	24050030 	li	a1,48
9d004bd0:	0b4012a0 	j	9d004a80 <_fconvert+0x324>
9d004bd4:	02729823 	subu	s3,s3,s2
9d004bd8:	24420001 	addiu	v0,v0,1
9d004bdc:	7c021420 	seb	v0,v0
9d004be0:	2843003a 	slti	v1,v0,58
9d004be4:	5460004c 	bnezl	v1,9d004d18 <_fconvert+0x5bc>
9d004be8:	a2020000 	sb	v0,0(s0)
9d004bec:	1212004e 	beq	s0,s2,9d004d28 <_fconvert+0x5cc>
9d004bf0:	a2050000 	sb	a1,0(s0)
9d004bf4:	2610ffff 	addiu	s0,s0,-1
9d004bf8:	82020000 	lb	v0,0(s0)
9d004bfc:	5444fff7 	bnel	v0,a0,9d004bdc <_fconvert+0x480>
9d004c00:	24420001 	addiu	v0,v0,1
9d004c04:	8202ffff 	lb	v0,-1(s0)
9d004c08:	0b4012f6 	j	9d004bd8 <_fconvert+0x47c>
9d004c0c:	2610ffff 	addiu	s0,s0,-1
9d004c10:	24630001 	addiu	v1,v1,1
9d004c14:	02631821 	addu	v1,s3,v1
9d004c18:	24020030 	li	v0,48
9d004c1c:	26730001 	addiu	s3,s3,1
9d004c20:	1663fffe 	bne	s3,v1,9d004c1c <_fconvert+0x4c0>
9d004c24:	a262ffff 	sb	v0,-1(s3)
9d004c28:	0b4012a0 	j	9d004a80 <_fconvert+0x324>
9d004c2c:	02729823 	subu	s3,s3,s2
9d004c30:	afa0022c 	sw	zero,556(sp)
9d004c34:	24150006 	li	s5,6
9d004c38:	a3a00019 	sb	zero,25(sp)
9d004c3c:	0601feec 	bgez	s0,9d0047f0 <_fconvert+0x94>
9d004c40:	afa00230 	sw	zero,560(sp)
9d004c44:	0b401265 	j	9d004994 <_fconvert+0x238>
9d004c48:	3c028000 	lui	v0,0x8000
9d004c4c:	2403002b 	li	v1,43
9d004c50:	a043ffff 	sb	v1,-1(v0)
9d004c54:	0b401235 	j	9d0048d4 <_fconvert+0x178>
9d004c58:	26730001 	addiu	s3,s3,1
9d004c5c:	8fa5022c 	lw	a1,556(sp)
9d004c60:	3c069d01 	lui	a2,0x9d01
9d004c64:	0f402a97 	jal	9d00aa5c <repl>
9d004c68:	24c6b1b4 	addiu	a2,a2,-20044
9d004c6c:	1452ff96 	bne	v0,s2,9d004ac8 <_fconvert+0x36c>
9d004c70:	0217102a 	slt	v0,s0,s7
9d004c74:	0b40124b 	j	9d00492c <_fconvert+0x1d0>
9d004c78:	0202b80a 	movz	s7,s0,v0
9d004c7c:	8fa30228 	lw	v1,552(sp)
9d004c80:	afa30010 	sw	v1,16(sp)
9d004c84:	8fa40260 	lw	a0,608(sp)
9d004c88:	3c059d01 	lui	a1,0x9d01
9d004c8c:	24a5b198 	addiu	a1,a1,-20072
9d004c90:	24060003 	li	a2,3
9d004c94:	0f402659 	jal	9d009964 <.LFE2>
9d004c98:	02e03821 	move	a3,s7
9d004c9c:	0b40124d 	j	9d004934 <_fconvert+0x1d8>
9d004ca0:	8fbf025c 	lw	ra,604(sp)
9d004ca4:	30620800 	andi	v0,v1,0x800
9d004ca8:	5440fecc 	bnezl	v0,9d0047dc <_fconvert+0x80>
9d004cac:	26b5ffd9 	addiu	s5,s5,-39
9d004cb0:	0b4011f9 	j	9d0047e4 <_fconvert+0x88>
9d004cb4:	24150027 	li	s5,39
9d004cb8:	3c069d01 	lui	a2,0x9d01
9d004cbc:	0f402a97 	jal	9d00aa5c <repl>
9d004cc0:	24c6b1d4 	addiu	a2,a2,-20012
9d004cc4:	0b401247 	j	9d00491c <_fconvert+0x1c0>
9d004cc8:	2403ffff 	li	v1,-1
9d004ccc:	00008821 	move	s1,zero
9d004cd0:	0b401225 	j	9d004894 <_fconvert+0x138>
9d004cd4:	27b00218 	addiu	s0,sp,536
9d004cd8:	3c059d01 	lui	a1,0x9d01
9d004cdc:	24a5b19c 	addiu	a1,a1,-20068
9d004ce0:	24060004 	li	a2,4
9d004ce4:	0f402659 	jal	9d009964 <.LFE2>
9d004ce8:	02e03821 	move	a3,s7
9d004cec:	0b40124d 	j	9d004934 <_fconvert+0x1d8>
9d004cf0:	8fbf025c 	lw	ra,604(sp)
9d004cf4:	00002821 	move	a1,zero
9d004cf8:	26130001 	addiu	s3,s0,1
9d004cfc:	2402002e 	li	v0,46
9d004d00:	0f402ae5 	jal	9d00ab94 <__eqsf2>
9d004d04:	a2020000 	sb	v0,0(s0)
9d004d08:	5440ffa3 	bnezl	v0,9d004b98 <_fconvert+0x43c>
9d004d0c:	3c109d01 	lui	s0,0x9d01
9d004d10:	0b4012a0 	j	9d004a80 <_fconvert+0x324>
9d004d14:	02729823 	subu	s3,s3,s2
9d004d18:	0b4012a0 	j	9d004a80 <_fconvert+0x324>
9d004d1c:	02729823 	subu	s3,s3,s2
9d004d20:	0b401279 	j	9d0049e4 <_fconvert+0x288>
9d004d24:	02408021 	move	s0,s2
9d004d28:	24020031 	li	v0,49
9d004d2c:	a3a20019 	sb	v0,25(sp)
9d004d30:	27b20019 	addiu	s2,sp,25
9d004d34:	0b4012a0 	j	9d004a80 <_fconvert+0x324>
9d004d38:	02729823 	subu	s3,s3,s2

Disassembly of section .dinit:

9d004d3c <.dinit>:
9d004d3c:	a000000c 	sb	zero,12(zero)
9d004d40:	00000014 	0x14
9d004d44:	00000000 	nop
9d004d48:	a0000000 	sb	zero,0(zero)
9d004d4c:	00000004 	sllv	zero,zero,zero
9d004d50:	00000001 	movf	zero,zero,$fcc0
9d004d54:	00000384 	0x384
9d004d58:	a0000444 	sb	zero,1092(zero)
9d004d5c:	000000d4 	0xd4
9d004d60:	00000001 	movf	zero,zero,$fcc0
9d004d64:	a00004a8 	sb	zero,1192(zero)
9d004d68:	a00004c4 	sb	zero,1220(zero)
9d004d6c:	a00004e0 	sb	zero,1248(zero)
9d004d70:	a00004a4 	sb	zero,1188(zero)
9d004d74:	a0000518 	sb	zero,1304(zero)
9d004d78:	00000001 	movf	zero,zero,$fcc0
	...
9d004dc8:	ffffffff 	sdc3	$31,-1(ra)
9d004dcc:	ffffffff 	sdc3	$31,-1(ra)
9d004dd0:	00000000 	nop
9d004dd4:	00000040 	ssnop
9d004dd8:	00001009 	jalr	v0,zero
9d004ddc:	00000000 	nop
9d004de0:	9d00ba34 	0x9d00ba34
9d004de4:	ffffffff 	sdc3	$31,-1(ra)
	...
9d004df4:	00011002 	srl	v0,at,0x0
9d004df8:	00000000 	nop
9d004dfc:	9d00ba34 	0x9d00ba34
9d004e00:	ffffffff 	sdc3	$31,-1(ra)
	...
9d004e10:	00020002 	srl	zero,v0,0x0
9d004e14:	00000000 	nop
9d004e18:	9d00ba34 	0x9d00ba34
9d004e1c:	fffffffd 	sdc3	$31,-3(ra)
	...
9d004e38:	a0000518 	sb	zero,1304(zero)
9d004e3c:	00000088 	0x88
9d004e40:	00000000 	nop
9d004e44:	a0000004 	sb	zero,4(zero)
9d004e48:	00000004 	sllv	zero,zero,zero
9d004e4c:	00000001 	movf	zero,zero,$fcc0
9d004e50:	a0000444 	sb	zero,1092(zero)
9d004e54:	a0000618 	sb	zero,1560(zero)
9d004e58:	00000004 	sllv	zero,zero,zero
9d004e5c:	00000000 	nop
9d004e60:	a0000034 	sb	zero,52(zero)
9d004e64:	00000410 	0x410
9d004e68:	00000001 	movf	zero,zero,$fcc0
9d004e6c:	ffffffff 	sdc3	$31,-1(ra)
9d004e70:	00002000 	sll	a0,zero,0x0
	...
9d004e7c:	a000003c 	sb	zero,60(zero)
9d004e80:	a000003c 	sb	zero,60(zero)
9d004e84:	a0000044 	sb	zero,68(zero)
9d004e88:	a0000044 	sb	zero,68(zero)
9d004e8c:	a000004c 	sb	zero,76(zero)
9d004e90:	a000004c 	sb	zero,76(zero)
9d004e94:	a0000054 	sb	zero,84(zero)
9d004e98:	a0000054 	sb	zero,84(zero)
9d004e9c:	a000005c 	sb	zero,92(zero)
9d004ea0:	a000005c 	sb	zero,92(zero)
9d004ea4:	a0000064 	sb	zero,100(zero)
9d004ea8:	a0000064 	sb	zero,100(zero)
9d004eac:	a000006c 	sb	zero,108(zero)
9d004eb0:	a000006c 	sb	zero,108(zero)
9d004eb4:	a0000074 	sb	zero,116(zero)
9d004eb8:	a0000074 	sb	zero,116(zero)
9d004ebc:	a000007c 	sb	zero,124(zero)
9d004ec0:	a000007c 	sb	zero,124(zero)
9d004ec4:	a0000084 	sb	zero,132(zero)
9d004ec8:	a0000084 	sb	zero,132(zero)
9d004ecc:	a000008c 	sb	zero,140(zero)
9d004ed0:	a000008c 	sb	zero,140(zero)
9d004ed4:	a0000094 	sb	zero,148(zero)
9d004ed8:	a0000094 	sb	zero,148(zero)
9d004edc:	a000009c 	sb	zero,156(zero)
9d004ee0:	a000009c 	sb	zero,156(zero)
9d004ee4:	a00000a4 	sb	zero,164(zero)
9d004ee8:	a00000a4 	sb	zero,164(zero)
9d004eec:	a00000ac 	sb	zero,172(zero)
9d004ef0:	a00000ac 	sb	zero,172(zero)
9d004ef4:	a00000b4 	sb	zero,180(zero)
9d004ef8:	a00000b4 	sb	zero,180(zero)
9d004efc:	a00000bc 	sb	zero,188(zero)
9d004f00:	a00000bc 	sb	zero,188(zero)
9d004f04:	a00000c4 	sb	zero,196(zero)
9d004f08:	a00000c4 	sb	zero,196(zero)
9d004f0c:	a00000cc 	sb	zero,204(zero)
9d004f10:	a00000cc 	sb	zero,204(zero)
9d004f14:	a00000d4 	sb	zero,212(zero)
9d004f18:	a00000d4 	sb	zero,212(zero)
9d004f1c:	a00000dc 	sb	zero,220(zero)
9d004f20:	a00000dc 	sb	zero,220(zero)
9d004f24:	a00000e4 	sb	zero,228(zero)
9d004f28:	a00000e4 	sb	zero,228(zero)
9d004f2c:	a00000ec 	sb	zero,236(zero)
9d004f30:	a00000ec 	sb	zero,236(zero)
9d004f34:	a00000f4 	sb	zero,244(zero)
9d004f38:	a00000f4 	sb	zero,244(zero)
9d004f3c:	a00000fc 	sb	zero,252(zero)
9d004f40:	a00000fc 	sb	zero,252(zero)
9d004f44:	a0000104 	sb	zero,260(zero)
9d004f48:	a0000104 	sb	zero,260(zero)
9d004f4c:	a000010c 	sb	zero,268(zero)
9d004f50:	a000010c 	sb	zero,268(zero)
9d004f54:	a0000114 	sb	zero,276(zero)
9d004f58:	a0000114 	sb	zero,276(zero)
9d004f5c:	a000011c 	sb	zero,284(zero)
9d004f60:	a000011c 	sb	zero,284(zero)
9d004f64:	a0000124 	sb	zero,292(zero)
9d004f68:	a0000124 	sb	zero,292(zero)
9d004f6c:	a000012c 	sb	zero,300(zero)
9d004f70:	a000012c 	sb	zero,300(zero)
9d004f74:	a0000134 	sb	zero,308(zero)
9d004f78:	a0000134 	sb	zero,308(zero)
9d004f7c:	a000013c 	sb	zero,316(zero)
9d004f80:	a000013c 	sb	zero,316(zero)
9d004f84:	a0000144 	sb	zero,324(zero)
9d004f88:	a0000144 	sb	zero,324(zero)
9d004f8c:	a000014c 	sb	zero,332(zero)
9d004f90:	a000014c 	sb	zero,332(zero)
9d004f94:	a0000154 	sb	zero,340(zero)
9d004f98:	a0000154 	sb	zero,340(zero)
9d004f9c:	a000015c 	sb	zero,348(zero)
9d004fa0:	a000015c 	sb	zero,348(zero)
9d004fa4:	a0000164 	sb	zero,356(zero)
9d004fa8:	a0000164 	sb	zero,356(zero)
9d004fac:	a000016c 	sb	zero,364(zero)
9d004fb0:	a000016c 	sb	zero,364(zero)
9d004fb4:	a0000174 	sb	zero,372(zero)
9d004fb8:	a0000174 	sb	zero,372(zero)
9d004fbc:	a000017c 	sb	zero,380(zero)
9d004fc0:	a000017c 	sb	zero,380(zero)
9d004fc4:	a0000184 	sb	zero,388(zero)
9d004fc8:	a0000184 	sb	zero,388(zero)
9d004fcc:	a000018c 	sb	zero,396(zero)
9d004fd0:	a000018c 	sb	zero,396(zero)
9d004fd4:	a0000194 	sb	zero,404(zero)
9d004fd8:	a0000194 	sb	zero,404(zero)
9d004fdc:	a000019c 	sb	zero,412(zero)
9d004fe0:	a000019c 	sb	zero,412(zero)
9d004fe4:	a00001a4 	sb	zero,420(zero)
9d004fe8:	a00001a4 	sb	zero,420(zero)
9d004fec:	a00001ac 	sb	zero,428(zero)
9d004ff0:	a00001ac 	sb	zero,428(zero)
9d004ff4:	a00001b4 	sb	zero,436(zero)
9d004ff8:	a00001b4 	sb	zero,436(zero)
9d004ffc:	a00001bc 	sb	zero,444(zero)
9d005000:	a00001bc 	sb	zero,444(zero)
9d005004:	a00001c4 	sb	zero,452(zero)
9d005008:	a00001c4 	sb	zero,452(zero)
9d00500c:	a00001cc 	sb	zero,460(zero)
9d005010:	a00001cc 	sb	zero,460(zero)
9d005014:	a00001d4 	sb	zero,468(zero)
9d005018:	a00001d4 	sb	zero,468(zero)
9d00501c:	a00001dc 	sb	zero,476(zero)
9d005020:	a00001dc 	sb	zero,476(zero)
9d005024:	a00001e4 	sb	zero,484(zero)
9d005028:	a00001e4 	sb	zero,484(zero)
9d00502c:	a00001ec 	sb	zero,492(zero)
9d005030:	a00001ec 	sb	zero,492(zero)
9d005034:	a00001f4 	sb	zero,500(zero)
9d005038:	a00001f4 	sb	zero,500(zero)
9d00503c:	a00001fc 	sb	zero,508(zero)
9d005040:	a00001fc 	sb	zero,508(zero)
9d005044:	a0000204 	sb	zero,516(zero)
9d005048:	a0000204 	sb	zero,516(zero)
9d00504c:	a000020c 	sb	zero,524(zero)
9d005050:	a000020c 	sb	zero,524(zero)
9d005054:	a0000214 	sb	zero,532(zero)
9d005058:	a0000214 	sb	zero,532(zero)
9d00505c:	a000021c 	sb	zero,540(zero)
9d005060:	a000021c 	sb	zero,540(zero)
9d005064:	a0000224 	sb	zero,548(zero)
9d005068:	a0000224 	sb	zero,548(zero)
9d00506c:	a000022c 	sb	zero,556(zero)
9d005070:	a000022c 	sb	zero,556(zero)
9d005074:	a0000234 	sb	zero,564(zero)
9d005078:	a0000234 	sb	zero,564(zero)
9d00507c:	a000023c 	sb	zero,572(zero)
9d005080:	a000023c 	sb	zero,572(zero)
9d005084:	a0000244 	sb	zero,580(zero)
9d005088:	a0000244 	sb	zero,580(zero)
9d00508c:	a000024c 	sb	zero,588(zero)
9d005090:	a000024c 	sb	zero,588(zero)
9d005094:	a0000254 	sb	zero,596(zero)
9d005098:	a0000254 	sb	zero,596(zero)
9d00509c:	a000025c 	sb	zero,604(zero)
9d0050a0:	a000025c 	sb	zero,604(zero)
9d0050a4:	a0000264 	sb	zero,612(zero)
9d0050a8:	a0000264 	sb	zero,612(zero)
9d0050ac:	a000026c 	sb	zero,620(zero)
9d0050b0:	a000026c 	sb	zero,620(zero)
9d0050b4:	a0000274 	sb	zero,628(zero)
9d0050b8:	a0000274 	sb	zero,628(zero)
9d0050bc:	a000027c 	sb	zero,636(zero)
9d0050c0:	a000027c 	sb	zero,636(zero)
9d0050c4:	a0000284 	sb	zero,644(zero)
9d0050c8:	a0000284 	sb	zero,644(zero)
9d0050cc:	a000028c 	sb	zero,652(zero)
9d0050d0:	a000028c 	sb	zero,652(zero)
9d0050d4:	a0000294 	sb	zero,660(zero)
9d0050d8:	a0000294 	sb	zero,660(zero)
9d0050dc:	a000029c 	sb	zero,668(zero)
9d0050e0:	a000029c 	sb	zero,668(zero)
9d0050e4:	a00002a4 	sb	zero,676(zero)
9d0050e8:	a00002a4 	sb	zero,676(zero)
9d0050ec:	a00002ac 	sb	zero,684(zero)
9d0050f0:	a00002ac 	sb	zero,684(zero)
9d0050f4:	a00002b4 	sb	zero,692(zero)
9d0050f8:	a00002b4 	sb	zero,692(zero)
9d0050fc:	a00002bc 	sb	zero,700(zero)
9d005100:	a00002bc 	sb	zero,700(zero)
9d005104:	a00002c4 	sb	zero,708(zero)
9d005108:	a00002c4 	sb	zero,708(zero)
9d00510c:	a00002cc 	sb	zero,716(zero)
9d005110:	a00002cc 	sb	zero,716(zero)
9d005114:	a00002d4 	sb	zero,724(zero)
9d005118:	a00002d4 	sb	zero,724(zero)
9d00511c:	a00002dc 	sb	zero,732(zero)
9d005120:	a00002dc 	sb	zero,732(zero)
9d005124:	a00002e4 	sb	zero,740(zero)
9d005128:	a00002e4 	sb	zero,740(zero)
9d00512c:	a00002ec 	sb	zero,748(zero)
9d005130:	a00002ec 	sb	zero,748(zero)
9d005134:	a00002f4 	sb	zero,756(zero)
9d005138:	a00002f4 	sb	zero,756(zero)
9d00513c:	a00002fc 	sb	zero,764(zero)
9d005140:	a00002fc 	sb	zero,764(zero)
9d005144:	a0000304 	sb	zero,772(zero)
9d005148:	a0000304 	sb	zero,772(zero)
9d00514c:	a000030c 	sb	zero,780(zero)
9d005150:	a000030c 	sb	zero,780(zero)
9d005154:	a0000314 	sb	zero,788(zero)
9d005158:	a0000314 	sb	zero,788(zero)
9d00515c:	a000031c 	sb	zero,796(zero)
9d005160:	a000031c 	sb	zero,796(zero)
9d005164:	a0000324 	sb	zero,804(zero)
9d005168:	a0000324 	sb	zero,804(zero)
9d00516c:	a000032c 	sb	zero,812(zero)
9d005170:	a000032c 	sb	zero,812(zero)
9d005174:	a0000334 	sb	zero,820(zero)
9d005178:	a0000334 	sb	zero,820(zero)
9d00517c:	a000033c 	sb	zero,828(zero)
9d005180:	a000033c 	sb	zero,828(zero)
9d005184:	a0000344 	sb	zero,836(zero)
9d005188:	a0000344 	sb	zero,836(zero)
9d00518c:	a000034c 	sb	zero,844(zero)
9d005190:	a000034c 	sb	zero,844(zero)
9d005194:	a0000354 	sb	zero,852(zero)
9d005198:	a0000354 	sb	zero,852(zero)
9d00519c:	a000035c 	sb	zero,860(zero)
9d0051a0:	a000035c 	sb	zero,860(zero)
9d0051a4:	a0000364 	sb	zero,868(zero)
9d0051a8:	a0000364 	sb	zero,868(zero)
9d0051ac:	a000036c 	sb	zero,876(zero)
9d0051b0:	a000036c 	sb	zero,876(zero)
9d0051b4:	a0000374 	sb	zero,884(zero)
9d0051b8:	a0000374 	sb	zero,884(zero)
9d0051bc:	a000037c 	sb	zero,892(zero)
9d0051c0:	a000037c 	sb	zero,892(zero)
9d0051c4:	a0000384 	sb	zero,900(zero)
9d0051c8:	a0000384 	sb	zero,900(zero)
9d0051cc:	a000038c 	sb	zero,908(zero)
9d0051d0:	a000038c 	sb	zero,908(zero)
9d0051d4:	a0000394 	sb	zero,916(zero)
9d0051d8:	a0000394 	sb	zero,916(zero)
9d0051dc:	a000039c 	sb	zero,924(zero)
9d0051e0:	a000039c 	sb	zero,924(zero)
9d0051e4:	a00003a4 	sb	zero,932(zero)
9d0051e8:	a00003a4 	sb	zero,932(zero)
9d0051ec:	a00003ac 	sb	zero,940(zero)
9d0051f0:	a00003ac 	sb	zero,940(zero)
9d0051f4:	a00003b4 	sb	zero,948(zero)
9d0051f8:	a00003b4 	sb	zero,948(zero)
9d0051fc:	a00003bc 	sb	zero,956(zero)
9d005200:	a00003bc 	sb	zero,956(zero)
9d005204:	a00003c4 	sb	zero,964(zero)
9d005208:	a00003c4 	sb	zero,964(zero)
9d00520c:	a00003cc 	sb	zero,972(zero)
9d005210:	a00003cc 	sb	zero,972(zero)
9d005214:	a00003d4 	sb	zero,980(zero)
9d005218:	a00003d4 	sb	zero,980(zero)
9d00521c:	a00003dc 	sb	zero,988(zero)
9d005220:	a00003dc 	sb	zero,988(zero)
9d005224:	a00003e4 	sb	zero,996(zero)
9d005228:	a00003e4 	sb	zero,996(zero)
9d00522c:	a00003ec 	sb	zero,1004(zero)
9d005230:	a00003ec 	sb	zero,1004(zero)
9d005234:	a00003f4 	sb	zero,1012(zero)
9d005238:	a00003f4 	sb	zero,1012(zero)
9d00523c:	a00003fc 	sb	zero,1020(zero)
9d005240:	a00003fc 	sb	zero,1020(zero)
9d005244:	a0000404 	sb	zero,1028(zero)
9d005248:	a0000404 	sb	zero,1028(zero)
9d00524c:	a000040c 	sb	zero,1036(zero)
9d005250:	a000040c 	sb	zero,1036(zero)
9d005254:	a0000414 	sb	zero,1044(zero)
9d005258:	a0000414 	sb	zero,1044(zero)
9d00525c:	a000041c 	sb	zero,1052(zero)
9d005260:	a000041c 	sb	zero,1052(zero)
9d005264:	a0000424 	sb	zero,1060(zero)
9d005268:	a0000424 	sb	zero,1060(zero)
9d00526c:	a000042c 	sb	zero,1068(zero)
9d005270:	a000042c 	sb	zero,1068(zero)
9d005274:	a0000434 	sb	zero,1076(zero)
9d005278:	a0000434 	sb	zero,1076(zero)
9d00527c:	a00005a0 	sb	zero,1440(zero)
9d005280:	00000034 	teq	zero,zero
9d005284:	00000000 	nop
9d005288:	a0000020 	sb	zero,32(zero)
9d00528c:	00000004 	sllv	zero,zero,zero
9d005290:	00000000 	nop
9d005294:	a00005f8 	sb	zero,1528(zero)
9d005298:	00000020 	add	zero,zero,zero
9d00529c:	00000001 	movf	zero,zero,$fcc0
9d0052a0:	00000000 	nop
9d0052a4:	ffffffff 	sdc3	$31,-1(ra)
	...
9d0052c0:	a000061c 	sb	zero,1564(zero)
9d0052c4:	00000004 	sllv	zero,zero,zero
9d0052c8:	00000000 	nop
9d0052cc:	a00005d4 	sb	zero,1492(zero)
9d0052d0:	00000024 	and	zero,zero,zero
9d0052d4:	00000000 	nop
9d0052d8:	a0000008 	sb	zero,8(zero)
9d0052dc:	00000004 	sllv	zero,zero,zero
9d0052e0:	00000001 	movf	zero,zero,$fcc0
9d0052e4:	00000002 	srl	zero,zero,0x0
9d0052e8:	00000000 	nop

Disassembly of section .text.realloc:

9d0052ec <realloc>:
9d0052ec:	27bdffc8 	addiu	sp,sp,-56
9d0052f0:	afbf0034 	sw	ra,52(sp)
9d0052f4:	afbe0030 	sw	s8,48(sp)
9d0052f8:	afb7002c 	sw	s7,44(sp)
9d0052fc:	afb60028 	sw	s6,40(sp)
9d005300:	afb50024 	sw	s5,36(sp)
9d005304:	afb40020 	sw	s4,32(sp)
9d005308:	afb3001c 	sw	s3,28(sp)
9d00530c:	afb20018 	sw	s2,24(sp)
9d005310:	afb10014 	sw	s1,20(sp)
9d005314:	afb00010 	sw	s0,16(sp)
9d005318:	108000e5 	beqz	a0,9d0056b0 <realloc+0x3c4>
9d00531c:	00808021 	move	s0,a0
9d005320:	8c94fffc 	lw	s4,-4(a0)
9d005324:	24b2000b 	addiu	s2,a1,11
9d005328:	2e420017 	sltiu	v0,s2,23
9d00532c:	2493fff8 	addiu	s3,a0,-8
9d005330:	2403fffc 	li	v1,-4
9d005334:	10400047 	beqz	v0,9d005454 <realloc+0x168>
9d005338:	02838824 	and	s1,s4,v1
9d00533c:	24030010 	li	v1,16
9d005340:	24120010 	li	s2,16
9d005344:	0245102b 	sltu	v0,s2,a1
9d005348:	14400045 	bnez	v0,9d005460 <realloc+0x174>
9d00534c:	0223102a 	slt	v0,s1,v1
9d005350:	10400053 	beqz	v0,9d0054a0 <realloc+0x1b4>
9d005354:	32950001 	andi	s5,s4,0x1
9d005358:	3c17a000 	lui	s7,0xa000
9d00535c:	26f7003c 	addiu	s7,s7,60
9d005360:	8ee40008 	lw	a0,8(s7)
9d005364:	02711021 	addu	v0,s3,s1
9d005368:	108200b6 	beq	a0,v0,9d005644 <realloc+0x358>
9d00536c:	2408fffe 	li	t0,-2
9d005370:	8c460004 	lw	a2,4(v0)
9d005374:	00c83824 	and	a3,a2,t0
9d005378:	00473821 	addu	a3,v0,a3
9d00537c:	8ce70004 	lw	a3,4(a3)
9d005380:	30e70001 	andi	a3,a3,0x1
9d005384:	10e0005e 	beqz	a3,9d005500 <realloc+0x214>
9d005388:	7c060804 	ins	a2,zero,0x0,0x2
9d00538c:	00003021 	move	a2,zero
9d005390:	00001021 	move	v0,zero
9d005394:	32950001 	andi	s5,s4,0x1
9d005398:	16a00073 	bnez	s5,9d005568 <realloc+0x27c>
9d00539c:	00000000 	nop
9d0053a0:	8e16fff8 	lw	s6,-8(s0)
9d0053a4:	0276b023 	subu	s6,s3,s6
9d0053a8:	8ec70004 	lw	a3,4(s6)
9d0053ac:	104000c9 	beqz	v0,9d0056d4 <realloc+0x3e8>
9d0053b0:	7c070804 	ins	a3,zero,0x0,0x2
9d0053b4:	104400c9 	beq	v0,a0,9d0056dc <realloc+0x3f0>
9d0053b8:	00f13821 	addu	a3,a3,s1
9d0053bc:	00c7b821 	addu	s7,a2,a3
9d0053c0:	02e3202a 	slt	a0,s7,v1
9d0053c4:	5480008d 	bnezl	a0,9d0055fc <realloc+0x310>
9d0053c8:	00e0b821 	move	s7,a3
9d0053cc:	8c43000c 	lw	v1,12(v0)
9d0053d0:	8c420008 	lw	v0,8(v0)
9d0053d4:	2626fffc 	addiu	a2,s1,-4
9d0053d8:	2cc40025 	sltiu	a0,a2,37
9d0053dc:	ac43000c 	sw	v1,12(v0)
9d0053e0:	ac620008 	sw	v0,8(v1)
9d0053e4:	8ec2000c 	lw	v0,12(s6)
9d0053e8:	8ec30008 	lw	v1,8(s6)
9d0053ec:	26d40008 	addiu	s4,s6,8
9d0053f0:	ac62000c 	sw	v0,12(v1)
9d0053f4:	1080008b 	beqz	a0,9d005624 <realloc+0x338>
9d0053f8:	ac430008 	sw	v1,8(v0)
9d0053fc:	2cc20014 	sltiu	v0,a2,20
9d005400:	14400009 	bnez	v0,9d005428 <realloc+0x13c>
9d005404:	02801821 	move	v1,s4
9d005408:	8e030000 	lw	v1,0(s0)
9d00540c:	2cc2001c 	sltiu	v0,a2,28
9d005410:	aec30008 	sw	v1,8(s6)
9d005414:	8e030004 	lw	v1,4(s0)
9d005418:	104000e8 	beqz	v0,9d0057bc <realloc+0x4d0>
9d00541c:	aec3000c 	sw	v1,12(s6)
9d005420:	26c30010 	addiu	v1,s6,16
9d005424:	26100008 	addiu	s0,s0,8
9d005428:	8e020000 	lw	v0,0(s0)
9d00542c:	02e08821 	move	s1,s7
9d005430:	ac620000 	sw	v0,0(v1)
9d005434:	8e020004 	lw	v0,4(s0)
9d005438:	02c09821 	move	s3,s6
9d00543c:	ac620004 	sw	v0,4(v1)
9d005440:	8e020008 	lw	v0,8(s0)
9d005444:	ac620008 	sw	v0,8(v1)
9d005448:	8ed50004 	lw	s5,4(s6)
9d00544c:	0b401529 	j	9d0054a4 <realloc+0x1b8>
9d005450:	32b50001 	andi	s5,s5,0x1
9d005454:	7c121004 	ins	s2,zero,0x0,0x3
9d005458:	0641ffba 	bgez	s2,9d005344 <realloc+0x58>
9d00545c:	02401821 	move	v1,s2
9d005460:	2403000c 	li	v1,12
9d005464:	3c02a000 	lui	v0,0xa000
9d005468:	ac430020 	sw	v1,32(v0)
9d00546c:	00001021 	move	v0,zero
9d005470:	8fbf0034 	lw	ra,52(sp)
9d005474:	8fbe0030 	lw	s8,48(sp)
9d005478:	8fb7002c 	lw	s7,44(sp)
9d00547c:	8fb60028 	lw	s6,40(sp)
9d005480:	8fb50024 	lw	s5,36(sp)
9d005484:	8fb40020 	lw	s4,32(sp)
9d005488:	8fb3001c 	lw	s3,28(sp)
9d00548c:	8fb20018 	lw	s2,24(sp)
9d005490:	8fb10014 	lw	s1,20(sp)
9d005494:	8fb00010 	lw	s0,16(sp)
9d005498:	03e00008 	jr	ra
9d00549c:	27bd0038 	addiu	sp,sp,56
9d0054a0:	0200a021 	move	s4,s0
9d0054a4:	02321823 	subu	v1,s1,s2
9d0054a8:	2c650010 	sltiu	a1,v1,16
9d0054ac:	10a00022 	beqz	a1,9d005538 <realloc+0x24c>
9d0054b0:	02722021 	addu	a0,s3,s2
9d0054b4:	02b1a825 	or	s5,s5,s1
9d0054b8:	ae750004 	sw	s5,4(s3)
9d0054bc:	02718821 	addu	s1,s3,s1
9d0054c0:	8e220004 	lw	v0,4(s1)
9d0054c4:	34420001 	ori	v0,v0,0x1
9d0054c8:	ae220004 	sw	v0,4(s1)
9d0054cc:	02801021 	move	v0,s4
9d0054d0:	8fbf0034 	lw	ra,52(sp)
9d0054d4:	8fbe0030 	lw	s8,48(sp)
9d0054d8:	8fb7002c 	lw	s7,44(sp)
9d0054dc:	8fb60028 	lw	s6,40(sp)
9d0054e0:	8fb50024 	lw	s5,36(sp)
9d0054e4:	8fb40020 	lw	s4,32(sp)
9d0054e8:	8fb3001c 	lw	s3,28(sp)
9d0054ec:	8fb20018 	lw	s2,24(sp)
9d0054f0:	8fb10014 	lw	s1,20(sp)
9d0054f4:	8fb00010 	lw	s0,16(sp)
9d0054f8:	03e00008 	jr	ra
9d0054fc:	27bd0038 	addiu	sp,sp,56
9d005500:	00d13821 	addu	a3,a2,s1
9d005504:	00e3402a 	slt	t0,a3,v1
9d005508:	1500ffa3 	bnez	t0,9d005398 <realloc+0xac>
9d00550c:	32950001 	andi	s5,s4,0x1
9d005510:	8c43000c 	lw	v1,12(v0)
9d005514:	8c420008 	lw	v0,8(v0)
9d005518:	ac43000c 	sw	v1,12(v0)
9d00551c:	00e08821 	move	s1,a3
9d005520:	ac620008 	sw	v0,8(v1)
9d005524:	02321823 	subu	v1,s1,s2
9d005528:	2c650010 	sltiu	a1,v1,16
9d00552c:	14a0ffe1 	bnez	a1,9d0054b4 <realloc+0x1c8>
9d005530:	0200a021 	move	s4,s0
9d005534:	02722021 	addu	a0,s3,s2
9d005538:	02b29025 	or	s2,s5,s2
9d00553c:	34620001 	ori	v0,v1,0x1
9d005540:	ae720004 	sw	s2,4(s3)
9d005544:	00831821 	addu	v1,a0,v1
9d005548:	ac820004 	sw	v0,4(a0)
9d00554c:	8c620004 	lw	v0,4(v1)
9d005550:	24840008 	addiu	a0,a0,8
9d005554:	34420001 	ori	v0,v0,0x1
9d005558:	0f402242 	jal	9d008908 <free>
9d00555c:	ac620004 	sw	v0,4(v1)
9d005560:	0b401534 	j	9d0054d0 <realloc+0x1e4>
9d005564:	02801021 	move	v0,s4
9d005568:	0f400fd7 	jal	9d003f5c <.LFE10>
9d00556c:	00a02021 	move	a0,a1
9d005570:	104000ad 	beqz	v0,9d005828 <realloc+0x53c>
9d005574:	0040b021 	move	s6,v0
9d005578:	7c140004 	ins	s4,zero,0x0,0x1
9d00557c:	2442fff8 	addiu	v0,v0,-8
9d005580:	0274a021 	addu	s4,s3,s4
9d005584:	10540088 	beq	v0,s4,9d0057a8 <realloc+0x4bc>
9d005588:	2626fffc 	addiu	a2,s1,-4
9d00558c:	2cc20025 	sltiu	v0,a2,37
9d005590:	1040004b 	beqz	v0,9d0056c0 <realloc+0x3d4>
9d005594:	2cc20014 	sltiu	v0,a2,20
9d005598:	50400033 	beqzl	v0,9d005668 <realloc+0x37c>
9d00559c:	8e040000 	lw	a0,0(s0)
9d0055a0:	02c01021 	move	v0,s6
9d0055a4:	02001821 	move	v1,s0
9d0055a8:	8c650000 	lw	a1,0(v1)
9d0055ac:	8c640004 	lw	a0,4(v1)
9d0055b0:	8c630008 	lw	v1,8(v1)
9d0055b4:	ac450000 	sw	a1,0(v0)
9d0055b8:	ac440004 	sw	a0,4(v0)
9d0055bc:	ac430008 	sw	v1,8(v0)
9d0055c0:	0f402242 	jal	9d008908 <free>
9d0055c4:	02002021 	move	a0,s0
9d0055c8:	02c01021 	move	v0,s6
9d0055cc:	8fbf0034 	lw	ra,52(sp)
9d0055d0:	8fbe0030 	lw	s8,48(sp)
9d0055d4:	8fb7002c 	lw	s7,44(sp)
9d0055d8:	8fb60028 	lw	s6,40(sp)
9d0055dc:	8fb50024 	lw	s5,36(sp)
9d0055e0:	8fb40020 	lw	s4,32(sp)
9d0055e4:	8fb3001c 	lw	s3,28(sp)
9d0055e8:	8fb20018 	lw	s2,24(sp)
9d0055ec:	8fb10014 	lw	s1,20(sp)
9d0055f0:	8fb00010 	lw	s0,16(sp)
9d0055f4:	03e00008 	jr	ra
9d0055f8:	27bd0038 	addiu	sp,sp,56
9d0055fc:	02e3182a 	slt	v1,s7,v1
9d005600:	1460ffd9 	bnez	v1,9d005568 <realloc+0x27c>
9d005604:	2626fffc 	addiu	a2,s1,-4
9d005608:	8ec2000c 	lw	v0,12(s6)
9d00560c:	8ec30008 	lw	v1,8(s6)
9d005610:	2cc40025 	sltiu	a0,a2,37
9d005614:	ac62000c 	sw	v0,12(v1)
9d005618:	26d40008 	addiu	s4,s6,8
9d00561c:	1480ff77 	bnez	a0,9d0053fc <realloc+0x110>
9d005620:	ac430008 	sw	v1,8(v0)
9d005624:	02802021 	move	a0,s4
9d005628:	0f402c80 	jal	9d00b200 <memmove>
9d00562c:	02002821 	move	a1,s0
9d005630:	8ed50004 	lw	s5,4(s6)
9d005634:	02e08821 	move	s1,s7
9d005638:	32b50001 	andi	s5,s5,0x1
9d00563c:	0b401529 	j	9d0054a4 <realloc+0x1b8>
9d005640:	02c09821 	move	s3,s6
9d005644:	8c860004 	lw	a2,4(a0)
9d005648:	26470010 	addiu	a3,s2,16
9d00564c:	7c060804 	ins	a2,zero,0x0,0x2
9d005650:	00d11021 	addu	v0,a2,s1
9d005654:	0047382a 	slt	a3,v0,a3
9d005658:	50e0000b 	beqzl	a3,9d005688 <realloc+0x39c>
9d00565c:	00521023 	subu	v0,v0,s2
9d005660:	0b4014e5 	j	9d005394 <realloc+0xa8>
9d005664:	00801021 	move	v0,a0
9d005668:	8e030004 	lw	v1,4(s0)
9d00566c:	2cc2001c 	sltiu	v0,a2,28
9d005670:	aec40000 	sw	a0,0(s6)
9d005674:	10400042 	beqz	v0,9d005780 <realloc+0x494>
9d005678:	aec30004 	sw	v1,4(s6)
9d00567c:	26c20008 	addiu	v0,s6,8
9d005680:	0b40156a 	j	9d0055a8 <realloc+0x2bc>
9d005684:	26030008 	addiu	v1,s0,8
9d005688:	02729821 	addu	s3,s3,s2
9d00568c:	34420001 	ori	v0,v0,0x1
9d005690:	aef30008 	sw	s3,8(s7)
9d005694:	ae620004 	sw	v0,4(s3)
9d005698:	8e03fffc 	lw	v1,-4(s0)
9d00569c:	02001021 	move	v0,s0
9d0056a0:	30630001 	andi	v1,v1,0x1
9d0056a4:	02439025 	or	s2,s2,v1
9d0056a8:	0b401534 	j	9d0054d0 <realloc+0x1e4>
9d0056ac:	ae12fffc 	sw	s2,-4(s0)
9d0056b0:	0f400fd7 	jal	9d003f5c <.LFE10>
9d0056b4:	00a02021 	move	a0,a1
9d0056b8:	0b401535 	j	9d0054d4 <realloc+0x1e8>
9d0056bc:	8fbf0034 	lw	ra,52(sp)
9d0056c0:	02c02021 	move	a0,s6
9d0056c4:	0f402c80 	jal	9d00b200 <memmove>
9d0056c8:	02002821 	move	a1,s0
9d0056cc:	0b401570 	j	9d0055c0 <realloc+0x2d4>
9d0056d0:	00000000 	nop
9d0056d4:	0b40157f 	j	9d0055fc <realloc+0x310>
9d0056d8:	00f1b821 	addu	s7,a3,s1
9d0056dc:	00c7f021 	addu	s8,a2,a3
9d0056e0:	26420010 	addiu	v0,s2,16
9d0056e4:	03c2102a 	slt	v0,s8,v0
9d0056e8:	5440ffc4 	bnezl	v0,9d0055fc <realloc+0x310>
9d0056ec:	00e0b821 	move	s7,a3
9d0056f0:	8ec3000c 	lw	v1,12(s6)
9d0056f4:	8ec50008 	lw	a1,8(s6)
9d0056f8:	2626fffc 	addiu	a2,s1,-4
9d0056fc:	2cc20025 	sltiu	v0,a2,37
9d005700:	aca3000c 	sw	v1,12(a1)
9d005704:	26c70008 	addiu	a3,s6,8
9d005708:	10400042 	beqz	v0,9d005814 <realloc+0x528>
9d00570c:	ac650008 	sw	a1,8(v1)
9d005710:	2cc20014 	sltiu	v0,a2,20
9d005714:	14400009 	bnez	v0,9d00573c <realloc+0x450>
9d005718:	00e01821 	move	v1,a3
9d00571c:	8e030000 	lw	v1,0(s0)
9d005720:	2cc2001c 	sltiu	v0,a2,28
9d005724:	aec30008 	sw	v1,8(s6)
9d005728:	8e030004 	lw	v1,4(s0)
9d00572c:	10400040 	beqz	v0,9d005830 <realloc+0x544>
9d005730:	aec3000c 	sw	v1,12(s6)
9d005734:	26c30010 	addiu	v1,s6,16
9d005738:	26100008 	addiu	s0,s0,8
9d00573c:	8e020000 	lw	v0,0(s0)
9d005740:	ac620000 	sw	v0,0(v1)
9d005744:	8e020004 	lw	v0,4(s0)
9d005748:	ac620004 	sw	v0,4(v1)
9d00574c:	8e020008 	lw	v0,8(s0)
9d005750:	ac620008 	sw	v0,8(v1)
9d005754:	03d21023 	subu	v0,s8,s2
9d005758:	02d21821 	addu	v1,s6,s2
9d00575c:	34420001 	ori	v0,v0,0x1
9d005760:	aee30008 	sw	v1,8(s7)
9d005764:	ac620004 	sw	v0,4(v1)
9d005768:	8ec30004 	lw	v1,4(s6)
9d00576c:	00e01021 	move	v0,a3
9d005770:	30630001 	andi	v1,v1,0x1
9d005774:	02439025 	or	s2,s2,v1
9d005778:	0b401534 	j	9d0054d0 <realloc+0x1e4>
9d00577c:	aed20004 	sw	s2,4(s6)
9d005780:	8e030008 	lw	v1,8(s0)
9d005784:	8e02000c 	lw	v0,12(s0)
9d005788:	aec30008 	sw	v1,8(s6)
9d00578c:	aec2000c 	sw	v0,12(s6)
9d005790:	24020024 	li	v0,36
9d005794:	50c20013 	beql	a2,v0,9d0057e4 <realloc+0x4f8>
9d005798:	8e030010 	lw	v1,16(s0)
9d00579c:	26c20010 	addiu	v0,s6,16
9d0057a0:	0b40156a 	j	9d0055a8 <realloc+0x2bc>
9d0057a4:	26030010 	addiu	v1,s0,16
9d0057a8:	8ec2fffc 	lw	v0,-4(s6)
9d0057ac:	0200a021 	move	s4,s0
9d0057b0:	7c020804 	ins	v0,zero,0x0,0x2
9d0057b4:	0b401529 	j	9d0054a4 <realloc+0x1b8>
9d0057b8:	02228821 	addu	s1,s1,v0
9d0057bc:	8e020008 	lw	v0,8(s0)
9d0057c0:	aec20010 	sw	v0,16(s6)
9d0057c4:	8e02000c 	lw	v0,12(s0)
9d0057c8:	aec20014 	sw	v0,20(s6)
9d0057cc:	24020024 	li	v0,36
9d0057d0:	50c2000a 	beql	a2,v0,9d0057fc <realloc+0x510>
9d0057d4:	8e020010 	lw	v0,16(s0)
9d0057d8:	26c30018 	addiu	v1,s6,24
9d0057dc:	0b40150a 	j	9d005428 <realloc+0x13c>
9d0057e0:	26100010 	addiu	s0,s0,16
9d0057e4:	8e040014 	lw	a0,20(s0)
9d0057e8:	26c20018 	addiu	v0,s6,24
9d0057ec:	aec30010 	sw	v1,16(s6)
9d0057f0:	26030018 	addiu	v1,s0,24
9d0057f4:	0b40156a 	j	9d0055a8 <realloc+0x2bc>
9d0057f8:	aec40014 	sw	a0,20(s6)
9d0057fc:	26c30020 	addiu	v1,s6,32
9d005800:	aec20018 	sw	v0,24(s6)
9d005804:	8e020014 	lw	v0,20(s0)
9d005808:	26100018 	addiu	s0,s0,24
9d00580c:	0b40150a 	j	9d005428 <realloc+0x13c>
9d005810:	aec2001c 	sw	v0,28(s6)
9d005814:	00e02021 	move	a0,a3
9d005818:	0f402c80 	jal	9d00b200 <memmove>
9d00581c:	02002821 	move	a1,s0
9d005820:	0b4015d5 	j	9d005754 <realloc+0x468>
9d005824:	00403821 	move	a3,v0
9d005828:	0b401534 	j	9d0054d0 <realloc+0x1e4>
9d00582c:	00001021 	move	v0,zero
9d005830:	8e020008 	lw	v0,8(s0)
9d005834:	aec20010 	sw	v0,16(s6)
9d005838:	8e02000c 	lw	v0,12(s0)
9d00583c:	aec20014 	sw	v0,20(s6)
9d005840:	24020024 	li	v0,36
9d005844:	50c20004 	beql	a2,v0,9d005858 <realloc+0x56c>
9d005848:	8e020010 	lw	v0,16(s0)
9d00584c:	26c30018 	addiu	v1,s6,24
9d005850:	0b4015cf 	j	9d00573c <realloc+0x450>
9d005854:	26100010 	addiu	s0,s0,16
9d005858:	26c30020 	addiu	v1,s6,32
9d00585c:	aec20018 	sw	v0,24(s6)
9d005860:	8e020014 	lw	v0,20(s0)
9d005864:	26100018 	addiu	s0,s0,24
9d005868:	0b4015cf 	j	9d00573c <realloc+0x450>
9d00586c:	aec2001c 	sw	v0,28(s6)

Disassembly of section .text.dp32mul:

9d005870 <__divdf3>:
9d005870:	00055040 000a5542 00054ac0 00047d42     @P..BU...J..B}..
9d005880:	012f4825 000442c0 3c0e8000 012e4825     %H/..B.....<%H..
9d005890:	00076840 000d6d42 000762c0 00067d42     @h..Bm...b..B}..
9d0058a0:	018f6025 00065ac0 018e6025 00a72826     %`...Z..%`..&(..
9d0058b0:	00ae2824 254fffff 2de107fe 102000cb     $(....O%...-.. .
9d0058c0:	00000000                                ....

9d0058c4 <Dlab1>:
9d0058c4:	25afffff 	addiu	t7,t5,-1
9d0058c8:	2de107fe 	sltiu	at,t7,2046
9d0058cc:	102000f4 	beqz	at,9d005ca0 <DspecB>
9d0058d0:	00000000 	nop

9d0058d4 <Dlab2>:
9d0058d4:	014d5023 	subu	t2,t2,t5
9d0058d8:	254a03ff 	addiu	t2,t2,1023
9d0058dc:	00084042 	srl	t0,t0,0x1
9d0058e0:	00097fc0 	sll	t7,t1,0x1f
9d0058e4:	010f4025 	or	t0,t0,t7
9d0058e8:	00094842 	srl	t1,t1,0x1
9d0058ec:	000c3c02 	srl	a3,t4,0x10
9d0058f0:	00e001f4 	teq	a3,zero,0x7
9d0058f4:	0127001b 	divu	zero,t1,a3
9d0058f8:	00007012 	mflo	t6
9d0058fc:	00004810 	mfhi	t1
9d005900:	3186ffff 	andi	a2,t4,0xffff
9d005904:	00ce0019 	multu	a2,t6
9d005908:	00002012 	mflo	a0
9d00590c:	00094c00 	sll	t1,t1,0x10
9d005910:	00087c02 	srl	t7,t0,0x10
9d005914:	012f4825 	or	t1,t1,t7
9d005918:	0124782b 	sltu	t7,t1,a0
9d00591c:	11e00006 	beqz	t7,9d005938 <i20>
9d005920:	01244823 	subu	t1,t1,a0

9d005924 <b21>:
9d005924:	25ceffff 	addiu	t6,t6,-1
9d005928:	012c4821 	addu	t1,t1,t4
9d00592c:	012c082b 	sltu	at,t1,t4
9d005930:	1020fffc 	beqz	at,9d005924 <b21>
9d005934:	00000000 	nop

9d005938 <i20>:
9d005938:	00e001f4 	teq	a3,zero,0x7
9d00593c:	0127001b 	divu	zero,t1,a3
9d005940:	00003812 	mflo	a3
9d005944:	00004810 	mfhi	t1
9d005948:	00c70019 	multu	a2,a3
9d00594c:	00002012 	mflo	a0
9d005950:	00094c00 	sll	t1,t1,0x10
9d005954:	310fffff 	andi	t7,t0,0xffff
9d005958:	012f4825 	or	t1,t1,t7
9d00595c:	0124782b 	sltu	t7,t1,a0
9d005960:	11e00006 	beqz	t7,9d00597c <i22>
9d005964:	01244823 	subu	t1,t1,a0

9d005968 <b23>:
9d005968:	24e7ffff 	addiu	a3,a3,-1
9d00596c:	012c4821 	addu	t1,t1,t4
9d005970:	012c082b 	sltu	at,t1,t4
9d005974:	1020fffc 	beqz	at,9d005968 <b23>
9d005978:	00000000 	nop

9d00597c <i22>:
9d00597c:	000e7400 	sll	t6,t6,0x10
9d005980:	01c77021 	addu	t6,t6,a3
9d005984:	01cb0019 	multu	t6,t3
9d005988:	00003812 	mflo	a3
9d00598c:	00002010 	mfhi	a0
9d005990:	24080000 	li	t0,0
9d005994:	0107782b 	sltu	t7,t0,a3
9d005998:	01074023 	subu	t0,t0,a3
9d00599c:	012f102b 	sltu	v0,t1,t7
9d0059a0:	012f4823 	subu	t1,t1,t7
9d0059a4:	0124782b 	sltu	t7,t1,a0
9d0059a8:	01e27825 	or	t7,t7,v0
9d0059ac:	11e0000b 	beqz	t7,9d0059dc <i24>
9d0059b0:	01244823 	subu	t1,t1,a0

9d0059b4 <Dlab3>:
9d0059b4:	25ceffff 	addiu	t6,t6,-1
9d0059b8:	010b4021 	addu	t0,t0,t3
9d0059bc:	010b782b 	sltu	t7,t0,t3
9d0059c0:	012c4821 	addu	t1,t1,t4
9d0059c4:	012f4821 	addu	t1,t1,t7
9d0059c8:	112c0002 	beq	t1,t4,9d0059d4 <L31>
9d0059cc:	00000000 	nop
9d0059d0:	012c782b 	sltu	t7,t1,t4

9d0059d4 <L31>:
9d0059d4:	11e0fff7 	beqz	t7,9d0059b4 <Dlab3>
9d0059d8:	00000000 	nop

9d0059dc <i24>:
9d0059dc:	152c0006 	bne	t1,t4,9d0059f8 <i25>
9d0059e0:	00000000 	nop
9d0059e4:	000b2025 	or	a0,zero,t3
9d0059e8:	00084825 	or	t1,zero,t0
9d0059ec:	240d0000 	li	t5,0
9d0059f0:	1000002a 	b	9d005a9c <e25>
9d0059f4:	000d3825 	or	a3,zero,t5

9d0059f8 <i25>:
9d0059f8:	000c3c02 	srl	a3,t4,0x10
9d0059fc:	00e001f4 	teq	a3,zero,0x7
9d005a00:	0127001b 	divu	zero,t1,a3
9d005a04:	00006812 	mflo	t5
9d005a08:	00004810 	mfhi	t1
9d005a0c:	3186ffff 	andi	a2,t4,0xffff
9d005a10:	00cd0019 	multu	a2,t5
9d005a14:	00002012 	mflo	a0
9d005a18:	00094c00 	sll	t1,t1,0x10
9d005a1c:	00087c02 	srl	t7,t0,0x10
9d005a20:	012f4825 	or	t1,t1,t7
9d005a24:	0124782b 	sltu	t7,t1,a0
9d005a28:	11e00006 	beqz	t7,9d005a44 <i26>
9d005a2c:	01244823 	subu	t1,t1,a0

9d005a30 <b27>:
9d005a30:	25adffff 	addiu	t5,t5,-1
9d005a34:	012c4821 	addu	t1,t1,t4
9d005a38:	012c082b 	sltu	at,t1,t4
9d005a3c:	1020fffc 	beqz	at,9d005a30 <b27>
9d005a40:	00000000 	nop

9d005a44 <i26>:
9d005a44:	00e001f4 	teq	a3,zero,0x7
9d005a48:	0127001b 	divu	zero,t1,a3
9d005a4c:	00003812 	mflo	a3
9d005a50:	00004810 	mfhi	t1
9d005a54:	00c70019 	multu	a2,a3
9d005a58:	00002012 	mflo	a0
9d005a5c:	00094c00 	sll	t1,t1,0x10
9d005a60:	310fffff 	andi	t7,t0,0xffff
9d005a64:	012f4825 	or	t1,t1,t7
9d005a68:	0124782b 	sltu	t7,t1,a0
9d005a6c:	11e00006 	beqz	t7,9d005a88 <i28>
9d005a70:	01244823 	subu	t1,t1,a0

9d005a74 <b29>:
9d005a74:	24e7ffff 	addiu	a3,a3,-1
9d005a78:	012c4821 	addu	t1,t1,t4
9d005a7c:	012c082b 	sltu	at,t1,t4
9d005a80:	1020fffc 	beqz	at,9d005a74 <b29>
9d005a84:	00000000 	nop

9d005a88 <i28>:
9d005a88:	000d6c00 	sll	t5,t5,0x10
9d005a8c:	01a76821 	addu	t5,t5,a3
9d005a90:	01ab0019 	multu	t5,t3
9d005a94:	00003812 	mflo	a3
9d005a98:	00002010 	mfhi	a0

9d005a9c <e25>:
9d005a9c:	24080000 	li	t0,0
9d005aa0:	0107782b 	sltu	t7,t0,a3
9d005aa4:	01074023 	subu	t0,t0,a3
9d005aa8:	012f102b 	sltu	v0,t1,t7
9d005aac:	012f4823 	subu	t1,t1,t7
9d005ab0:	0124782b 	sltu	t7,t1,a0
9d005ab4:	01e27825 	or	t7,t7,v0
9d005ab8:	11e0000b 	beqz	t7,9d005ae8 <i30>
9d005abc:	01244823 	subu	t1,t1,a0

9d005ac0 <Dlab4>:
9d005ac0:	25adffff 	addiu	t5,t5,-1
9d005ac4:	010b4021 	addu	t0,t0,t3
9d005ac8:	010b782b 	sltu	t7,t0,t3
9d005acc:	012c4821 	addu	t1,t1,t4
9d005ad0:	012f4821 	addu	t1,t1,t7
9d005ad4:	112c0002 	beq	t1,t4,9d005ae0 <L32>
9d005ad8:	00000000 	nop
9d005adc:	012c782b 	sltu	t7,t1,t4

9d005ae0 <L32>:
9d005ae0:	11e0fff7 	beqz	t7,9d005ac0 <Dlab4>
9d005ae4:	00000000 	nop

9d005ae8 <i30>:
9d005ae8:	05c00006 	bltz	t6,9d005b04 <i31>
9d005aec:	00000000 	nop
9d005af0:	01a0782a 	slt	t7,t5,zero
9d005af4:	01ad6821 	addu	t5,t5,t5
9d005af8:	01ce7021 	addu	t6,t6,t6
9d005afc:	01cf7021 	addu	t6,t6,t7
9d005b00:	254affff 	addiu	t2,t2,-1

9d005b04 <i31>:
9d005b04:	01287825 	or	t7,t1,t0
9d005b08:	11e00002 	beqz	t7,9d005b14 <i32>
9d005b0c:	00000000 	nop
9d005b10:	35ad0001 	ori	t5,t5,0x1

9d005b14 <i32>:
9d005b14:	000e4825 	or	t1,zero,t6
9d005b18:	000d4025 	or	t0,zero,t5
9d005b1c:	254fffff 	addiu	t7,t2,-1
9d005b20:	2de107fe 	sltiu	at,t7,2046
9d005b24:	10200015 	beqz	at,9d005b7c <Doveund>
9d005b28:	00000000 	nop
9d005b2c:	25080400 	addiu	t0,t0,1024
9d005b30:	2d0f0400 	sltiu	t7,t0,1024
9d005b34:	012f4821 	addu	t1,t1,t7
9d005b38:	012f782b 	sltu	t7,t1,t7
9d005b3c:	014f5021 	addu	t2,t2,t7

9d005b40 <Dlab8>:
9d005b40:	00087ac2 	srl	t7,t0,0xb
9d005b44:	31ef0001 	andi	t7,t7,0x1
9d005b48:	010f4023 	subu	t0,t0,t7
9d005b4c:	000822c2 	srl	a0,t0,0xb
9d005b50:	00097d40 	sll	t7,t1,0x15
9d005b54:	008f2025 	or	a0,a0,t7
9d005b58:	00097840 	sll	t7,t1,0x1
9d005b5c:	000f7b02 	srl	t7,t7,0xc
9d005b60:	00af2825 	or	a1,a1,t7
9d005b64:	000a7d00 	sll	t7,t2,0x14
9d005b68:	00af2825 	or	a1,a1,t7

9d005b6c <Dret>:
9d005b6c:	00041025 	or	v0,zero,a0
9d005b70:	00051825 	or	v1,zero,a1

9d005b74 <D999>:
9d005b74:	03e00008 	jr	ra
9d005b78:	00000000 	nop

9d005b7c <Doveund>:
9d005b7c:	1d400044 	bgtz	t2,9d005c90 <Dinf>
9d005b80:	00000000 	nop
9d005b84:	240e0001 	li	t6,1
9d005b88:	01ca7023 	subu	t6,t6,t2

9d005b8c <L33>:
9d005b8c:	2dc10020 	sltiu	at,t6,32
9d005b90:	14200007 	bnez	at,9d005bb0 <L34>
9d005b94:	00000000 	nop
9d005b98:	21ceffe0 	addi	t6,t6,-32
9d005b9c:	0008202b 	sltu	a0,zero,t0
9d005ba0:	1009000d 	beq	zero,t1,9d005bd8 <L35>
9d005ba4:	01244025 	or	t0,t1,a0
9d005ba8:	1000fff8 	b	9d005b8c <L33>
9d005bac:	34090000 	li	t1,0x0

9d005bb0 <L34>:
9d005bb0:	11c00009 	beqz	t6,9d005bd8 <L35>
9d005bb4:	00000000 	nop
9d005bb8:	000e3022 	neg	a2,t6
9d005bbc:	00c82004 	sllv	a0,t0,a2
9d005bc0:	00c93004 	sllv	a2,t1,a2
9d005bc4:	01c84006 	srlv	t0,t0,t6
9d005bc8:	01c94806 	srlv	t1,t1,t6
9d005bcc:	10800002 	beqz	a0,9d005bd8 <L35>
9d005bd0:	00c84025 	or	t0,a2,t0
9d005bd4:	35080002 	ori	t0,t0,0x2

9d005bd8 <L35>:
9d005bd8:	25080400 	addiu	t0,t0,1024
9d005bdc:	2d0f0400 	sltiu	t7,t0,1024
9d005be0:	012f4821 	addu	t1,t1,t7
9d005be4:	1000ffd6 	b	9d005b40 <Dlab8>
9d005be8:	000957c2 	srl	t2,t1,0x1f

9d005bec <DspecA>:
9d005bec:	0100782a 	slt	t7,t0,zero
9d005bf0:	01084021 	addu	t0,t0,t0
9d005bf4:	01294821 	addu	t1,t1,t1
9d005bf8:	15400017 	bnez	t2,9d005c58 <i33>
9d005bfc:	012f4821 	addu	t1,t1,t7
9d005c00:	01287825 	or	t7,t1,t0
9d005c04:	11e00014 	beqz	t7,9d005c58 <i33>
9d005c08:	00000000 	nop
9d005c0c:	15200008 	bnez	t1,9d005c30 <L36>
9d005c10:	00000000 	nop
9d005c14:	15000003 	bnez	t0,9d005c24 <L37>
9d005c18:	00000000 	nop
9d005c1c:	1000ff29 	b	9d0058c4 <Dlab1>
9d005c20:	240a0000 	li	t2,0

9d005c24 <L37>:
9d005c24:	01004825 	move	t1,t0
9d005c28:	24080000 	li	t0,0
9d005c2c:	254affe0 	addiu	t2,t2,-32

9d005c30 <L36>:
9d005c30:	712e7020 	clz	t6,t1
9d005c34:	11c0ff23 	beqz	t6,9d0058c4 <Dlab1>
9d005c38:	00000000 	nop
9d005c3c:	014e5023 	subu	t2,t2,t6
9d005c40:	000e3022 	neg	a2,t6
9d005c44:	00c83006 	srlv	a2,t0,a2
9d005c48:	01c84004 	sllv	t0,t0,t6
9d005c4c:	01c94804 	sllv	t1,t1,t6
9d005c50:	1000ff1c 	b	9d0058c4 <Dlab1>
9d005c54:	01264825 	or	t1,t1,a2

9d005c58 <i33>:
9d005c58:	154d0005 	bne	t2,t5,9d005c70 <i35>
9d005c5c:	00000000 	nop
9d005c60:	000c7840 	sll	t7,t4,0x1
9d005c64:	01eb7825 	or	t7,t7,t3
9d005c68:	11e0002b 	beqz	t7,9d005d18 <Dnan>
9d005c6c:	00000000 	nop

9d005c70 <i35>:
9d005c70:	240107ff 	li	at,2047
9d005c74:	11a1000a 	beq	t5,at,9d005ca0 <DspecB>
9d005c78:	00000000 	nop
9d005c7c:	1140ffbb 	beqz	t2,9d005b6c <Dret>
9d005c80:	00000000 	nop
9d005c84:	01287825 	or	t7,t1,t0
9d005c88:	15e00023 	bnez	t7,9d005d18 <Dnan>
9d005c8c:	00000000 	nop

9d005c90 <Dinf>:
9d005c90:	3c017ff0 	lui	at,0x7ff0
9d005c94:	00a12825 	or	a1,a1,at
9d005c98:	1000ffb4 	b	9d005b6c <Dret>
9d005c9c:	24040000 	li	a0,0

9d005ca0 <DspecB>:
9d005ca0:	0160782a 	slt	t7,t3,zero
9d005ca4:	016b5821 	addu	t3,t3,t3
9d005ca8:	018c6021 	addu	t4,t4,t4
9d005cac:	15a00017 	bnez	t5,9d005d0c <i36>
9d005cb0:	018f6021 	addu	t4,t4,t7
9d005cb4:	018b7825 	or	t7,t4,t3
9d005cb8:	11e0fff5 	beqz	t7,9d005c90 <Dinf>
9d005cbc:	00000000 	nop
9d005cc0:	15800008 	bnez	t4,9d005ce4 <L39>
9d005cc4:	00000000 	nop
9d005cc8:	15600003 	bnez	t3,9d005cd8 <L40>
9d005ccc:	00000000 	nop
9d005cd0:	1000ff00 	b	9d0058d4 <Dlab2>
9d005cd4:	240d0000 	li	t5,0

9d005cd8 <L40>:
9d005cd8:	01606025 	move	t4,t3
9d005cdc:	240b0000 	li	t3,0
9d005ce0:	25adffe0 	addiu	t5,t5,-32

9d005ce4 <L39>:
9d005ce4:	718e7020 	clz	t6,t4
9d005ce8:	11c0fefa 	beqz	t6,9d0058d4 <Dlab2>
9d005cec:	00000000 	nop
9d005cf0:	01ae6823 	subu	t5,t5,t6
9d005cf4:	000e3022 	neg	a2,t6
9d005cf8:	00cb3006 	srlv	a2,t3,a2
9d005cfc:	01cb5804 	sllv	t3,t3,t6
9d005d00:	01cc6004 	sllv	t4,t4,t6
9d005d04:	1000fef3 	b	9d0058d4 <Dlab2>
9d005d08:	01866025 	or	t4,t4,a2

9d005d0c <i36>:
9d005d0c:	018b7825 	or	t7,t4,t3
9d005d10:	11e00002 	beqz	t7,9d005d1c <i38>
9d005d14:	00000000 	nop

9d005d18 <Dnan>:
9d005d18:	3c05fff8 	lui	a1,0xfff8

9d005d1c <i38>:
9d005d1c:	1000ff93 	b	9d005b6c <Dret>
9d005d20:	24040000 	li	a0,0
9d005d24:	00000000 	nop

Disassembly of section .text:

9d005d28 <__divdi3>:
9d005d28:	04a00052 	bltz	a1,9d005e74 <.LBE15+0x38>
9d005d2c:	00004821 	move	t1,zero
9d005d30:	04e20057 	bltzl	a3,9d005e90 <.LBE15+0x54>
9d005d34:	00063023 	negu	a2,a2

9d005d38 <.LBB13>:
9d005d38:	00c04021 	move	t0,a2
9d005d3c:	00805021 	move	t2,a0
9d005d40:	14e00046 	bnez	a3,9d005e5c <.LBE15+0x20>
9d005d44:	00a01821 	move	v1,a1
9d005d48:	00a6102b 	sltu	v0,a1,a2
9d005d4c:	1040005d 	beqz	v0,9d005ec4 <.LBE15+0x88>
9d005d50:	70c21020 	clz	v0,a2
9d005d54:	50400008 	beqzl	v0,9d005d78 <.LBB15+0x4>
9d005d58:	00082c02 	srl	a1,t0,0x10
9d005d5c:	00022023 	negu	a0,v0
9d005d60:	008a2006 	srlv	a0,t2,a0
9d005d64:	00451804 	sllv	v1,a1,v0
9d005d68:	00464004 	sllv	t0,a2,v0
9d005d6c:	00831825 	or	v1,a0,v1
9d005d70:	004a5004 	sllv	t2,t2,v0

9d005d74 <.LBB15>:
9d005d74:	00082c02 	srl	a1,t0,0x10
9d005d78:	0065001b 	divu	zero,v1,a1
9d005d7c:	00a001f4 	teq	a1,zero,0x7
9d005d80:	00006010 	mfhi	t4
9d005d84:	00005812 	mflo	t3
9d005d88:	3107ffff 	andi	a3,t0,0xffff
9d005d8c:	000a2402 	srl	a0,t2,0x10
9d005d90:	00001012 	mflo	v0
9d005d94:	71673002 	mul	a2,t3,a3
9d005d98:	000c6400 	sll	t4,t4,0x10
9d005d9c:	01842025 	or	a0,t4,a0
9d005da0:	0086602b 	sltu	t4,a0,a2
9d005da4:	0065001b 	divu	zero,v1,a1
9d005da8:	00a001f4 	teq	a1,zero,0x7
9d005dac:	1180000b 	beqz	t4,9d005ddc <.LBB15+0x68>
9d005db0:	00861823 	subu	v1,a0,a2
9d005db4:	00882021 	addu	a0,a0,t0
9d005db8:	0088182b 	sltu	v1,a0,t0
9d005dbc:	14600006 	bnez	v1,9d005dd8 <.LBB15+0x64>
9d005dc0:	2562ffff 	addiu	v0,t3,-1
9d005dc4:	0086182b 	sltu	v1,a0,a2
9d005dc8:	10600004 	beqz	v1,9d005ddc <.LBB15+0x68>
9d005dcc:	00861823 	subu	v1,a0,a2
9d005dd0:	2562fffe 	addiu	v0,t3,-2
9d005dd4:	00882021 	addu	a0,a0,t0
9d005dd8:	00861823 	subu	v1,a0,a2
9d005ddc:	314affff 	andi	t2,t2,0xffff
9d005de0:	0065001b 	divu	zero,v1,a1
9d005de4:	00a001f4 	teq	a1,zero,0x7
9d005de8:	00005810 	mfhi	t3
9d005dec:	00003012 	mflo	a2
9d005df0:	00002012 	mflo	a0
9d005df4:	70c73802 	mul	a3,a2,a3
9d005df8:	000b5c00 	sll	t3,t3,0x10
9d005dfc:	016a5025 	or	t2,t3,t2
9d005e00:	0147582b 	sltu	t3,t2,a3
9d005e04:	0065001b 	divu	zero,v1,a1
9d005e08:	00a001f4 	teq	a1,zero,0x7
9d005e0c:	51600009 	beqzl	t3,9d005e34 <.LBB15+0xc0>
9d005e10:	00021400 	sll	v0,v0,0x10
9d005e14:	01485021 	addu	t2,t2,t0
9d005e18:	0148402b 	sltu	t0,t2,t0
9d005e1c:	15000004 	bnez	t0,9d005e30 <.LBB15+0xbc>
9d005e20:	24c4ffff 	addiu	a0,a2,-1
9d005e24:	0147382b 	sltu	a3,t2,a3
9d005e28:	24c6fffe 	addiu	a2,a2,-2
9d005e2c:	00c7200b 	movn	a0,a2,a3
9d005e30:	00021400 	sll	v0,v0,0x10
9d005e34:	00821025 	or	v0,a0,v0
9d005e38:	00001821 	move	v1,zero

9d005e3c <.LBE15>:
9d005e3c:	11200005 	beqz	t1,9d005e54 <.LBE15+0x18>
9d005e40:	00000000 	nop
9d005e44:	00021023 	negu	v0,v0
9d005e48:	0002202b 	sltu	a0,zero,v0
9d005e4c:	00031823 	negu	v1,v1
9d005e50:	00641823 	subu	v1,v1,a0
9d005e54:	03e00008 	jr	ra
9d005e58:	00000000 	nop
9d005e5c:	00a7102b 	sltu	v0,a1,a3
9d005e60:	10400010 	beqz	v0,9d005ea4 <.LBE15+0x68>
9d005e64:	70e84020 	clz	t0,a3
9d005e68:	00001821 	move	v1,zero
9d005e6c:	0b40178f 	j	9d005e3c <.LBE15>
9d005e70:	00001021 	move	v0,zero
9d005e74:	00042023 	negu	a0,a0
9d005e78:	0004102b 	sltu	v0,zero,a0
9d005e7c:	00052823 	negu	a1,a1
9d005e80:	00a22823 	subu	a1,a1,v0
9d005e84:	04e1ffac 	bgez	a3,9d005d38 <.LBB13>
9d005e88:	2409ffff 	li	t1,-1
9d005e8c:	00063023 	negu	a2,a2
9d005e90:	0006102b 	sltu	v0,zero,a2
9d005e94:	00073823 	negu	a3,a3
9d005e98:	00094827 	nor	t1,zero,t1
9d005e9c:	0b40174e 	j	9d005d38 <.LBB13>
9d005ea0:	00e23823 	subu	a3,a3,v0
9d005ea4:	1500007e 	bnez	t0,9d0060a0 <.LBE16+0xf8>
9d005ea8:	24020020 	li	v0,32
9d005eac:	00e5282b 	sltu	a1,a3,a1
9d005eb0:	14a000c6 	bnez	a1,9d0061cc <.LBE23+0x34>
9d005eb4:	00001821 	move	v1,zero
9d005eb8:	0086102b 	sltu	v0,a0,a2
9d005ebc:	0b40178f 	j	9d005e3c <.LBE15>
9d005ec0:	38420001 	xori	v0,v0,0x1
9d005ec4:	14c00006 	bnez	a2,9d005ee0 <.LBE15+0xa4>
9d005ec8:	71021020 	clz	v0,t0
9d005ecc:	24080001 	li	t0,1
9d005ed0:	0107001b 	divu	zero,t0,a3
9d005ed4:	00e001f4 	teq	a3,zero,0x7
9d005ed8:	00004012 	mflo	t0
9d005edc:	71021020 	clz	v0,t0
9d005ee0:	54400033 	bnezl	v0,9d005fb0 <.LBE16+0x8>
9d005ee4:	00484004 	sllv	t0,t0,v0
9d005ee8:	00a82023 	subu	a0,a1,t0
9d005eec:	00083c02 	srl	a3,t0,0x10
9d005ef0:	310cffff 	andi	t4,t0,0xffff
9d005ef4:	24030001 	li	v1,1

9d005ef8 <.LBB16>:
9d005ef8:	000a3402 	srl	a2,t2,0x10
9d005efc:	0087001b 	divu	zero,a0,a3
9d005f00:	00e001f4 	teq	a3,zero,0x7
9d005f04:	00007010 	mfhi	t6
9d005f08:	00006812 	mflo	t5
9d005f0c:	00001012 	mflo	v0
9d005f10:	71ac5802 	mul	t3,t5,t4
9d005f14:	000e7400 	sll	t6,t6,0x10
9d005f18:	01c63025 	or	a2,t6,a2
9d005f1c:	00cb702b 	sltu	t6,a2,t3
9d005f20:	0087001b 	divu	zero,a0,a3
9d005f24:	00e001f4 	teq	a3,zero,0x7
9d005f28:	11c00009 	beqz	t6,9d005f50 <.LBB16+0x58>
9d005f2c:	00cb2823 	subu	a1,a2,t3
9d005f30:	00c83021 	addu	a2,a2,t0
9d005f34:	00c8202b 	sltu	a0,a2,t0
9d005f38:	14800004 	bnez	a0,9d005f4c <.LBB16+0x54>
9d005f3c:	25a2ffff 	addiu	v0,t5,-1
9d005f40:	00cb202b 	sltu	a0,a2,t3
9d005f44:	548000a3 	bnezl	a0,9d0061d4 <.LBE23+0x3c>
9d005f48:	25a2fffe 	addiu	v0,t5,-2
9d005f4c:	00cb2823 	subu	a1,a2,t3
9d005f50:	314affff 	andi	t2,t2,0xffff
9d005f54:	00a7001b 	divu	zero,a1,a3
9d005f58:	00e001f4 	teq	a3,zero,0x7
9d005f5c:	00005810 	mfhi	t3
9d005f60:	00003012 	mflo	a2
9d005f64:	00002012 	mflo	a0
9d005f68:	70cc6002 	mul	t4,a2,t4
9d005f6c:	000b5c00 	sll	t3,t3,0x10
9d005f70:	016a5025 	or	t2,t3,t2
9d005f74:	014c582b 	sltu	t3,t2,t4
9d005f78:	00a7001b 	divu	zero,a1,a3
9d005f7c:	00e001f4 	teq	a3,zero,0x7
9d005f80:	51600009 	beqzl	t3,9d005fa8 <.LBE16>
9d005f84:	00021400 	sll	v0,v0,0x10
9d005f88:	01485021 	addu	t2,t2,t0
9d005f8c:	0148402b 	sltu	t0,t2,t0
9d005f90:	15000004 	bnez	t0,9d005fa4 <.LBB16+0xac>
9d005f94:	24c4ffff 	addiu	a0,a2,-1
9d005f98:	014c502b 	sltu	t2,t2,t4
9d005f9c:	24c6fffe 	addiu	a2,a2,-2
9d005fa0:	00ca200b 	movn	a0,a2,t2
9d005fa4:	00021400 	sll	v0,v0,0x10

9d005fa8 <.LBE16>:
9d005fa8:	0b40178f 	j	9d005e3c <.LBE15>
9d005fac:	00821025 	or	v0,a0,v0
9d005fb0:	24030020 	li	v1,32
9d005fb4:	00621823 	subu	v1,v1,v0
9d005fb8:	00653006 	srlv	a2,a1,v1
9d005fbc:	00083c02 	srl	a3,t0,0x10
9d005fc0:	00c7001b 	divu	zero,a2,a3
9d005fc4:	00e001f4 	teq	a3,zero,0x7
9d005fc8:	00007810 	mfhi	t7
9d005fcc:	00006812 	mflo	t5
9d005fd0:	310cffff 	andi	t4,t0,0xffff
9d005fd4:	00452804 	sllv	a1,a1,v0
9d005fd8:	00641806 	srlv	v1,a0,v1
9d005fdc:	00652825 	or	a1,v1,a1
9d005fe0:	00057402 	srl	t6,a1,0x10
9d005fe4:	00445004 	sllv	t2,a0,v0
9d005fe8:	00001812 	mflo	v1
9d005fec:	71ac5802 	mul	t3,t5,t4
9d005ff0:	000f1400 	sll	v0,t7,0x10
9d005ff4:	01c21025 	or	v0,t6,v0
9d005ff8:	004b202b 	sltu	a0,v0,t3
9d005ffc:	00c7001b 	divu	zero,a2,a3
9d006000:	00e001f4 	teq	a3,zero,0x7
9d006004:	5080000b 	beqzl	a0,9d006034 <.LBE16+0x8c>
9d006008:	004b1023 	subu	v0,v0,t3
9d00600c:	00481021 	addu	v0,v0,t0
9d006010:	0048202b 	sltu	a0,v0,t0
9d006014:	14800006 	bnez	a0,9d006030 <.LBE16+0x88>
9d006018:	25a3ffff 	addiu	v1,t5,-1
9d00601c:	004b202b 	sltu	a0,v0,t3
9d006020:	50800004 	beqzl	a0,9d006034 <.LBE16+0x8c>
9d006024:	004b1023 	subu	v0,v0,t3
9d006028:	25a3fffe 	addiu	v1,t5,-2
9d00602c:	00481021 	addu	v0,v0,t0
9d006030:	004b1023 	subu	v0,v0,t3
9d006034:	30adffff 	andi	t5,a1,0xffff
9d006038:	0047001b 	divu	zero,v0,a3
9d00603c:	00e001f4 	teq	a3,zero,0x7
9d006040:	00002010 	mfhi	a0
9d006044:	00005812 	mflo	t3
9d006048:	00003012 	mflo	a2
9d00604c:	716c2802 	mul	a1,t3,t4
9d006050:	00042400 	sll	a0,a0,0x10
9d006054:	008d2025 	or	a0,a0,t5
9d006058:	0085682b 	sltu	t5,a0,a1
9d00605c:	0047001b 	divu	zero,v0,a3
9d006060:	00e001f4 	teq	a3,zero,0x7
9d006064:	51a0000b 	beqzl	t5,9d006094 <.LBE16+0xec>
9d006068:	00031c00 	sll	v1,v1,0x10
9d00606c:	00882021 	addu	a0,a0,t0
9d006070:	0088102b 	sltu	v0,a0,t0
9d006074:	14400006 	bnez	v0,9d006090 <.LBE16+0xe8>
9d006078:	2566ffff 	addiu	a2,t3,-1
9d00607c:	0085102b 	sltu	v0,a0,a1
9d006080:	50400004 	beqzl	v0,9d006094 <.LBE16+0xec>
9d006084:	00031c00 	sll	v1,v1,0x10
9d006088:	2566fffe 	addiu	a2,t3,-2
9d00608c:	00882021 	addu	a0,a0,t0
9d006090:	00031c00 	sll	v1,v1,0x10
9d006094:	00852023 	subu	a0,a0,a1
9d006098:	0b4017be 	j	9d005ef8 <.LBB16>
9d00609c:	00c31825 	or	v1,a2,v1
9d0060a0:	00481023 	subu	v0,v0,t0
9d0060a4:	01073804 	sllv	a3,a3,t0
9d0060a8:	00461806 	srlv	v1,a2,v0
9d0060ac:	00673825 	or	a3,v1,a3
9d0060b0:	00455806 	srlv	t3,a1,v0
9d0060b4:	00071c02 	srl	v1,a3,0x10
9d0060b8:	0163001b 	divu	zero,t3,v1
9d0060bc:	006001f4 	teq	v1,zero,0x7
9d0060c0:	00005010 	mfhi	t2
9d0060c4:	00007012 	mflo	t6
9d0060c8:	30ecffff 	andi	t4,a3,0xffff
9d0060cc:	01052804 	sllv	a1,a1,t0
9d0060d0:	00441006 	srlv	v0,a0,v0
9d0060d4:	00452825 	or	a1,v0,a1
9d0060d8:	00057c02 	srl	t7,a1,0x10
9d0060dc:	00001012 	mflo	v0
9d0060e0:	71cc6802 	mul	t5,t6,t4
9d0060e4:	000a5400 	sll	t2,t2,0x10
9d0060e8:	014f5025 	or	t2,t2,t7
9d0060ec:	014d782b 	sltu	t7,t2,t5
9d0060f0:	0163001b 	divu	zero,t3,v1
9d0060f4:	006001f4 	teq	v1,zero,0x7
9d0060f8:	11e0000a 	beqz	t7,9d006124 <.LBE16+0x17c>
9d0060fc:	01063004 	sllv	a2,a2,t0
9d006100:	01475021 	addu	t2,t2,a3
9d006104:	0147582b 	sltu	t3,t2,a3
9d006108:	15600006 	bnez	t3,9d006124 <.LBE16+0x17c>
9d00610c:	25c2ffff 	addiu	v0,t6,-1
9d006110:	014d582b 	sltu	t3,t2,t5
9d006114:	51600004 	beqzl	t3,9d006128 <.LBE16+0x180>
9d006118:	014d5023 	subu	t2,t2,t5
9d00611c:	25c2fffe 	addiu	v0,t6,-2
9d006120:	01475021 	addu	t2,t2,a3
9d006124:	014d5023 	subu	t2,t2,t5
9d006128:	30a5ffff 	andi	a1,a1,0xffff
9d00612c:	0143001b 	divu	zero,t2,v1
9d006130:	006001f4 	teq	v1,zero,0x7
9d006134:	00007010 	mfhi	t6
9d006138:	00006812 	mflo	t5
9d00613c:	00005812 	mflo	t3
9d006140:	71ac6002 	mul	t4,t5,t4
9d006144:	000e7400 	sll	t6,t6,0x10
9d006148:	01c52825 	or	a1,t6,a1
9d00614c:	00ac702b 	sltu	t6,a1,t4
9d006150:	0143001b 	divu	zero,t2,v1
9d006154:	006001f4 	teq	v1,zero,0x7
9d006158:	51c0000b 	beqzl	t6,9d006188 <.LBE16+0x1e0>
9d00615c:	00021400 	sll	v0,v0,0x10
9d006160:	00a72821 	addu	a1,a1,a3
9d006164:	00a7182b 	sltu	v1,a1,a3
9d006168:	14600006 	bnez	v1,9d006184 <.LBE16+0x1dc>
9d00616c:	25abffff 	addiu	t3,t5,-1
9d006170:	00ac182b 	sltu	v1,a1,t4
9d006174:	50600004 	beqzl	v1,9d006188 <.LBE16+0x1e0>
9d006178:	00021400 	sll	v0,v0,0x10
9d00617c:	25abfffe 	addiu	t3,t5,-2
9d006180:	00a72821 	addu	a1,a1,a3
9d006184:	00021400 	sll	v0,v0,0x10
9d006188:	01621025 	or	v0,t3,v0
9d00618c:	00ac2823 	subu	a1,a1,t4

9d006190 <.LBB23>:
9d006190:	00460019 	multu	v0,a2
9d006194:	00003810 	mfhi	a3

9d006198 <.LBE23>:
9d006198:	00a7182b 	sltu	v1,a1,a3
9d00619c:	14600008 	bnez	v1,9d0061c0 <.LBE23+0x28>
9d0061a0:	00003012 	mflo	a2
9d0061a4:	50a70003 	beql	a1,a3,9d0061b4 <.LBE23+0x1c>
9d0061a8:	01042004 	sllv	a0,a0,t0
9d0061ac:	0b40178f 	j	9d005e3c <.LBE15>
9d0061b0:	00001821 	move	v1,zero
9d0061b4:	0086302b 	sltu	a2,a0,a2
9d0061b8:	50c0ff20 	beqzl	a2,9d005e3c <.LBE15>
9d0061bc:	00001821 	move	v1,zero
9d0061c0:	2442ffff 	addiu	v0,v0,-1
9d0061c4:	0b40178f 	j	9d005e3c <.LBE15>
9d0061c8:	00001821 	move	v1,zero
9d0061cc:	0b40178f 	j	9d005e3c <.LBE15>
9d0061d0:	24020001 	li	v0,1
9d0061d4:	0b4017d3 	j	9d005f4c <.LBB16+0x54>
9d0061d8:	00c83021 	addu	a2,a2,t0

9d0061dc <__umoddi3>:
9d0061dc:	00c04021 	move	t0,a2
9d0061e0:	00804821 	move	t1,a0
9d0061e4:	14e0003b 	bnez	a3,9d0062d4 <.LBE15+0xc>
9d0061e8:	00a01821 	move	v1,a1
9d0061ec:	00a6102b 	sltu	v0,a1,a2
9d0061f0:	10400048 	beqz	v0,9d006314 <.LBE16+0x8>
9d0061f4:	70c21020 	clz	v0,a2
9d0061f8:	50400008 	beqzl	v0,9d00621c <.LBB15+0x4>
9d0061fc:	00083402 	srl	a2,t0,0x10
9d006200:	00021823 	negu	v1,v0
9d006204:	00452804 	sllv	a1,a1,v0
9d006208:	00641806 	srlv	v1,a0,v1
9d00620c:	00464004 	sllv	t0,a2,v0
9d006210:	00651825 	or	v1,v1,a1
9d006214:	00444804 	sllv	t1,a0,v0

9d006218 <.LBB15>:
9d006218:	00083402 	srl	a2,t0,0x10
9d00621c:	0066001b 	divu	zero,v1,a2
9d006220:	00c001f4 	teq	a2,zero,0x7
9d006224:	00002010 	mfhi	a0
9d006228:	00005812 	mflo	t3
9d00622c:	310cffff 	andi	t4,t0,0xffff
9d006230:	00095402 	srl	t2,t1,0x10
9d006234:	716c5802 	mul	t3,t3,t4
9d006238:	00042400 	sll	a0,a0,0x10
9d00623c:	008a5025 	or	t2,a0,t2
9d006240:	014b682b 	sltu	t5,t2,t3
9d006244:	0066001b 	divu	zero,v1,a2
9d006248:	00c001f4 	teq	a2,zero,0x7
9d00624c:	51a00009 	beqzl	t5,9d006274 <.LBB15+0x5c>
9d006250:	014b5023 	subu	t2,t2,t3
9d006254:	01485021 	addu	t2,t2,t0
9d006258:	0148182b 	sltu	v1,t2,t0
9d00625c:	54600005 	bnezl	v1,9d006274 <.LBB15+0x5c>
9d006260:	014b5023 	subu	t2,t2,t3
9d006264:	014b202b 	sltu	a0,t2,t3
9d006268:	01481821 	addu	v1,t2,t0
9d00626c:	0064500b 	movn	t2,v1,a0
9d006270:	014b5023 	subu	t2,t2,t3
9d006274:	3123ffff 	andi	v1,t1,0xffff
9d006278:	0146001b 	divu	zero,t2,a2
9d00627c:	00c001f4 	teq	a2,zero,0x7
9d006280:	00004810 	mfhi	t1
9d006284:	00002012 	mflo	a0
9d006288:	708c2002 	mul	a0,a0,t4
9d00628c:	00094c00 	sll	t1,t1,0x10
9d006290:	01234825 	or	t1,t1,v1
9d006294:	0124182b 	sltu	v1,t1,a0
9d006298:	0146001b 	divu	zero,t2,a2
9d00629c:	00c001f4 	teq	a2,zero,0x7
9d0062a0:	50600009 	beqzl	v1,9d0062c8 <.LBE15>
9d0062a4:	01244823 	subu	t1,t1,a0
9d0062a8:	01284821 	addu	t1,t1,t0
9d0062ac:	0128182b 	sltu	v1,t1,t0
9d0062b0:	54600005 	bnezl	v1,9d0062c8 <.LBE15>
9d0062b4:	01244823 	subu	t1,t1,a0
9d0062b8:	0124182b 	sltu	v1,t1,a0
9d0062bc:	01284021 	addu	t0,t1,t0
9d0062c0:	0103480b 	movn	t1,t0,v1
9d0062c4:	01244823 	subu	t1,t1,a0

9d0062c8 <.LBE15>:
9d0062c8:	00491006 	srlv	v0,t1,v0
9d0062cc:	03e00008 	jr	ra
9d0062d0:	00001821 	move	v1,zero
9d0062d4:	00a7102b 	sltu	v0,a1,a3
9d0062d8:	14400047 	bnez	v0,9d0063f8 <.LBE17+0xc>
9d0062dc:	70ea5020 	clz	t2,a3
9d0062e0:	15400048 	bnez	t2,9d006404 <.LBE17+0x18>
9d0062e4:	240b0020 	li	t3,32
9d0062e8:	00e5102b 	sltu	v0,a3,a1
9d0062ec:	14400005 	bnez	v0,9d006304 <.LBB16+0x4>
9d0062f0:	00861023 	subu	v0,a0,a2
9d0062f4:	0086402b 	sltu	t0,a0,a2
9d0062f8:	15000089 	bnez	t0,9d006520 <.LBE24+0x10>
9d0062fc:	00801021 	move	v0,a0

9d006300 <.LBB16>:
9d006300:	00861023 	subu	v0,a0,a2
9d006304:	00a72823 	subu	a1,a1,a3
9d006308:	0082202b 	sltu	a0,a0,v0

9d00630c <.LBE16>:
9d00630c:	03e00008 	jr	ra
9d006310:	00a41823 	subu	v1,a1,a0
9d006314:	14c00006 	bnez	a2,9d006330 <.LBE16+0x24>
9d006318:	71021020 	clz	v0,t0
9d00631c:	24020001 	li	v0,1
9d006320:	0046001b 	divu	zero,v0,a2
9d006324:	00c001f4 	teq	a2,zero,0x7
9d006328:	00004012 	mflo	t0
9d00632c:	71021020 	clz	v0,t0
9d006330:	5440007d 	bnezl	v0,9d006528 <.LBE24+0x18>
9d006334:	00484004 	sllv	t0,t0,v0
9d006338:	00a82823 	subu	a1,a1,t0
9d00633c:	00081c02 	srl	v1,t0,0x10
9d006340:	3107ffff 	andi	a3,t0,0xffff

9d006344 <.LBB17>:
9d006344:	00092402 	srl	a0,t1,0x10
9d006348:	00a3001b 	divu	zero,a1,v1
9d00634c:	006001f4 	teq	v1,zero,0x7
9d006350:	00005010 	mfhi	t2
9d006354:	00003012 	mflo	a2
9d006358:	70c73002 	mul	a2,a2,a3
9d00635c:	000a5400 	sll	t2,t2,0x10
9d006360:	01442025 	or	a0,t2,a0
9d006364:	0086502b 	sltu	t2,a0,a2
9d006368:	00a3001b 	divu	zero,a1,v1
9d00636c:	006001f4 	teq	v1,zero,0x7
9d006370:	51400009 	beqzl	t2,9d006398 <.LBB17+0x54>
9d006374:	00862023 	subu	a0,a0,a2
9d006378:	00882021 	addu	a0,a0,t0
9d00637c:	0088282b 	sltu	a1,a0,t0
9d006380:	54a00005 	bnezl	a1,9d006398 <.LBB17+0x54>
9d006384:	00862023 	subu	a0,a0,a2
9d006388:	0086502b 	sltu	t2,a0,a2
9d00638c:	00882821 	addu	a1,a0,t0
9d006390:	00aa200b 	movn	a0,a1,t2
9d006394:	00862023 	subu	a0,a0,a2
9d006398:	3126ffff 	andi	a2,t1,0xffff
9d00639c:	0083001b 	divu	zero,a0,v1
9d0063a0:	006001f4 	teq	v1,zero,0x7
9d0063a4:	00004810 	mfhi	t1
9d0063a8:	00002812 	mflo	a1
9d0063ac:	70a72802 	mul	a1,a1,a3
9d0063b0:	00094c00 	sll	t1,t1,0x10
9d0063b4:	01264825 	or	t1,t1,a2
9d0063b8:	0125302b 	sltu	a2,t1,a1
9d0063bc:	0083001b 	divu	zero,a0,v1
9d0063c0:	006001f4 	teq	v1,zero,0x7
9d0063c4:	50c00009 	beqzl	a2,9d0063ec <.LBE17>
9d0063c8:	01254823 	subu	t1,t1,a1
9d0063cc:	01284821 	addu	t1,t1,t0
9d0063d0:	0128182b 	sltu	v1,t1,t0
9d0063d4:	54600005 	bnezl	v1,9d0063ec <.LBE17>
9d0063d8:	01254823 	subu	t1,t1,a1
9d0063dc:	0125182b 	sltu	v1,t1,a1
9d0063e0:	01284021 	addu	t0,t1,t0
9d0063e4:	0103480b 	movn	t1,t0,v1
9d0063e8:	01254823 	subu	t1,t1,a1

9d0063ec <.LBE17>:
9d0063ec:	00491006 	srlv	v0,t1,v0
9d0063f0:	03e00008 	jr	ra
9d0063f4:	00001821 	move	v1,zero
9d0063f8:	00801021 	move	v0,a0
9d0063fc:	03e00008 	jr	ra
9d006400:	00a01821 	move	v1,a1
9d006404:	016a5823 	subu	t3,t3,t2
9d006408:	01473804 	sllv	a3,a3,t2
9d00640c:	01661006 	srlv	v0,a2,t3
9d006410:	00473825 	or	a3,v0,a3
9d006414:	01656806 	srlv	t5,a1,t3
9d006418:	00074c02 	srl	t1,a3,0x10
9d00641c:	01a9001b 	divu	zero,t5,t1
9d006420:	012001f4 	teq	t1,zero,0x7
9d006424:	00006010 	mfhi	t4
9d006428:	00001812 	mflo	v1
9d00642c:	30eeffff 	andi	t6,a3,0xffff
9d006430:	01452804 	sllv	a1,a1,t2
9d006434:	01641006 	srlv	v0,a0,t3
9d006438:	00451025 	or	v0,v0,a1
9d00643c:	00022c02 	srl	a1,v0,0x10
9d006440:	01463004 	sllv	a2,a2,t2
9d006444:	00004012 	mflo	t0
9d006448:	706e7802 	mul	t7,v1,t6
9d00644c:	000c6400 	sll	t4,t4,0x10
9d006450:	01856025 	or	t4,t4,a1
9d006454:	018f282b 	sltu	a1,t4,t7
9d006458:	01a9001b 	divu	zero,t5,t1
9d00645c:	012001f4 	teq	t1,zero,0x7
9d006460:	10a0000a 	beqz	a1,9d00648c <.LBE17+0xa0>
9d006464:	01442004 	sllv	a0,a0,t2
9d006468:	01876021 	addu	t4,t4,a3
9d00646c:	0187282b 	sltu	a1,t4,a3
9d006470:	14a00006 	bnez	a1,9d00648c <.LBE17+0xa0>
9d006474:	2468ffff 	addiu	t0,v1,-1
9d006478:	018f282b 	sltu	a1,t4,t7
9d00647c:	50a00004 	beqzl	a1,9d006490 <.LBE17+0xa4>
9d006480:	018f6023 	subu	t4,t4,t7
9d006484:	2468fffe 	addiu	t0,v1,-2
9d006488:	01876021 	addu	t4,t4,a3
9d00648c:	018f6023 	subu	t4,t4,t7
9d006490:	3042ffff 	andi	v0,v0,0xffff
9d006494:	0189001b 	divu	zero,t4,t1
9d006498:	012001f4 	teq	t1,zero,0x7
9d00649c:	00002810 	mfhi	a1
9d0064a0:	00001812 	mflo	v1
9d0064a4:	00006812 	mflo	t5
9d0064a8:	706e7002 	mul	t6,v1,t6
9d0064ac:	00052c00 	sll	a1,a1,0x10
9d0064b0:	00a21025 	or	v0,a1,v0
9d0064b4:	004e282b 	sltu	a1,v0,t6
9d0064b8:	0189001b 	divu	zero,t4,t1
9d0064bc:	012001f4 	teq	t1,zero,0x7
9d0064c0:	50a00006 	beqzl	a1,9d0064dc <.LBE17+0xf0>
9d0064c4:	00084400 	sll	t0,t0,0x10
9d0064c8:	00471021 	addu	v0,v0,a3
9d0064cc:	0047282b 	sltu	a1,v0,a3
9d0064d0:	10a0004c 	beqz	a1,9d006604 <.LBE25>
9d0064d4:	246dffff 	addiu	t5,v1,-1
9d0064d8:	00084400 	sll	t0,t0,0x10
9d0064dc:	01a84025 	or	t0,t5,t0
9d0064e0:	004e1023 	subu	v0,v0,t6
9d0064e4:	01060019 	multu	t0,a2
9d0064e8:	00004810 	mfhi	t1
9d0064ec:	0049182b 	sltu	v1,v0,t1
9d0064f0:	1460003e 	bnez	v1,9d0065ec <.LBB25>
9d0064f4:	00004012 	mflo	t0
9d0064f8:	1049004b 	beq	v0,t1,9d006628 <.LBE25+0x24>
9d0064fc:	00491823 	subu	v1,v0,t1
9d006500:	00003012 	mflo	a2

9d006504 <.LBB24>:
9d006504:	00863023 	subu	a2,a0,a2
9d006508:	0086202b 	sltu	a0,a0,a2
9d00650c:	00641823 	subu	v1,v1,a0

9d006510 <.LBE24>:
9d006510:	01631004 	sllv	v0,v1,t3
9d006514:	01463006 	srlv	a2,a2,t2
9d006518:	00461025 	or	v0,v0,a2
9d00651c:	01431806 	srlv	v1,v1,t2
9d006520:	03e00008 	jr	ra
9d006524:	00000000 	nop
9d006528:	24090020 	li	t1,32
9d00652c:	01224823 	subu	t1,t1,v0
9d006530:	01255006 	srlv	t2,a1,t1
9d006534:	00081c02 	srl	v1,t0,0x10
9d006538:	0143001b 	divu	zero,t2,v1
9d00653c:	006001f4 	teq	v1,zero,0x7
9d006540:	00003010 	mfhi	a2
9d006544:	00005812 	mflo	t3
9d006548:	3107ffff 	andi	a3,t0,0xffff
9d00654c:	00452804 	sllv	a1,a1,v0
9d006550:	01244806 	srlv	t1,a0,t1
9d006554:	01252825 	or	a1,t1,a1
9d006558:	00056402 	srl	t4,a1,0x10
9d00655c:	00444804 	sllv	t1,a0,v0
9d006560:	71675802 	mul	t3,t3,a3
9d006564:	00063400 	sll	a2,a2,0x10
9d006568:	01863025 	or	a2,t4,a2
9d00656c:	00cb202b 	sltu	a0,a2,t3
9d006570:	0143001b 	divu	zero,t2,v1
9d006574:	006001f4 	teq	v1,zero,0x7
9d006578:	50800006 	beqzl	a0,9d006594 <.LBE24+0x84>
9d00657c:	00cb3023 	subu	a2,a2,t3
9d006580:	00c83021 	addu	a2,a2,t0
9d006584:	00c8202b 	sltu	a0,a2,t0
9d006588:	10800024 	beqz	a0,9d00661c <.LBE25+0x18>
9d00658c:	00cb502b 	sltu	t2,a2,t3
9d006590:	00cb3023 	subu	a2,a2,t3
9d006594:	30aaffff 	andi	t2,a1,0xffff
9d006598:	00c3001b 	divu	zero,a2,v1
9d00659c:	006001f4 	teq	v1,zero,0x7
9d0065a0:	00002010 	mfhi	a0
9d0065a4:	00002812 	mflo	a1
9d0065a8:	70a72802 	mul	a1,a1,a3
9d0065ac:	00042400 	sll	a0,a0,0x10
9d0065b0:	008a2025 	or	a0,a0,t2
9d0065b4:	0085502b 	sltu	t2,a0,a1
9d0065b8:	00c3001b 	divu	zero,a2,v1
9d0065bc:	006001f4 	teq	v1,zero,0x7
9d0065c0:	5140ff60 	beqzl	t2,9d006344 <.LBB17>
9d0065c4:	00852823 	subu	a1,a0,a1
9d0065c8:	00882021 	addu	a0,a0,t0
9d0065cc:	0088302b 	sltu	a2,a0,t0
9d0065d0:	54c0ff5c 	bnezl	a2,9d006344 <.LBB17>
9d0065d4:	00852823 	subu	a1,a0,a1
9d0065d8:	0085502b 	sltu	t2,a0,a1
9d0065dc:	00883021 	addu	a2,a0,t0
9d0065e0:	00ca200b 	movn	a0,a2,t2
9d0065e4:	0b4018d1 	j	9d006344 <.LBB17>
9d0065e8:	00852823 	subu	a1,a0,a1

9d0065ec <.LBB25>:
9d0065ec:	01063023 	subu	a2,t0,a2
9d0065f0:	01271823 	subu	v1,t1,a3
9d0065f4:	0106402b 	sltu	t0,t0,a2
9d0065f8:	00681823 	subu	v1,v1,t0
9d0065fc:	0b401941 	j	9d006504 <.LBB24>
9d006600:	00431823 	subu	v1,v0,v1

9d006604 <.LBE25>:
9d006604:	004e282b 	sltu	a1,v0,t6
9d006608:	50a0ffb4 	beqzl	a1,9d0064dc <.LBE17+0xf0>
9d00660c:	00084400 	sll	t0,t0,0x10
9d006610:	246dfffe 	addiu	t5,v1,-2
9d006614:	0b401936 	j	9d0064d8 <.LBE17+0xec>
9d006618:	00471021 	addu	v0,v0,a3
9d00661c:	00c82021 	addu	a0,a2,t0
9d006620:	0b401964 	j	9d006590 <.LBE24+0x80>
9d006624:	008a300b 	movn	a2,a0,t2
9d006628:	0088182b 	sltu	v1,a0,t0
9d00662c:	5460fff0 	bnezl	v1,9d0065f0 <.LBB25+0x4>
9d006630:	01063023 	subu	a2,t0,a2
9d006634:	00003012 	mflo	a2
9d006638:	0b401941 	j	9d006504 <.LBB24>
9d00663c:	00001821 	move	v1,zero

Disassembly of section .text:

9d006640 <__udivdi3>:
9d006640:	00c04021 	move	t0,a2
9d006644:	00801021 	move	v0,a0
9d006648:	14e0003f 	bnez	a3,9d006748 <.LBE15+0x8>
9d00664c:	00a04821 	move	t1,a1
9d006650:	00a6182b 	sltu	v1,a1,a2
9d006654:	10600047 	beqz	v1,9d006774 <.LBE15+0x34>
9d006658:	70c31820 	clz	v1,a2
9d00665c:	50600008 	beqzl	v1,9d006680 <.LBB15+0x4>
9d006660:	00081c02 	srl	v1,t0,0x10
9d006664:	00034823 	negu	t1,v1
9d006668:	00652804 	sllv	a1,a1,v1
9d00666c:	01244806 	srlv	t1,a0,t1
9d006670:	00664004 	sllv	t0,a2,v1
9d006674:	01254825 	or	t1,t1,a1
9d006678:	00641004 	sllv	v0,a0,v1

9d00667c <.LBB15>:
9d00667c:	00081c02 	srl	v1,t0,0x10
9d006680:	0123001b 	divu	zero,t1,v1
9d006684:	006001f4 	teq	v1,zero,0x7
9d006688:	00006010 	mfhi	t4
9d00668c:	00005812 	mflo	t3
9d006690:	310affff 	andi	t2,t0,0xffff
9d006694:	00022402 	srl	a0,v0,0x10
9d006698:	00003012 	mflo	a2
9d00669c:	716a3802 	mul	a3,t3,t2
9d0066a0:	000c6400 	sll	t4,t4,0x10
9d0066a4:	01842025 	or	a0,t4,a0
9d0066a8:	0087602b 	sltu	t4,a0,a3
9d0066ac:	0123001b 	divu	zero,t1,v1
9d0066b0:	006001f4 	teq	v1,zero,0x7
9d0066b4:	1180000b 	beqz	t4,9d0066e4 <.LBB15+0x68>
9d0066b8:	00872823 	subu	a1,a0,a3
9d0066bc:	00882021 	addu	a0,a0,t0
9d0066c0:	0088282b 	sltu	a1,a0,t0
9d0066c4:	14a00006 	bnez	a1,9d0066e0 <.LBB15+0x64>
9d0066c8:	2566ffff 	addiu	a2,t3,-1
9d0066cc:	0087282b 	sltu	a1,a0,a3
9d0066d0:	10a00004 	beqz	a1,9d0066e4 <.LBB15+0x68>
9d0066d4:	00872823 	subu	a1,a0,a3
9d0066d8:	2566fffe 	addiu	a2,t3,-2
9d0066dc:	00882021 	addu	a0,a0,t0
9d0066e0:	00872823 	subu	a1,a0,a3
9d0066e4:	3042ffff 	andi	v0,v0,0xffff
9d0066e8:	00a3001b 	divu	zero,a1,v1
9d0066ec:	006001f4 	teq	v1,zero,0x7
9d0066f0:	00004810 	mfhi	t1
9d0066f4:	00003812 	mflo	a3
9d0066f8:	00002012 	mflo	a0
9d0066fc:	70ea5002 	mul	t2,a3,t2
9d006700:	00094c00 	sll	t1,t1,0x10
9d006704:	01221025 	or	v0,t1,v0
9d006708:	004a482b 	sltu	t1,v0,t2
9d00670c:	00a3001b 	divu	zero,a1,v1
9d006710:	006001f4 	teq	v1,zero,0x7
9d006714:	51200009 	beqzl	t1,9d00673c <.LBB15+0xc0>
9d006718:	00061400 	sll	v0,a2,0x10
9d00671c:	00481021 	addu	v0,v0,t0
9d006720:	0048402b 	sltu	t0,v0,t0
9d006724:	15000004 	bnez	t0,9d006738 <.LBB15+0xbc>
9d006728:	24e4ffff 	addiu	a0,a3,-1
9d00672c:	004a502b 	sltu	t2,v0,t2
9d006730:	24e7fffe 	addiu	a3,a3,-2
9d006734:	00ea200b 	movn	a0,a3,t2
9d006738:	00061400 	sll	v0,a2,0x10
9d00673c:	00821025 	or	v0,a0,v0

9d006740 <.LBE15>:
9d006740:	03e00008 	jr	ra
9d006744:	00001821 	move	v1,zero
9d006748:	00a7102b 	sltu	v0,a1,a3
9d00674c:	14400044 	bnez	v0,9d006860 <.LBE16+0x8>
9d006750:	70e84020 	clz	t0,a3
9d006754:	55000045 	bnezl	t0,9d00686c <.LBE16+0x14>
9d006758:	24020020 	li	v0,32
9d00675c:	00e5282b 	sltu	a1,a3,a1
9d006760:	14a000c8 	bnez	a1,9d006a84 <.LBE20+0x120>
9d006764:	0086302b 	sltu	a2,a0,a2
9d006768:	38c20001 	xori	v0,a2,0x1
9d00676c:	03e00008 	jr	ra
9d006770:	00001821 	move	v1,zero
9d006774:	14c00006 	bnez	a2,9d006790 <.LBE15+0x50>
9d006778:	71031820 	clz	v1,t0
9d00677c:	24030001 	li	v1,1
9d006780:	0066001b 	divu	zero,v1,a2
9d006784:	00c001f4 	teq	a2,zero,0x7
9d006788:	00004012 	mflo	t0
9d00678c:	71031820 	clz	v1,t0
9d006790:	5460007b 	bnezl	v1,9d006980 <.LBE20+0x1c>
9d006794:	00684004 	sllv	t0,t0,v1
9d006798:	00a82023 	subu	a0,a1,t0
9d00679c:	00083c02 	srl	a3,t0,0x10
9d0067a0:	310bffff 	andi	t3,t0,0xffff
9d0067a4:	24030001 	li	v1,1

9d0067a8 <.LBB16>:
9d0067a8:	00023402 	srl	a2,v0,0x10
9d0067ac:	0087001b 	divu	zero,a0,a3
9d0067b0:	00e001f4 	teq	a3,zero,0x7
9d0067b4:	00006810 	mfhi	t5
9d0067b8:	00006012 	mflo	t4
9d0067bc:	00004812 	mflo	t1
9d0067c0:	718b5002 	mul	t2,t4,t3
9d0067c4:	000d6c00 	sll	t5,t5,0x10
9d0067c8:	01a63025 	or	a2,t5,a2
9d0067cc:	00ca682b 	sltu	t5,a2,t2
9d0067d0:	0087001b 	divu	zero,a0,a3
9d0067d4:	00e001f4 	teq	a3,zero,0x7
9d0067d8:	11a00009 	beqz	t5,9d006800 <.LBB16+0x58>
9d0067dc:	00ca2823 	subu	a1,a2,t2
9d0067e0:	00c83021 	addu	a2,a2,t0
9d0067e4:	00c8202b 	sltu	a0,a2,t0
9d0067e8:	14800004 	bnez	a0,9d0067fc <.LBB16+0x54>
9d0067ec:	2589ffff 	addiu	t1,t4,-1
9d0067f0:	00ca202b 	sltu	a0,a2,t2
9d0067f4:	548000a6 	bnezl	a0,9d006a90 <.LBE20+0x12c>
9d0067f8:	2589fffe 	addiu	t1,t4,-2
9d0067fc:	00ca2823 	subu	a1,a2,t2
9d006800:	3042ffff 	andi	v0,v0,0xffff
9d006804:	00a7001b 	divu	zero,a1,a3
9d006808:	00e001f4 	teq	a3,zero,0x7
9d00680c:	00005010 	mfhi	t2
9d006810:	00003012 	mflo	a2
9d006814:	00002012 	mflo	a0
9d006818:	70cb5802 	mul	t3,a2,t3
9d00681c:	000a5400 	sll	t2,t2,0x10
9d006820:	01421025 	or	v0,t2,v0
9d006824:	004b502b 	sltu	t2,v0,t3
9d006828:	00a7001b 	divu	zero,a1,a3
9d00682c:	00e001f4 	teq	a3,zero,0x7
9d006830:	51400009 	beqzl	t2,9d006858 <.LBE16>
9d006834:	00091400 	sll	v0,t1,0x10
9d006838:	00481021 	addu	v0,v0,t0
9d00683c:	0048402b 	sltu	t0,v0,t0
9d006840:	15000004 	bnez	t0,9d006854 <.LBB16+0xac>
9d006844:	24c4ffff 	addiu	a0,a2,-1
9d006848:	004b582b 	sltu	t3,v0,t3
9d00684c:	24c6fffe 	addiu	a2,a2,-2
9d006850:	00cb200b 	movn	a0,a2,t3
9d006854:	00091400 	sll	v0,t1,0x10

9d006858 <.LBE16>:
9d006858:	03e00008 	jr	ra
9d00685c:	00821025 	or	v0,a0,v0
9d006860:	00001821 	move	v1,zero
9d006864:	03e00008 	jr	ra
9d006868:	00001021 	move	v0,zero
9d00686c:	00481023 	subu	v0,v0,t0
9d006870:	01073804 	sllv	a3,a3,t0
9d006874:	00461806 	srlv	v1,a2,v0
9d006878:	00673825 	or	a3,v1,a3
9d00687c:	00455006 	srlv	t2,a1,v0
9d006880:	00071c02 	srl	v1,a3,0x10
9d006884:	0143001b 	divu	zero,t2,v1
9d006888:	006001f4 	teq	v1,zero,0x7
9d00688c:	00004810 	mfhi	t1
9d006890:	00006812 	mflo	t5
9d006894:	30ebffff 	andi	t3,a3,0xffff
9d006898:	01052804 	sllv	a1,a1,t0
9d00689c:	00441006 	srlv	v0,a0,v0
9d0068a0:	00452825 	or	a1,v0,a1
9d0068a4:	00057402 	srl	t6,a1,0x10
9d0068a8:	00001012 	mflo	v0
9d0068ac:	71ab6002 	mul	t4,t5,t3
9d0068b0:	00094c00 	sll	t1,t1,0x10
9d0068b4:	012e4825 	or	t1,t1,t6
9d0068b8:	012c702b 	sltu	t6,t1,t4
9d0068bc:	0143001b 	divu	zero,t2,v1
9d0068c0:	006001f4 	teq	v1,zero,0x7
9d0068c4:	11c0000a 	beqz	t6,9d0068f0 <.LBE16+0x98>
9d0068c8:	01063004 	sllv	a2,a2,t0
9d0068cc:	01274821 	addu	t1,t1,a3
9d0068d0:	0127502b 	sltu	t2,t1,a3
9d0068d4:	15400006 	bnez	t2,9d0068f0 <.LBE16+0x98>
9d0068d8:	25a2ffff 	addiu	v0,t5,-1
9d0068dc:	012c502b 	sltu	t2,t1,t4
9d0068e0:	51400004 	beqzl	t2,9d0068f4 <.LBE16+0x9c>
9d0068e4:	012c4823 	subu	t1,t1,t4
9d0068e8:	25a2fffe 	addiu	v0,t5,-2
9d0068ec:	01274821 	addu	t1,t1,a3
9d0068f0:	012c4823 	subu	t1,t1,t4
9d0068f4:	30a5ffff 	andi	a1,a1,0xffff
9d0068f8:	0123001b 	divu	zero,t1,v1
9d0068fc:	006001f4 	teq	v1,zero,0x7
9d006900:	00006810 	mfhi	t5
9d006904:	00006012 	mflo	t4
9d006908:	00005012 	mflo	t2
9d00690c:	718b5802 	mul	t3,t4,t3
9d006910:	000d6c00 	sll	t5,t5,0x10
9d006914:	01a52825 	or	a1,t5,a1
9d006918:	00ab682b 	sltu	t5,a1,t3
9d00691c:	0123001b 	divu	zero,t1,v1
9d006920:	006001f4 	teq	v1,zero,0x7
9d006924:	51a0000b 	beqzl	t5,9d006954 <.LBE16+0xfc>
9d006928:	00021400 	sll	v0,v0,0x10
9d00692c:	00a72821 	addu	a1,a1,a3
9d006930:	00a7182b 	sltu	v1,a1,a3
9d006934:	14600006 	bnez	v1,9d006950 <.LBE16+0xf8>
9d006938:	258affff 	addiu	t2,t4,-1
9d00693c:	00ab182b 	sltu	v1,a1,t3
9d006940:	50600004 	beqzl	v1,9d006954 <.LBE16+0xfc>
9d006944:	00021400 	sll	v0,v0,0x10
9d006948:	258afffe 	addiu	t2,t4,-2
9d00694c:	00a72821 	addu	a1,a1,a3
9d006950:	00021400 	sll	v0,v0,0x10
9d006954:	01421025 	or	v0,t2,v0
9d006958:	00ab2823 	subu	a1,a1,t3

9d00695c <.LBB20>:
9d00695c:	00460019 	multu	v0,a2
9d006960:	00003810 	mfhi	a3

9d006964 <.LBE20>:
9d006964:	00a7182b 	sltu	v1,a1,a3
9d006968:	14600044 	bnez	v1,9d006a7c <.LBE20+0x118>
9d00696c:	00003012 	mflo	a2
9d006970:	10a7003f 	beq	a1,a3,9d006a70 <.LBE20+0x10c>
9d006974:	01042004 	sllv	a0,a0,t0
9d006978:	03e00008 	jr	ra
9d00697c:	00001821 	move	v1,zero
9d006980:	24020020 	li	v0,32
9d006984:	00431023 	subu	v0,v0,v1
9d006988:	00454806 	srlv	t1,a1,v0
9d00698c:	00083c02 	srl	a3,t0,0x10
9d006990:	0127001b 	divu	zero,t1,a3
9d006994:	00e001f4 	teq	a3,zero,0x7
9d006998:	00003010 	mfhi	a2
9d00699c:	00006012 	mflo	t4
9d0069a0:	310bffff 	andi	t3,t0,0xffff
9d0069a4:	00652804 	sllv	a1,a1,v1
9d0069a8:	00441006 	srlv	v0,a0,v0
9d0069ac:	00452825 	or	a1,v0,a1
9d0069b0:	00056c02 	srl	t5,a1,0x10
9d0069b4:	00641004 	sllv	v0,a0,v1
9d0069b8:	00001812 	mflo	v1
9d0069bc:	718b5002 	mul	t2,t4,t3
9d0069c0:	00063400 	sll	a2,a2,0x10
9d0069c4:	01a63025 	or	a2,t5,a2
9d0069c8:	00ca202b 	sltu	a0,a2,t2
9d0069cc:	0127001b 	divu	zero,t1,a3
9d0069d0:	00e001f4 	teq	a3,zero,0x7
9d0069d4:	5080000b 	beqzl	a0,9d006a04 <.LBE20+0xa0>
9d0069d8:	00ca3023 	subu	a2,a2,t2
9d0069dc:	00c83021 	addu	a2,a2,t0
9d0069e0:	00c8202b 	sltu	a0,a2,t0
9d0069e4:	14800006 	bnez	a0,9d006a00 <.LBE20+0x9c>
9d0069e8:	2583ffff 	addiu	v1,t4,-1
9d0069ec:	00ca202b 	sltu	a0,a2,t2
9d0069f0:	50800004 	beqzl	a0,9d006a04 <.LBE20+0xa0>
9d0069f4:	00ca3023 	subu	a2,a2,t2
9d0069f8:	2583fffe 	addiu	v1,t4,-2
9d0069fc:	00c83021 	addu	a2,a2,t0
9d006a00:	00ca3023 	subu	a2,a2,t2
9d006a04:	30acffff 	andi	t4,a1,0xffff
9d006a08:	00c7001b 	divu	zero,a2,a3
9d006a0c:	00e001f4 	teq	a3,zero,0x7
9d006a10:	00002010 	mfhi	a0
9d006a14:	00005012 	mflo	t2
9d006a18:	00004812 	mflo	t1
9d006a1c:	714b2802 	mul	a1,t2,t3
9d006a20:	00042400 	sll	a0,a0,0x10
9d006a24:	008c2025 	or	a0,a0,t4
9d006a28:	0085602b 	sltu	t4,a0,a1
9d006a2c:	00c7001b 	divu	zero,a2,a3
9d006a30:	00e001f4 	teq	a3,zero,0x7
9d006a34:	5180000b 	beqzl	t4,9d006a64 <.LBE20+0x100>
9d006a38:	00031c00 	sll	v1,v1,0x10
9d006a3c:	00882021 	addu	a0,a0,t0
9d006a40:	0088302b 	sltu	a2,a0,t0
9d006a44:	14c00006 	bnez	a2,9d006a60 <.LBE20+0xfc>
9d006a48:	2549ffff 	addiu	t1,t2,-1
9d006a4c:	0085302b 	sltu	a2,a0,a1
9d006a50:	50c00004 	beqzl	a2,9d006a64 <.LBE20+0x100>
9d006a54:	00031c00 	sll	v1,v1,0x10
9d006a58:	2549fffe 	addiu	t1,t2,-2
9d006a5c:	00882021 	addu	a0,a0,t0
9d006a60:	00031c00 	sll	v1,v1,0x10
9d006a64:	00852023 	subu	a0,a0,a1
9d006a68:	0b4019ea 	j	9d0067a8 <.LBB16>
9d006a6c:	01231825 	or	v1,t1,v1
9d006a70:	0086302b 	sltu	a2,a0,a2
9d006a74:	10c0ffc0 	beqz	a2,9d006978 <.LBE20+0x14>
9d006a78:	00000000 	nop
9d006a7c:	0b401a5e 	j	9d006978 <.LBE20+0x14>
9d006a80:	2442ffff 	addiu	v0,v0,-1
9d006a84:	00001821 	move	v1,zero
9d006a88:	03e00008 	jr	ra
9d006a8c:	24020001 	li	v0,1
9d006a90:	0b4019ff 	j	9d0067fc <.LBB16+0x54>
9d006a94:	00c83021 	addu	a2,a2,t0

9d006a98 <waitPMP>:

// wait for the peripheral master port (PMP) to be ready
// should be called before every read and write operation
static void waitPMP(void)
{
  while(PMMODEbits.BUSY) { ; }
9d006a98:	3c03bf80 	lui	v1,0xbf80
9d006a9c:	8c627010 	lw	v0,28688(v1)
9d006aa0:	30428000 	andi	v0,v0,0x8000
9d006aa4:	1440fffd 	bnez	v0,9d006a9c <waitPMP+0x4>
9d006aa8:	00000000 	nop
}
9d006aac:	03e00008 	jr	ra
9d006ab0:	00000000 	nop

9d006ab4 <LCD_Read>:
  PMDIN = data;        // send the data
}

// read data from the LCD.  
// rs : the value of the RS signal 0 for instructions status, 1 for data
unsigned char LCD_Read(int rs) {
9d006ab4:	27bdffe0 	addiu	sp,sp,-32
9d006ab8:	afbf001c 	sw	ra,28(sp)
9d006abc:	afb00018 	sw	s0,24(sp)
  volatile unsigned char val = 0; // volatile so 1st read doesn't get optimized away
9d006ac0:	a3a00010 	sb	zero,16(sp)
  if(rs) { // 1 to read data
9d006ac4:	10800005 	beqz	a0,9d006adc <LCD_Read+0x28>
9d006ac8:	24030400 	li	v1,1024
    PMADDRSET = 1 << PMABIT;
9d006acc:	3c02bf80 	lui	v0,0xbf80
9d006ad0:	ac437028 	sw	v1,28712(v0)
9d006ad4:	0b401ab9 	j	9d006ae4 <LCD_Read+0x30>
9d006ad8:	00000000 	nop
  } else { // 0 to read command status
    PMADDRCLR = 1 << PMABIT;
9d006adc:	3c02bf80 	lui	v0,0xbf80
9d006ae0:	ac437024 	sw	v1,28708(v0)
  }
  // from the PIC32 reference manual, you must read twice to actually get the data
  waitPMP();                  // wait for the PMP to be ready
9d006ae4:	0f401aa6 	jal	9d006a98 <waitPMP>
9d006ae8:	3c10bf80 	lui	s0,0xbf80

9d006aec <.LVL1>:
  val = PMDIN;
9d006aec:	8e027040 	lw	v0,28736(s0)
9d006af0:	304200ff 	andi	v0,v0,0xff
9d006af4:	a3a20010 	sb	v0,16(sp)
  waitPMP();
9d006af8:	0f401aa6 	jal	9d006a98 <waitPMP>
9d006afc:	00000000 	nop

9d006b00 <.LVL2>:
  val = PMDIN;
9d006b00:	8e027040 	lw	v0,28736(s0)
9d006b04:	304200ff 	andi	v0,v0,0xff
9d006b08:	a3a20010 	sb	v0,16(sp)
  return val;
9d006b0c:	93a20010 	lbu	v0,16(sp)
}
9d006b10:	304200ff 	andi	v0,v0,0xff
9d006b14:	8fbf001c 	lw	ra,28(sp)
9d006b18:	8fb00018 	lw	s0,24(sp)
9d006b1c:	03e00008 	jr	ra
9d006b20:	27bd0020 	addiu	sp,sp,32

9d006b24 <LCD_Write>:
}

// Write data to the LCD and wait for it to finish by checking the busy flag. 
// rs : the value of the RS signal, 0 for an instruction 1 for data
// data : the byte to send
void LCD_Write(int rs, unsigned char data) {
9d006b24:	27bdffd8 	addiu	sp,sp,-40
9d006b28:	afbf0024 	sw	ra,36(sp)
9d006b2c:	afb10020 	sw	s1,32(sp)
9d006b30:	afb0001c 	sw	s0,28(sp)
9d006b34:	00808021 	move	s0,a0
9d006b38:	00a08821 	move	s1,a1

9d006b3c <.LBB4>:
}

// wait for the LCD to finish its command.
// We check this by reading from the LCD
static void waitLCD() {
  volatile unsigned char val = 0x80;
9d006b3c:	2402ff80 	li	v0,-128
9d006b40:	a3a20010 	sb	v0,16(sp)
  
  // Read from the LCD until the Busy flag (BF, 7th bit) is 0
  while (val & 0x80) {
9d006b44:	93a20010 	lbu	v0,16(sp)
9d006b48:	7c021420 	seb	v0,v0
9d006b4c:	04410008 	bgez	v0,9d006b70 <.LVL5+0x14>
9d006b50:	24020032 	li	v0,50
    val = LCD_Read(0);
9d006b54:	0f401aad 	jal	9d006ab4 <LCD_Read>
9d006b58:	00002021 	move	a0,zero

9d006b5c <.LVL5>:
9d006b5c:	a3a20010 	sb	v0,16(sp)
// We check this by reading from the LCD
static void waitLCD() {
  volatile unsigned char val = 0x80;
  
  // Read from the LCD until the Busy flag (BF, 7th bit) is 0
  while (val & 0x80) {
9d006b60:	93a20010 	lbu	v0,16(sp)
9d006b64:	7c021420 	seb	v0,v0
9d006b68:	0440fffa 	bltz	v0,9d006b54 <.LBB4+0x18>
9d006b6c:	24020032 	li	v0,50
    val = LCD_Read(0);
  }
  int i = 0;
  for(i = 0; i < 50; ++i) { // slight delay
    _nop();
9d006b70:	00000040 	ssnop
9d006b74:	2442ffff 	addiu	v0,v0,-1
  // Read from the LCD until the Busy flag (BF, 7th bit) is 0
  while (val & 0x80) {
    val = LCD_Read(0);
  }
  int i = 0;
  for(i = 0; i < 50; ++i) { // slight delay
9d006b78:	1440fffd 	bnez	v0,9d006b70 <.LVL5+0x14>
9d006b7c:	00000000 	nop

9d006b80 <.LBE4>:
// Write data to the LCD and wait for it to finish by checking the busy flag. 
// rs : the value of the RS signal, 0 for an instruction 1 for data
// data : the byte to send
void LCD_Write(int rs, unsigned char data) {
  waitLCD();           // wait for the LCD to be ready
  if(rs) { // 1 for data
9d006b80:	12000004 	beqz	s0,9d006b94 <.LBE4+0x14>
9d006b84:	24030400 	li	v1,1024
    PMADDRSET = 1 << PMABIT;
9d006b88:	3c02bf80 	lui	v0,0xbf80
9d006b8c:	0b401ae7 	j	9d006b9c <.LBE4+0x1c>
9d006b90:	ac437028 	sw	v1,28712(v0)
  } else { // 0 for command
    PMADDRCLR = 1 << PMABIT; 
9d006b94:	3c02bf80 	lui	v0,0xbf80
9d006b98:	ac437024 	sw	v1,28708(v0)
  }
  waitPMP();           // Wait for the PMP to be ready
9d006b9c:	0f401aa6 	jal	9d006a98 <waitPMP>
9d006ba0:	00000000 	nop

9d006ba4 <.LVL12>:
  PMDIN = data;        // send the data
9d006ba4:	3c02bf80 	lui	v0,0xbf80
9d006ba8:	ac517040 	sw	s1,28736(v0)
}
9d006bac:	0b401aed 	j	9d006bb4 <.LVL12+0x10>
9d006bb0:	8fbf0024 	lw	ra,36(sp)
9d006bb4:	8fb10020 	lw	s1,32(sp)
9d006bb8:	8fb0001c 	lw	s0,28(sp)
9d006bbc:	03e00008 	jr	ra
9d006bc0:	27bd0028 	addiu	sp,sp,40

9d006bc4 <LCD_Clear>:
    __builtin_enable_interrupts();
  }
}

// Clears the display and returns to the home position (0,0)
void LCD_Clear(void) {
9d006bc4:	27bdffe8 	addiu	sp,sp,-24
9d006bc8:	afbf0014 	sw	ra,20(sp)
  LCD_Write(0,0x01); //clear the whole screen
9d006bcc:	00002021 	move	a0,zero
9d006bd0:	0f401ac9 	jal	9d006b24 <LCD_Write>
9d006bd4:	24050001 	li	a1,1

9d006bd8 <.LVL15>:
}
9d006bd8:	8fbf0014 	lw	ra,20(sp)
9d006bdc:	03e00008 	jr	ra
9d006be0:	27bd0018 	addiu	sp,sp,24

9d006be4 <LCD_Home>:

// Return the cursor and display to the home position (0,0)
void LCD_Home(void) {
9d006be4:	27bdffe8 	addiu	sp,sp,-24
9d006be8:	afbf0014 	sw	ra,20(sp)
  LCD_Write(0,0x02);
9d006bec:	00002021 	move	a0,zero
9d006bf0:	0f401ac9 	jal	9d006b24 <LCD_Write>
9d006bf4:	24050002 	li	a1,2

9d006bf8 <.LVL16>:
}
9d006bf8:	8fbf0014 	lw	ra,20(sp)
9d006bfc:	03e00008 	jr	ra
9d006c00:	27bd0018 	addiu	sp,sp,24

9d006c04 <LCD_Entry>:

// Issue the LCD entry mode set command
// This tells the LCD what to do after writing a character
// id : 1 increment cursor, 0 decrement cursor
// s : 1 shift display right, 0 don't shift display
void LCD_Entry(int id, int s) {
9d006c04:	27bdffe8 	addiu	sp,sp,-24
9d006c08:	afbf0014 	sw	ra,20(sp)
  LCD_Write(0, 0x04 | (id << 1) | s);
9d006c0c:	34a50004 	ori	a1,a1,0x4
9d006c10:	00042040 	sll	a0,a0,0x1
9d006c14:	00a42825 	or	a1,a1,a0
9d006c18:	00002021 	move	a0,zero
9d006c1c:	0f401ac9 	jal	9d006b24 <LCD_Write>
9d006c20:	30a500ff 	andi	a1,a1,0xff

9d006c24 <.LVL20>:
}
9d006c24:	8fbf0014 	lw	ra,20(sp)
9d006c28:	03e00008 	jr	ra
9d006c2c:	27bd0018 	addiu	sp,sp,24

9d006c30 <LCD_Display>:
// Issue the LCD Display command
// Changes display settings
// d : 1 display on, 0 display off
// c : 1 cursor on, 0 cursor off
// b : 1 cursor blinks, 0 cursor doesn't blink
void LCD_Display(int d, int c, int b) {
9d006c30:	27bdffe8 	addiu	sp,sp,-24
9d006c34:	afbf0014 	sw	ra,20(sp)
  LCD_Write(0, 0x08 | (d << 2) | (c << 1) | b);
9d006c38:	34c60008 	ori	a2,a2,0x8
9d006c3c:	00052840 	sll	a1,a1,0x1
9d006c40:	00c53025 	or	a2,a2,a1
9d006c44:	00042080 	sll	a0,a0,0x2
9d006c48:	00c42825 	or	a1,a2,a0
9d006c4c:	00002021 	move	a0,zero
9d006c50:	0f401ac9 	jal	9d006b24 <LCD_Write>
9d006c54:	30a500ff 	andi	a1,a1,0xff

9d006c58 <.LVL25>:
}
9d006c58:	8fbf0014 	lw	ra,20(sp)
9d006c5c:	03e00008 	jr	ra
9d006c60:	27bd0018 	addiu	sp,sp,24

9d006c64 <LCD_Shift>:

// Issue the LCD display shift command
// Move the cursor or the display right or left
// sc : 0 shift cursor, 1 shift display
// rl : 0 to the left, 1 to the right
void LCD_Shift(int sc, int rl) {
9d006c64:	27bdffe8 	addiu	sp,sp,-24
9d006c68:	afbf0014 	sw	ra,20(sp)
  LCD_Write(0,0x1 | (sc << 3) | (rl << 2));
9d006c6c:	00052880 	sll	a1,a1,0x2
9d006c70:	34a50001 	ori	a1,a1,0x1
9d006c74:	000420c0 	sll	a0,a0,0x3
9d006c78:	00a42825 	or	a1,a1,a0
9d006c7c:	00002021 	move	a0,zero
9d006c80:	0f401ac9 	jal	9d006b24 <LCD_Write>
9d006c84:	30a500fd 	andi	a1,a1,0xfd

9d006c88 <.LVL29>:
}
9d006c88:	8fbf0014 	lw	ra,20(sp)
9d006c8c:	03e00008 	jr	ra
9d006c90:	27bd0018 	addiu	sp,sp,24

9d006c94 <LCD_Function>:
// Issue the LCD Functions set command
// This controls some LCD settings
// You may want to clear the screen after calling this
// n : 0 one line, 1 two lines
// f : 0 small font, 1 large font (only if n == 0)
void LCD_Function(int n, int f) {
9d006c94:	27bdffe8 	addiu	sp,sp,-24
9d006c98:	afbf0014 	sw	ra,20(sp)
  LCD_Write(0, 0x30 | (n << 3) | (f << 2));
9d006c9c:	00052880 	sll	a1,a1,0x2
9d006ca0:	34a50030 	ori	a1,a1,0x30
9d006ca4:	000420c0 	sll	a0,a0,0x3
9d006ca8:	00a42825 	or	a1,a1,a0
9d006cac:	00002021 	move	a0,zero
9d006cb0:	0f401ac9 	jal	9d006b24 <LCD_Write>
9d006cb4:	30a500fc 	andi	a1,a1,0xfc

9d006cb8 <.LVL33>:
}
9d006cb8:	8fbf0014 	lw	ra,20(sp)
9d006cbc:	03e00008 	jr	ra
9d006cc0:	27bd0018 	addiu	sp,sp,24

9d006cc4 <LCD_Move>:

// Move the cursor to the desired line and column
// Does this by issuing a DDRAM Move instruction
// line : line 0 or line 1
// col  : the desired column
void LCD_Move(int line, int col) {
9d006cc4:	27bdffe8 	addiu	sp,sp,-24
9d006cc8:	afbf0014 	sw	ra,20(sp)
  LCD_Write(0, 0x80 | (line << 6) | col);
9d006ccc:	2402ff80 	li	v0,-128
9d006cd0:	00a22825 	or	a1,a1,v0
9d006cd4:	00042180 	sll	a0,a0,0x6
9d006cd8:	00a42825 	or	a1,a1,a0
9d006cdc:	00002021 	move	a0,zero
9d006ce0:	0f401ac9 	jal	9d006b24 <LCD_Write>
9d006ce4:	30a500ff 	andi	a1,a1,0xff

9d006ce8 <.LVL37>:
}
9d006ce8:	8fbf0014 	lw	ra,20(sp)
9d006cec:	03e00008 	jr	ra
9d006cf0:	27bd0018 	addiu	sp,sp,24

9d006cf4 <LCD_CMove>:

// Sets the CGRAM address, used for creating custom
// characters
// addr address in the CGRAM to make current
void LCD_CMove(unsigned char addr) {
9d006cf4:	27bdffe8 	addiu	sp,sp,-24
9d006cf8:	afbf0014 	sw	ra,20(sp)
  LCD_Write(0, 0x40 | addr);
9d006cfc:	34850040 	ori	a1,a0,0x40
9d006d00:	0f401ac9 	jal	9d006b24 <LCD_Write>
9d006d04:	00002021 	move	a0,zero

9d006d08 <.LVL40>:
}
9d006d08:	8fbf0014 	lw	ra,20(sp)
9d006d0c:	03e00008 	jr	ra
9d006d10:	27bd0018 	addiu	sp,sp,24

9d006d14 <LCD_WriteChar>:

// Writes the character to the LCD at the current position
void LCD_WriteChar(char c) {         
9d006d14:	27bdffe8 	addiu	sp,sp,-24
9d006d18:	afbf0014 	sw	ra,20(sp)
  LCD_Write(1, c); 
9d006d1c:	308500ff 	andi	a1,a0,0xff
9d006d20:	0f401ac9 	jal	9d006b24 <LCD_Write>
9d006d24:	24040001 	li	a0,1

9d006d28 <.LVL43>:
}
9d006d28:	8fbf0014 	lw	ra,20(sp)
9d006d2c:	03e00008 	jr	ra
9d006d30:	27bd0018 	addiu	sp,sp,24

9d006d34 <LCD_WriteString>:

// Write a string to the LCD starting at the current cursor
void LCD_WriteString(const char *str) {
9d006d34:	27bdffe8 	addiu	sp,sp,-24
9d006d38:	afbf0014 	sw	ra,20(sp)
9d006d3c:	afb00010 	sw	s0,16(sp)
9d006d40:	00808021 	move	s0,a0
  while(*str) {
9d006d44:	80840000 	lb	a0,0(a0)
9d006d48:	10800006 	beqz	a0,9d006d64 <.LVL46+0xc>
9d006d4c:	8fbf0014 	lw	ra,20(sp)
    LCD_WriteChar(*str); // increment string pointer after char sent
9d006d50:	0f401b45 	jal	9d006d14 <LCD_WriteChar>
9d006d54:	26100001 	addiu	s0,s0,1

9d006d58 <.LVL46>:
  LCD_Write(1, c); 
}

// Write a string to the LCD starting at the current cursor
void LCD_WriteString(const char *str) {
  while(*str) {
9d006d58:	82040000 	lb	a0,0(s0)
9d006d5c:	1480fffc 	bnez	a0,9d006d50 <LCD_WriteString+0x1c>
9d006d60:	8fbf0014 	lw	ra,20(sp)
    LCD_WriteChar(*str); // increment string pointer after char sent
    ++str;
  }
}
9d006d64:	8fb00010 	lw	s0,16(sp)
9d006d68:	03e00008 	jr	ra
9d006d6c:	27bd0018 	addiu	sp,sp,24

9d006d70 <LCD_CustomChar>:
// Make val a custom character.  This only implements 
// The small font version
// val : between 0 and 7
// data : 7 character array.  The first 5 bits of each character
//        determine whether that pixel is on or off
void LCD_CustomChar(unsigned char val, const char * data) {
9d006d70:	27bdffd8 	addiu	sp,sp,-40
9d006d74:	afbf0024 	sw	ra,36(sp)
9d006d78:	afb30020 	sw	s3,32(sp)
9d006d7c:	afb2001c 	sw	s2,28(sp)
9d006d80:	afb10018 	sw	s1,24(sp)
9d006d84:	afb00014 	sw	s0,20(sp)
9d006d88:	00a09821 	move	s3,a1
  int i = 0;
  for(i = 0; i < 7; ++i) {
    LCD_CMove(((val & 7) << 2) | i);
9d006d8c:	30840007 	andi	a0,a0,0x7
9d006d90:	00049080 	sll	s2,a0,0x2
// val : between 0 and 7
// data : 7 character array.  The first 5 bits of each character
//        determine whether that pixel is on or off
void LCD_CustomChar(unsigned char val, const char * data) {
  int i = 0;
  for(i = 0; i < 7; ++i) {
9d006d94:	00008021 	move	s0,zero
9d006d98:	24110007 	li	s1,7
    LCD_CMove(((val & 7) << 2) | i);
9d006d9c:	02502025 	or	a0,s2,s0
9d006da0:	0f401b3d 	jal	9d006cf4 <LCD_CMove>
9d006da4:	308400ff 	andi	a0,a0,0xff

9d006da8 <.LVL52>:
9d006da8:	02701021 	addu	v0,s3,s0
    LCD_Write(1, data[i]);
9d006dac:	24040001 	li	a0,1
9d006db0:	0f401ac9 	jal	9d006b24 <LCD_Write>
9d006db4:	90450000 	lbu	a1,0(v0)

9d006db8 <.LVL53>:
// val : between 0 and 7
// data : 7 character array.  The first 5 bits of each character
//        determine whether that pixel is on or off
void LCD_CustomChar(unsigned char val, const char * data) {
  int i = 0;
  for(i = 0; i < 7; ++i) {
9d006db8:	26100001 	addiu	s0,s0,1
9d006dbc:	1611fff8 	bne	s0,s1,9d006da0 <LCD_CustomChar+0x30>
9d006dc0:	02502025 	or	a0,s2,s0
    LCD_CMove(((val & 7) << 2) | i);
    LCD_Write(1, data[i]);
  }
}
9d006dc4:	8fbf0024 	lw	ra,36(sp)
9d006dc8:	8fb30020 	lw	s3,32(sp)
9d006dcc:	8fb2001c 	lw	s2,28(sp)
9d006dd0:	8fb10018 	lw	s1,24(sp)
9d006dd4:	8fb00014 	lw	s0,20(sp)
9d006dd8:	03e00008 	jr	ra
9d006ddc:	27bd0028 	addiu	sp,sp,40

9d006de0 <LCD_Setup>:
// pins RE0 - RE7 (PMD0 - PMD7) connect to LCD pins D0 - D7
// pin RD4 (PMENB) connects to LCD pin E
// pin RD5 (PMRD/PMWR) Connects to LCD pin R/W
// pin RB13 (PMA10) Connects to RS.
// interrupts will be disabled while this function executes
void LCD_Setup() {
9d006de0:	27bdffe8 	addiu	sp,sp,-24
9d006de4:	afbf0014 	sw	ra,20(sp)
9d006de8:	afb00010 	sw	s0,16(sp)
  int en = __builtin_disable_interrupts();  // disable interrupts, remember initial state
9d006dec:	41706000 	di	s0
9d006df0:	000000c0 	ehb
  
  IEC1bits.PMPIE = 0;    // disable PMP interrupts
9d006df4:	3c02bf88 	lui	v0,0xbf88
9d006df8:	8c431070 	lw	v1,4208(v0)
9d006dfc:	7c031084 	ins	v1,zero,0x2,0x1
9d006e00:	ac431070 	sw	v1,4208(v0)
  PMCON = 0;             // clear PMCON, like it is on reset
9d006e04:	3c02bf80 	lui	v0,0xbf80
9d006e08:	ac407000 	sw	zero,28672(v0)
  PMCONbits.PTWREN = 1;  // PMENB strobe enabled
9d006e0c:	3c02bf80 	lui	v0,0xbf80
9d006e10:	94437000 	lhu	v1,28672(v0)
9d006e14:	24040001 	li	a0,1
9d006e18:	7c834a44 	ins	v1,a0,0x9,0x1
9d006e1c:	a4437000 	sh	v1,28672(v0)
  PMCONbits.PTRDEN = 1;  // PMRD/PMWR enabled
9d006e20:	94437000 	lhu	v1,28672(v0)
9d006e24:	7c834204 	ins	v1,a0,0x8,0x1
9d006e28:	a4437000 	sh	v1,28672(v0)
  PMCONbits.WRSP = 1;    // Read/write strobe is active high
9d006e2c:	94437000 	lhu	v1,28672(v0)
9d006e30:	7c830844 	ins	v1,a0,0x1,0x1
9d006e34:	a4437000 	sh	v1,28672(v0)
  PMCONbits.RDSP = 1;    // Read/write strobe is active high
9d006e38:	94437000 	lhu	v1,28672(v0)
9d006e3c:	7c830004 	ins	v1,a0,0x0,0x1
9d006e40:	a4437000 	sh	v1,28672(v0)

  PMMODE = 0;            // clear PMMODE like it is on reset
9d006e44:	3c03bf80 	lui	v1,0xbf80
9d006e48:	ac607010 	sw	zero,28688(v1)
  PMMODEbits.MODE = 0x3; // set master mode 1, which uses a single strobe
9d006e4c:	3c03bf80 	lui	v1,0xbf80
9d006e50:	94657010 	lhu	a1,28688(v1)
9d006e54:	24060003 	li	a2,3
9d006e58:	7cc54a04 	ins	a1,a2,0x8,0x2
9d006e5c:	a4657010 	sh	a1,28688(v1)
  // The cycle is started when reading from or writing to the PMDIN SFR.
  // Note that the wait states for writes start with minimum of 1 (except WAITE)
  // We add some extra wait states to make sure we meet the time and
  // account for variations in timing amongst different HD44780 compatible parts.
  // The timing we use here is for the KS066U which is faster than the HD44780.
  PMMODEbits.WAITB = 0x3;  // Tas in the LCD datasheet is 60 ns 
9d006e60:	94657010 	lhu	a1,28688(v1)
9d006e64:	7cc53984 	ins	a1,a2,0x6,0x2
9d006e68:	a4657010 	sh	a1,28688(v1)
  PMMODEbits.WAITM = 0xF;  // PWeh in the data sheet is 230 ns (we don't quite meet this)
9d006e6c:	94657010 	lhu	a1,28688(v1)
9d006e70:	2406000f 	li	a2,15
9d006e74:	7cc52884 	ins	a1,a2,0x2,0x4
9d006e78:	a4657010 	sh	a1,28688(v1)
                           // If not working for your LCD you may need to reduce PBCLK
  PMMODEbits.WAITE = 0x1;  // after E is low wait Tah (10ns)
9d006e7c:	94657010 	lhu	a1,28688(v1)
9d006e80:	7c850804 	ins	a1,a0,0x0,0x2
9d006e84:	a4657010 	sh	a1,28688(v1)

  PMAEN |= 1 << PMABIT;   // PMA is an address line
9d006e88:	3c03bf80 	lui	v1,0xbf80
9d006e8c:	8c657050 	lw	a1,28752(v1)
9d006e90:	34a50400 	ori	a1,a1,0x400
9d006e94:	ac657050 	sw	a1,28752(v1)
  
  PMCONbits.ON = 1;        // enable the PMP peripheral
9d006e98:	94437000 	lhu	v1,28672(v0)
9d006e9c:	7c837bc4 	ins	v1,a0,0xf,0x1
9d006ea0:	a4437000 	sh	v1,28672(v0)

9d006ea4 <.LBB12>:
// This controls some LCD settings
// You may want to clear the screen after calling this
// n : 0 one line, 1 two lines
// f : 0 small font, 1 large font (only if n == 0)
void LCD_Function(int n, int f) {
  LCD_Write(0, 0x30 | (n << 3) | (f << 2));
9d006ea4:	00002021 	move	a0,zero
9d006ea8:	0f401ac9 	jal	9d006b24 <LCD_Write>
9d006eac:	24050038 	li	a1,56

9d006eb0 <.LBB14>:
// Changes display settings
// d : 1 display on, 0 display off
// c : 1 cursor on, 0 cursor off
// b : 1 cursor blinks, 0 cursor doesn't blink
void LCD_Display(int d, int c, int b) {
  LCD_Write(0, 0x08 | (d << 2) | (c << 1) | b);
9d006eb0:	00002021 	move	a0,zero
9d006eb4:	0f401ac9 	jal	9d006b24 <LCD_Write>
9d006eb8:	2405000c 	li	a1,12

9d006ebc <.LBE14>:
  
  PMCONbits.ON = 1;        // enable the PMP peripheral
  // perform the initialization sequence
  LCD_Function(1,0);       // 2 line mode, small font
  LCD_Display(1, 0, 0);    // Display control: display on, cursor off, blinking cursor off
  LCD_Clear();             // clear the LCD 
9d006ebc:	0f401af1 	jal	9d006bc4 <LCD_Clear>
9d006ec0:	32100001 	andi	s0,s0,0x1

9d006ec4 <.LBB16>:
// Issue the LCD entry mode set command
// This tells the LCD what to do after writing a character
// id : 1 increment cursor, 0 decrement cursor
// s : 1 shift display right, 0 don't shift display
void LCD_Entry(int id, int s) {
  LCD_Write(0, 0x04 | (id << 1) | s);
9d006ec4:	00002021 	move	a0,zero
9d006ec8:	0f401ac9 	jal	9d006b24 <LCD_Write>
9d006ecc:	24050006 	li	a1,6

9d006ed0 <.LBE16>:
  LCD_Function(1,0);       // 2 line mode, small font
  LCD_Display(1, 0, 0);    // Display control: display on, cursor off, blinking cursor off
  LCD_Clear();             // clear the LCD 
  LCD_Entry(1, 0);         // Cursor moves left to right. do not shift the display
  
  if(en & 0x1)             // if interrupts were enabled before, re-enable them
9d006ed0:	12000003 	beqz	s0,9d006ee0 <.LBE16+0x10>
9d006ed4:	8fbf0014 	lw	ra,20(sp)
  {
    __builtin_enable_interrupts();
9d006ed8:	41626020 	ei	v0
  }
}
9d006edc:	8fbf0014 	lw	ra,20(sp)
9d006ee0:	8fb00010 	lw	s0,16(sp)
9d006ee4:	03e00008 	jr	ra
9d006ee8:	27bd0018 	addiu	sp,sp,24

Disassembly of section .text.dp32subadd:

9d006eec <__subdf3>:
9d006eec:	3c018000 00e13826                       ...<&8..

9d006ef4 <__adddf3>:
9d006ef4:	00055840 000b5d42 000552c0 00047d42     @X..B]...R..B}..
9d006f04:	014f5025 00044ac0 3c088000 01485025     %PO..J.....<%PH.
9d006f14:	00077040 000e7542 00076ac0 00067d42     @p..Bu...j..B}..
9d006f24:	01af6825 000662c0 01a86825 256fffff     %h...b..%h....o%
9d006f34:	2de107fe 1020008d 00000000              ...-.. .....

9d006f40 <Blab1>:
9d006f40:	25cfffff 	addiu	t7,t6,-1
9d006f44:	2de107fe 	sltiu	at,t7,2046
9d006f48:	102000bb 	beqz	at,9d007238 <BspecB>
9d006f4c:	00000000 	nop

9d006f50 <Blab2>:
9d006f50:	3c018000 	lui	at,0x8000
9d006f54:	00a12824 	and	a1,a1,at
9d006f58:	016e4023 	subu	t0,t3,t6
9d006f5c:	1100002c 	beqz	t0,9d007010 <Badd3>
9d006f60:	00000000 	nop
9d006f64:	19000015 	blez	t0,9d006fbc <i1>
9d006f68:	00000000 	nop

9d006f6c <L1>:
9d006f6c:	2d010020 	sltiu	at,t0,32
9d006f70:	14200007 	bnez	at,9d006f90 <L2>
9d006f74:	00000000 	nop
9d006f78:	2108ffe0 	addi	t0,t0,-32
9d006f7c:	000c302b 	sltu	a2,zero,t4
9d006f80:	100d0023 	beq	zero,t5,9d007010 <Badd3>
9d006f84:	01a66025 	or	t4,t5,a2
9d006f88:	1000fff8 	b	9d006f6c <L1>
9d006f8c:	340d0000 	li	t5,0x0

9d006f90 <L2>:
9d006f90:	1100001f 	beqz	t0,9d007010 <Badd3>
9d006f94:	00000000 	nop
9d006f98:	00082022 	neg	a0,t0
9d006f9c:	008c3004 	sllv	a2,t4,a0
9d006fa0:	008d2004 	sllv	a0,t5,a0
9d006fa4:	010c6006 	srlv	t4,t4,t0
9d006fa8:	010d6806 	srlv	t5,t5,t0
9d006fac:	10c00018 	beqz	a2,9d007010 <Badd3>
9d006fb0:	008c6025 	or	t4,a0,t4
9d006fb4:	10000016 	b	9d007010 <Badd3>
9d006fb8:	358c0002 	ori	t4,t4,0x2

9d006fbc <i1>:
9d006fbc:	000e5825 	or	t3,zero,t6
9d006fc0:	00084023 	negu	t0,t0

9d006fc4 <L4>:
9d006fc4:	2d010020 	sltiu	at,t0,32
9d006fc8:	14200007 	bnez	at,9d006fe8 <L5>
9d006fcc:	00000000 	nop
9d006fd0:	2108ffe0 	addi	t0,t0,-32
9d006fd4:	0009302b 	sltu	a2,zero,t1
9d006fd8:	100a000d 	beq	zero,t2,9d007010 <Badd3>
9d006fdc:	01464825 	or	t1,t2,a2
9d006fe0:	1000fff8 	b	9d006fc4 <L4>
9d006fe4:	340a0000 	li	t2,0x0

9d006fe8 <L5>:
9d006fe8:	11000009 	beqz	t0,9d007010 <Badd3>
9d006fec:	00000000 	nop
9d006ff0:	00082022 	neg	a0,t0
9d006ff4:	00893004 	sllv	a2,t1,a0
9d006ff8:	008a2004 	sllv	a0,t2,a0
9d006ffc:	01094806 	srlv	t1,t1,t0
9d007000:	010a5006 	srlv	t2,t2,t0
9d007004:	10c00002 	beqz	a2,9d007010 <Badd3>
9d007008:	00894825 	or	t1,a0,t1
9d00700c:	35290002 	ori	t1,t1,0x2

9d007010 <Badd3>:
9d007010:	00a77826 	xor	t7,a1,a3
9d007014:	05e0001c 	bltz	t7,9d007088 <Bsub1>
9d007018:	00000000 	nop
9d00701c:	012c4821 	addu	t1,t1,t4
9d007020:	012c782b 	sltu	t7,t1,t4
9d007024:	014d5021 	addu	t2,t2,t5
9d007028:	014f5021 	addu	t2,t2,t7
9d00702c:	114d0002 	beq	t2,t5,9d007038 <L7>
9d007030:	00000000 	nop
9d007034:	014d782b 	sltu	t7,t2,t5

9d007038 <L7>:
9d007038:	11e00037 	beqz	t7,9d007118 <Bres>
9d00703c:	00000000 	nop
9d007040:	312f0001 	andi	t7,t1,0x1
9d007044:	11e00002 	beqz	t7,9d007050 <i3>
9d007048:	00000000 	nop
9d00704c:	35290002 	ori	t1,t1,0x2

9d007050 <i3>:
9d007050:	00094842 	srl	t1,t1,0x1
9d007054:	000a7fc0 	sll	t7,t2,0x1f
9d007058:	012f4825 	or	t1,t1,t7
9d00705c:	000a5042 	srl	t2,t2,0x1
9d007060:	3c018000 	lui	at,0x8000
9d007064:	01415025 	or	t2,t2,at
9d007068:	256b0001 	addiu	t3,t3,1
9d00706c:	240107ff 	li	at,2047
9d007070:	15610029 	bne	t3,at,9d007118 <Bres>
9d007074:	00000000 	nop
9d007078:	3c017ff0 	lui	at,0x7ff0
9d00707c:	00a12825 	or	a1,a1,at
9d007080:	10000037 	b	9d007160 <BretA>
9d007084:	24040000 	li	a0,0

9d007088 <Bsub1>:
9d007088:	012c782b 	sltu	t7,t1,t4
9d00708c:	012c4823 	subu	t1,t1,t4
9d007090:	014f102b 	sltu	v0,t2,t7
9d007094:	014f5023 	subu	t2,t2,t7
9d007098:	014d782b 	sltu	t7,t2,t5
9d00709c:	01e27825 	or	t7,t7,v0
9d0070a0:	11e00007 	beqz	t7,9d0070c0 <i5>
9d0070a4:	014d5023 	subu	t2,t2,t5
9d0070a8:	3c018000 	lui	at,0x8000
9d0070ac:	00a12826 	xor	a1,a1,at
9d0070b0:	0009782b 	sltu	t7,zero,t1
9d0070b4:	00094823 	negu	t1,t1
9d0070b8:	000a5023 	negu	t2,t2
9d0070bc:	014f5023 	subu	t2,t2,t7

9d0070c0 <i5>:
9d0070c0:	15400008 	bnez	t2,9d0070e4 <L8>
9d0070c4:	00000000 	nop
9d0070c8:	15200003 	bnez	t1,9d0070d8 <L9>
9d0070cc:	00000000 	nop
9d0070d0:	1000000d 	b	9d007108 <L10>
9d0070d4:	240b0000 	li	t3,0

9d0070d8 <L9>:
9d0070d8:	01205025 	move	t2,t1
9d0070dc:	24090000 	li	t1,0
9d0070e0:	256bffe0 	addiu	t3,t3,-32

9d0070e4 <L8>:
9d0070e4:	71484020 	clz	t0,t2
9d0070e8:	11000007 	beqz	t0,9d007108 <L10>
9d0070ec:	00000000 	nop
9d0070f0:	01685823 	subu	t3,t3,t0
9d0070f4:	00082022 	neg	a0,t0
9d0070f8:	00892006 	srlv	a0,t1,a0
9d0070fc:	01094804 	sllv	t1,t1,t0
9d007100:	010a5004 	sllv	t2,t2,t0
9d007104:	01445025 	or	t2,t2,a0

9d007108 <L10>:
9d007108:	01497825 	or	t7,t2,t1
9d00710c:	15e00002 	bnez	t7,9d007118 <Bres>
9d007110:	00000000 	nop
9d007114:	24050000 	li	a1,0

9d007118 <Bres>:
9d007118:	19600068 	blez	t3,9d0072bc <Bund>
9d00711c:	00000000 	nop

9d007120 <Blab8>:
9d007120:	25290400 	addiu	t1,t1,1024
9d007124:	2d2f0400 	sltiu	t7,t1,1024
9d007128:	014f5021 	addu	t2,t2,t7
9d00712c:	014f782b 	sltu	t7,t2,t7
9d007130:	016f5821 	addu	t3,t3,t7
9d007134:	00097ac2 	srl	t7,t1,0xb
9d007138:	31ef0001 	andi	t7,t7,0x1
9d00713c:	012f4823 	subu	t1,t1,t7
9d007140:	000922c2 	srl	a0,t1,0xb
9d007144:	000a7d40 	sll	t7,t2,0x15
9d007148:	008f2025 	or	a0,a0,t7
9d00714c:	000a7840 	sll	t7,t2,0x1
9d007150:	000f7b02 	srl	t7,t7,0xc
9d007154:	00af2825 	or	a1,a1,t7
9d007158:	000b7d00 	sll	t7,t3,0x14
9d00715c:	00af2825 	or	a1,a1,t7

9d007160 <BretA>:
9d007160:	00041025 	or	v0,zero,a0
9d007164:	00051825 	or	v1,zero,a1

9d007168 <B999>:
9d007168:	03e00008 	jr	ra
9d00716c:	00000000 	nop

9d007170 <BspecA>:
9d007170:	0120782a 	slt	t7,t1,zero
9d007174:	01294821 	addu	t1,t1,t1
9d007178:	014a5021 	addu	t2,t2,t2
9d00717c:	15600023 	bnez	t3,9d00720c <i7>
9d007180:	014f5021 	addu	t2,t2,t7
9d007184:	01497825 	or	t7,t2,t1
9d007188:	11e00014 	beqz	t7,9d0071dc <i8>
9d00718c:	00000000 	nop
9d007190:	15400008 	bnez	t2,9d0071b4 <L11>
9d007194:	00000000 	nop
9d007198:	15200003 	bnez	t1,9d0071a8 <L12>
9d00719c:	00000000 	nop
9d0071a0:	1000ff67 	b	9d006f40 <Blab1>
9d0071a4:	240b0000 	li	t3,0

9d0071a8 <L12>:
9d0071a8:	01205025 	move	t2,t1
9d0071ac:	24090000 	li	t1,0
9d0071b0:	256bffe0 	addiu	t3,t3,-32

9d0071b4 <L11>:
9d0071b4:	71484020 	clz	t0,t2
9d0071b8:	1100ff61 	beqz	t0,9d006f40 <Blab1>
9d0071bc:	00000000 	nop
9d0071c0:	01685823 	subu	t3,t3,t0
9d0071c4:	00082022 	neg	a0,t0
9d0071c8:	00892006 	srlv	a0,t1,a0
9d0071cc:	01094804 	sllv	t1,t1,t0
9d0071d0:	010a5004 	sllv	t2,t2,t0
9d0071d4:	1000ff5a 	b	9d006f40 <Blab1>
9d0071d8:	01445025 	or	t2,t2,a0

9d0071dc <i8>:
9d0071dc:	240107ff 	li	at,2047
9d0071e0:	11c10015 	beq	t6,at,9d007238 <BspecB>
9d0071e4:	00000000 	nop
9d0071e8:	00e74021 	addu	t0,a3,a3
9d0071ec:	01067825 	or	t7,t0,a2
9d0071f0:	15e00003 	bnez	t7,9d007200 <BretB>
9d0071f4:	00000000 	nop
9d0071f8:	04e0ffd9 	bltz	a3,9d007160 <BretA>
9d0071fc:	00000000 	nop

9d007200 <BretB>:
9d007200:	00061025 	or	v0,zero,a2
9d007204:	1000ffd8 	b	9d007168 <B999>
9d007208:	00071825 	or	v1,zero,a3

9d00720c <i7>:
9d00720c:	01497825 	or	t7,t2,t1
9d007210:	15e00027 	bnez	t7,9d0072b0 <Bnan>
9d007214:	00000000 	nop
9d007218:	240107ff 	li	at,2047
9d00721c:	15c1ffd0 	bne	t6,at,9d007160 <BretA>
9d007220:	00000000 	nop
9d007224:	00a77826 	xor	t7,a1,a3
9d007228:	05e00021 	bltz	t7,9d0072b0 <Bnan>
9d00722c:	00000000 	nop
9d007230:	1000fff3 	b	9d007200 <BretB>
9d007234:	00000000 	nop

9d007238 <BspecB>:
9d007238:	0180782a 	slt	t7,t4,zero
9d00723c:	018c6021 	addu	t4,t4,t4
9d007240:	01ad6821 	addu	t5,t5,t5
9d007244:	15c00017 	bnez	t6,9d0072a4 <i11>
9d007248:	01af6821 	addu	t5,t5,t7
9d00724c:	01ac7825 	or	t7,t5,t4
9d007250:	11e0ffc3 	beqz	t7,9d007160 <BretA>
9d007254:	00000000 	nop
9d007258:	15a00008 	bnez	t5,9d00727c <L14>
9d00725c:	00000000 	nop
9d007260:	15800003 	bnez	t4,9d007270 <L15>
9d007264:	00000000 	nop
9d007268:	1000ff39 	b	9d006f50 <Blab2>
9d00726c:	240e0000 	li	t6,0

9d007270 <L15>:
9d007270:	01806825 	move	t5,t4
9d007274:	240c0000 	li	t4,0
9d007278:	25ceffe0 	addiu	t6,t6,-32

9d00727c <L14>:
9d00727c:	71a84020 	clz	t0,t5
9d007280:	1100ff33 	beqz	t0,9d006f50 <Blab2>
9d007284:	00000000 	nop
9d007288:	01c87023 	subu	t6,t6,t0
9d00728c:	00082022 	neg	a0,t0
9d007290:	008c2006 	srlv	a0,t4,a0
9d007294:	010c6004 	sllv	t4,t4,t0
9d007298:	010d6804 	sllv	t5,t5,t0
9d00729c:	1000ff2c 	b	9d006f50 <Blab2>
9d0072a0:	01a46825 	or	t5,t5,a0

9d0072a4 <i11>:
9d0072a4:	01ac7825 	or	t7,t5,t4
9d0072a8:	11e0ffd5 	beqz	t7,9d007200 <BretB>
9d0072ac:	00000000 	nop

9d0072b0 <Bnan>:
9d0072b0:	3c05fff8 	lui	a1,0xfff8
9d0072b4:	1000ffaa 	b	9d007160 <BretA>
9d0072b8:	24040000 	li	a0,0

9d0072bc <Bund>:
9d0072bc:	24080001 	li	t0,1
9d0072c0:	010b4023 	subu	t0,t0,t3

9d0072c4 <L17>:
9d0072c4:	2d010020 	sltiu	at,t0,32
9d0072c8:	14200007 	bnez	at,9d0072e8 <L18>
9d0072cc:	00000000 	nop
9d0072d0:	2108ffe0 	addi	t0,t0,-32
9d0072d4:	0009302b 	sltu	a2,zero,t1
9d0072d8:	100a000d 	beq	zero,t2,9d007310 <L19>
9d0072dc:	01464825 	or	t1,t2,a2
9d0072e0:	1000fff8 	b	9d0072c4 <L17>
9d0072e4:	340a0000 	li	t2,0x0

9d0072e8 <L18>:
9d0072e8:	11000009 	beqz	t0,9d007310 <L19>
9d0072ec:	00000000 	nop
9d0072f0:	00082022 	neg	a0,t0
9d0072f4:	00893004 	sllv	a2,t1,a0
9d0072f8:	008a2004 	sllv	a0,t2,a0
9d0072fc:	01094806 	srlv	t1,t1,t0
9d007300:	010a5006 	srlv	t2,t2,t0
9d007304:	10c00002 	beqz	a2,9d007310 <L19>
9d007308:	00894825 	or	t1,a0,t1
9d00730c:	35290002 	ori	t1,t1,0x2

9d007310 <L19>:
9d007310:	1000ff83 	b	9d007120 <Blab8>
9d007314:	240b0000 	li	t3,0
9d007318:	00000000 	nop

Disassembly of section .text.__strtod:

9d00731c <__strtod>:
9d00731c:	27bdffc8 	addiu	sp,sp,-56

9d007320 <.LCFI0>:
9d007320:	afbf0034 	sw	ra,52(sp)
9d007324:	afbe0030 	sw	s8,48(sp)
9d007328:	afb7002c 	sw	s7,44(sp)
9d00732c:	afb60028 	sw	s6,40(sp)
9d007330:	afb50024 	sw	s5,36(sp)
9d007334:	afb40020 	sw	s4,32(sp)
9d007338:	afb3001c 	sw	s3,28(sp)
9d00733c:	afb20018 	sw	s2,24(sp)
9d007340:	afb10014 	sw	s1,20(sp)
9d007344:	afb00010 	sw	s0,16(sp)
9d007348:	0080b821 	move	s7,a0
9d00734c:	80820000 	lb	v0,0(a0)
9d007350:	3c1e9d01 	lui	s8,0x9d01
9d007354:	27de9ce1 	addiu	s8,s8,-25375
9d007358:	03c21821 	addu	v1,s8,v0
9d00735c:	80630000 	lb	v1,0(v1)
9d007360:	00a0a821 	move	s5,a1
9d007364:	30630088 	andi	v1,v1,0x88
9d007368:	10600008 	beqz	v1,9d00738c <.LCFI0+0x6c>
9d00736c:	0080a021 	move	s4,a0
9d007370:	26940001 	addiu	s4,s4,1
9d007374:	82820000 	lb	v0,0(s4)
9d007378:	03c21821 	addu	v1,s8,v0
9d00737c:	80630000 	lb	v1,0(v1)
9d007380:	30630088 	andi	v1,v1,0x88
9d007384:	5460fffb 	bnezl	v1,9d007374 <.LCFI0+0x54>
9d007388:	26940001 	addiu	s4,s4,1
9d00738c:	2403002d 	li	v1,45
9d007390:	10430098 	beq	v0,v1,9d0075f4 <.LCFI0+0x2d4>
9d007394:	3842002b 	xori	v0,v0,0x2b
9d007398:	2c420001 	sltiu	v0,v0,1
9d00739c:	00009821 	move	s3,zero
9d0073a0:	0282a021 	addu	s4,s4,v0
9d0073a4:	82860000 	lb	a2,0(s4)
9d0073a8:	03c61021 	addu	v0,s8,a2
9d0073ac:	90420000 	lbu	v0,0(v0)
9d0073b0:	30420004 	andi	v0,v0,0x4
9d0073b4:	00008821 	move	s1,zero
9d0073b8:	104000bc 	beqz	v0,9d0076ac <.LCFI0+0x38c>
9d0073bc:	00008021 	move	s0,zero
9d0073c0:	00009021 	move	s2,zero
9d0073c4:	24d6ffd0 	addiu	s6,a2,-48
9d0073c8:	02002821 	move	a1,s0
9d0073cc:	02202021 	move	a0,s1
9d0073d0:	00003021 	move	a2,zero
9d0073d4:	0f401f73 	jal	9d007dcc <.LFE23>
9d0073d8:	3c074024 	lui	a3,0x4024
9d0073dc:	00408021 	move	s0,v0
9d0073e0:	00608821 	move	s1,v1
9d0073e4:	0f402bf6 	jal	9d00afd8 <__floatsidf>
9d0073e8:	02c02021 	move	a0,s6
9d0073ec:	02002021 	move	a0,s0
9d0073f0:	02202821 	move	a1,s1
9d0073f4:	00403021 	move	a2,v0
9d0073f8:	00603821 	move	a3,v1
9d0073fc:	0f401bbd 	jal	9d006ef4 <__adddf3>
9d007400:	26940001 	addiu	s4,s4,1
9d007404:	00408821 	move	s1,v0
9d007408:	00608021 	move	s0,v1
9d00740c:	82860000 	lb	a2,0(s4)
9d007410:	03c61021 	addu	v0,s8,a2
9d007414:	90420000 	lbu	v0,0(v0)
9d007418:	30420004 	andi	v0,v0,0x4
9d00741c:	1440ffe9 	bnez	v0,9d0073c4 <.LCFI0+0xa4>
9d007420:	02569025 	or	s2,s2,s6
9d007424:	24030001 	li	v1,1
9d007428:	2402002e 	li	v0,46
9d00742c:	50c20048 	beql	a2,v0,9d007550 <.LCFI0+0x230>
9d007430:	82820001 	lb	v0,1(s4)
9d007434:	54600072 	bnezl	v1,9d007600 <.LCFI0+0x2e0>
9d007438:	82820000 	lb	v0,0(s4)
9d00743c:	12a0002a 	beqz	s5,9d0074e8 <.LCFI0+0x1c8>
9d007440:	00000000 	nop
9d007444:	02e0a021 	move	s4,s7
9d007448:	0000b821 	move	s7,zero
9d00744c:	aeb40000 	sw	s4,0(s5)
9d007450:	12e00025 	beqz	s7,9d0074e8 <.LCFI0+0x1c8>
9d007454:	00004021 	move	t0,zero
9d007458:	001717c3 	sra	v0,s7,0x1f
9d00745c:	0057b026 	xor	s6,v0,s7
9d007460:	02c2b023 	subu	s6,s6,v0
9d007464:	3c159d01 	lui	s5,0x9d01
9d007468:	26b5b650 	addiu	s5,s5,-18864
9d00746c:	3c093ff0 	lui	t1,0x3ff0
9d007470:	0b401d20 	j	9d007480 <.LCFI0+0x160>
9d007474:	24140009 	li	s4,9
9d007478:	1280000e 	beqz	s4,9d0074b4 <.LCFI0+0x194>
9d00747c:	26b5fff8 	addiu	s5,s5,-8
9d007480:	2694ffff 	addiu	s4,s4,-1
9d007484:	02961007 	srav	v0,s6,s4
9d007488:	30420001 	andi	v0,v0,0x1
9d00748c:	1040fffa 	beqz	v0,9d007478 <.LCFI0+0x158>
9d007490:	01002021 	move	a0,t0
9d007494:	8ea60000 	lw	a2,0(s5)
9d007498:	8ea70004 	lw	a3,4(s5)
9d00749c:	0f401f73 	jal	9d007dcc <.LFE23>
9d0074a0:	01202821 	move	a1,t1
9d0074a4:	00404021 	move	t0,v0
9d0074a8:	00604821 	move	t1,v1
9d0074ac:	1680fff4 	bnez	s4,9d007480 <.LCFI0+0x160>
9d0074b0:	26b5fff8 	addiu	s5,s5,-8
9d0074b4:	02202021 	move	a0,s1
9d0074b8:	02002821 	move	a1,s0
9d0074bc:	01003021 	move	a2,t0
9d0074c0:	06e00075 	bltz	s7,9d007698 <.LCFI0+0x378>
9d0074c4:	01203821 	move	a3,t1
9d0074c8:	0f401f73 	jal	9d007dcc <.LFE23>
9d0074cc:	00000000 	nop
9d0074d0:	00402021 	move	a0,v0
9d0074d4:	00602821 	move	a1,v1
9d0074d8:	0f40258a 	jal	9d009628 <__ldexp>
9d0074dc:	02e03021 	move	a2,s7
9d0074e0:	00408821 	move	s1,v0
9d0074e4:	00608021 	move	s0,v1
9d0074e8:	1220007b 	beqz	s1,9d0076d8 <.LCFI0+0x3b8>
9d0074ec:	7e02f000 	ext	v0,s0,0x0,0x1f
9d0074f0:	02301025 	or	v0,s1,s0
9d0074f4:	10400073 	beqz	v0,9d0076c4 <.LCFI0+0x3a4>
9d0074f8:	00000000 	nop
9d0074fc:	12600007 	beqz	s3,9d00751c <.LCFI0+0x1fc>
9d007500:	02201021 	move	v0,s1
9d007504:	02202021 	move	a0,s1
9d007508:	0f402e75 	jal	9d00b9d4 <__negdf2>
9d00750c:	02002821 	move	a1,s0
9d007510:	00408821 	move	s1,v0
9d007514:	00608021 	move	s0,v1
9d007518:	02201021 	move	v0,s1
9d00751c:	02001821 	move	v1,s0
9d007520:	8fbf0034 	lw	ra,52(sp)
9d007524:	8fbe0030 	lw	s8,48(sp)
9d007528:	8fb7002c 	lw	s7,44(sp)
9d00752c:	8fb60028 	lw	s6,40(sp)
9d007530:	8fb50024 	lw	s5,36(sp)
9d007534:	8fb40020 	lw	s4,32(sp)
9d007538:	8fb3001c 	lw	s3,28(sp)
9d00753c:	8fb20018 	lw	s2,24(sp)
9d007540:	8fb10014 	lw	s1,20(sp)
9d007544:	8fb00010 	lw	s0,16(sp)
9d007548:	03e00008 	jr	ra
9d00754c:	27bd0038 	addiu	sp,sp,56
9d007550:	03c22021 	addu	a0,s8,v0
9d007554:	90840000 	lbu	a0,0(a0)
9d007558:	30840004 	andi	a0,a0,0x4
9d00755c:	1080ffb5 	beqz	a0,9d007434 <.LCFI0+0x114>
9d007560:	26940001 	addiu	s4,s4,1
9d007564:	0000b821 	move	s7,zero
9d007568:	2456ffd0 	addiu	s6,v0,-48
9d00756c:	02002821 	move	a1,s0
9d007570:	02202021 	move	a0,s1
9d007574:	00003021 	move	a2,zero
9d007578:	0f401f73 	jal	9d007dcc <.LFE23>
9d00757c:	3c074024 	lui	a3,0x4024
9d007580:	00408021 	move	s0,v0
9d007584:	00608821 	move	s1,v1
9d007588:	0f402bf6 	jal	9d00afd8 <__floatsidf>
9d00758c:	02c02021 	move	a0,s6
9d007590:	02002021 	move	a0,s0
9d007594:	02202821 	move	a1,s1
9d007598:	00403021 	move	a2,v0
9d00759c:	00603821 	move	a3,v1
9d0075a0:	0f401bbd 	jal	9d006ef4 <__adddf3>
9d0075a4:	26940001 	addiu	s4,s4,1
9d0075a8:	00408821 	move	s1,v0
9d0075ac:	00608021 	move	s0,v1
9d0075b0:	82820000 	lb	v0,0(s4)
9d0075b4:	02569025 	or	s2,s2,s6
9d0075b8:	03c21821 	addu	v1,s8,v0
9d0075bc:	90630000 	lbu	v1,0(v1)
9d0075c0:	30630004 	andi	v1,v1,0x4
9d0075c4:	1460ffe8 	bnez	v1,9d007568 <.LCFI0+0x248>
9d0075c8:	26f7ffff 	addiu	s7,s7,-1
9d0075cc:	2404ffdf 	li	a0,-33
9d0075d0:	00441824 	and	v1,v0,a0
9d0075d4:	7c031c20 	seb	v1,v1
9d0075d8:	24020045 	li	v0,69
9d0075dc:	5062000f 	beql	v1,v0,9d00761c <.LCFI0+0x2fc>
9d0075e0:	82830001 	lb	v1,1(s4)
9d0075e4:	56a0ff9a 	bnezl	s5,9d007450 <.LCFI0+0x130>
9d0075e8:	aeb40000 	sw	s4,0(s5)
9d0075ec:	0b401d14 	j	9d007450 <.LCFI0+0x130>
9d0075f0:	00000000 	nop
9d0075f4:	26940001 	addiu	s4,s4,1
9d0075f8:	0b401ce9 	j	9d0073a4 <.LCFI0+0x84>
9d0075fc:	24130001 	li	s3,1
9d007600:	2404ffdf 	li	a0,-33
9d007604:	00441824 	and	v1,v0,a0
9d007608:	7c031c20 	seb	v1,v1
9d00760c:	24020045 	li	v0,69
9d007610:	1462fff4 	bne	v1,v0,9d0075e4 <.LCFI0+0x2c4>
9d007614:	0000b821 	move	s7,zero
9d007618:	82830001 	lb	v1,1(s4)
9d00761c:	2402002d 	li	v0,45
9d007620:	10620019 	beq	v1,v0,9d007688 <.LCFI0+0x368>
9d007624:	2402002b 	li	v0,43
9d007628:	50620023 	beql	v1,v0,9d0076b8 <.LCFI0+0x398>
9d00762c:	82830002 	lb	v1,2(s4)
9d007630:	26940001 	addiu	s4,s4,1
9d007634:	00003821 	move	a3,zero
9d007638:	03c31021 	addu	v0,s8,v1
9d00763c:	90420000 	lbu	v0,0(v0)
9d007640:	30420004 	andi	v0,v0,0x4
9d007644:	1040000c 	beqz	v0,9d007678 <.LCFI0+0x358>
9d007648:	00001021 	move	v0,zero
9d00764c:	26940001 	addiu	s4,s4,1
9d007650:	2465ffd0 	addiu	a1,v1,-48
9d007654:	82830000 	lb	v1,0(s4)
9d007658:	00023040 	sll	a2,v0,0x1
9d00765c:	000210c0 	sll	v0,v0,0x3
9d007660:	03c32021 	addu	a0,s8,v1
9d007664:	90840000 	lbu	a0,0(a0)
9d007668:	00c21021 	addu	v0,a2,v0
9d00766c:	30840004 	andi	a0,a0,0x4
9d007670:	1480fff6 	bnez	a0,9d00764c <.LCFI0+0x32c>
9d007674:	00451021 	addu	v0,v0,a1
9d007678:	00021823 	negu	v1,v0
9d00767c:	0067100b 	movn	v0,v1,a3
9d007680:	0b401d79 	j	9d0075e4 <.LCFI0+0x2c4>
9d007684:	02e2b821 	addu	s7,s7,v0
9d007688:	82830002 	lb	v1,2(s4)
9d00768c:	24070001 	li	a3,1
9d007690:	0b401d8e 	j	9d007638 <.LCFI0+0x318>
9d007694:	26940002 	addiu	s4,s4,2
9d007698:	0f40161c 	jal	9d005870 <__divdf3>
9d00769c:	00000000 	nop
9d0076a0:	00402021 	move	a0,v0
9d0076a4:	0b401d36 	j	9d0074d8 <.LCFI0+0x1b8>
9d0076a8:	00602821 	move	a1,v1
9d0076ac:	00001821 	move	v1,zero
9d0076b0:	0b401d0a 	j	9d007428 <.LCFI0+0x108>
9d0076b4:	00009021 	move	s2,zero
9d0076b8:	00003821 	move	a3,zero
9d0076bc:	0b401d8e 	j	9d007638 <.LCFI0+0x318>
9d0076c0:	26940002 	addiu	s4,s4,2
9d0076c4:	1240ff8d 	beqz	s2,9d0074fc <.LCFI0+0x1dc>
9d0076c8:	24030022 	li	v1,34
9d0076cc:	3c02a000 	lui	v0,0xa000
9d0076d0:	0b401d3f 	j	9d0074fc <.LCFI0+0x1dc>
9d0076d4:	ac430020 	sw	v1,32(v0)
9d0076d8:	3c037ff0 	lui	v1,0x7ff0
9d0076dc:	1443ff85 	bne	v0,v1,9d0074f4 <.LCFI0+0x1d4>
9d0076e0:	02301025 	or	v0,s1,s0
9d0076e4:	0b401db3 	j	9d0076cc <.LCFI0+0x3ac>
9d0076e8:	24030022 	li	v1,34

Disassembly of section .text.strtoll:

9d0076ec <strtoll>:
9d0076ec:	27bdffd0 	addiu	sp,sp,-48
9d0076f0:	afbf002c 	sw	ra,44(sp)
9d0076f4:	afb60028 	sw	s6,40(sp)
9d0076f8:	afb50024 	sw	s5,36(sp)
9d0076fc:	afb40020 	sw	s4,32(sp)
9d007700:	afb3001c 	sw	s3,28(sp)
9d007704:	afb20018 	sw	s2,24(sp)
9d007708:	afb10014 	sw	s1,20(sp)
9d00770c:	afb00010 	sw	s0,16(sp)
9d007710:	00809821 	move	s3,a0
9d007714:	80820000 	lb	v0,0(a0)
9d007718:	00a0a021 	move	s4,a1
9d00771c:	104000c0 	beqz	v0,9d007a20 <strtoll+0x334>
9d007720:	00c09021 	move	s2,a2
9d007724:	3c049d01 	lui	a0,0x9d01
9d007728:	24849ce1 	addiu	a0,a0,-25375
9d00772c:	00821821 	addu	v1,a0,v0
9d007730:	80630000 	lb	v1,0(v1)
9d007734:	30630088 	andi	v1,v1,0x88
9d007738:	14600007 	bnez	v1,9d007758 <strtoll+0x6c>
9d00773c:	02608821 	move	s1,s3
9d007740:	0b401e56 	j	9d007958 <strtoll+0x26c>
9d007744:	2403002b 	li	v1,43
9d007748:	80630000 	lb	v1,0(v1)
9d00774c:	30630088 	andi	v1,v1,0x88
9d007750:	50600081 	beqzl	v1,9d007958 <strtoll+0x26c>
9d007754:	2403002b 	li	v1,43
9d007758:	26310001 	addiu	s1,s1,1
9d00775c:	82220000 	lb	v0,0(s1)
9d007760:	1440fff9 	bnez	v0,9d007748 <strtoll+0x5c>
9d007764:	00821821 	addu	v1,a0,v0
9d007768:	00008021 	move	s0,zero
9d00776c:	0000b021 	move	s6,zero
9d007770:	16400063 	bnez	s2,9d007900 <strtoll+0x214>
9d007774:	24020010 	li	v0,16
9d007778:	24020030 	li	v0,48
9d00777c:	12020090 	beq	s0,v0,9d0079c0 <strtoll+0x2d4>
9d007780:	3c0fcccc 	lui	t7,0xcccc
9d007784:	35efcccc 	ori	t7,t7,0xcccc
9d007788:	3c0b0ccc 	lui	t3,0xccc
9d00778c:	356bcccc 	ori	t3,t3,0xcccc
9d007790:	240c000a 	li	t4,10
9d007794:	0000a821 	move	s5,zero
9d007798:	00002021 	move	a0,zero
9d00779c:	2412000a 	li	s2,10
9d0077a0:	2628ffff 	addiu	t0,s1,-1
9d0077a4:	00002821 	move	a1,zero
9d0077a8:	00001021 	move	v0,zero
9d0077ac:	00001821 	move	v1,zero
9d0077b0:	3c079d01 	lui	a3,0x9d01
9d0077b4:	24e79ce1 	addiu	a3,a3,-25375
9d0077b8:	240e0061 	li	t6,97
9d0077bc:	240d0041 	li	t5,65
9d0077c0:	3c187fff 	lui	t8,0x7fff
9d0077c4:	3718ffff 	ori	t8,t8,0xffff
9d0077c8:	1200002c 	beqz	s0,9d00787c <strtoll+0x190>
9d0077cc:	25080001 	addiu	t0,t0,1
9d0077d0:	02074821 	addu	t1,s0,a3
9d0077d4:	91290000 	lbu	t1,0(t1)
9d0077d8:	312a0004 	andi	t2,t1,0x4
9d0077dc:	11400041 	beqz	t2,9d0078e4 <strtoll+0x1f8>
9d0077e0:	31260003 	andi	a2,t1,0x3
9d0077e4:	2610ffd0 	addiu	s0,s0,-48
9d0077e8:	06000024 	bltz	s0,9d00787c <strtoll+0x190>
9d0077ec:	0212482a 	slt	t1,s0,s2
9d0077f0:	11200022 	beqz	t1,9d00787c <strtoll+0x190>
9d0077f4:	0163482a 	slt	t1,t3,v1
9d0077f8:	55200037 	bnezl	t1,9d0078d8 <strtoll+0x1ec>
9d0077fc:	24050001 	li	a1,1
9d007800:	146b0003 	bne	v1,t3,9d007810 <strtoll+0x124>
9d007804:	01e2202b 	sltu	a0,t7,v0
9d007808:	54800033 	bnezl	a0,9d0078d8 <strtoll+0x1ec>
9d00780c:	24050001 	li	a1,1
9d007810:	14a00030 	bnez	a1,9d0078d4 <strtoll+0x1e8>
9d007814:	02a20018 	mult	s5,v0
9d007818:	001027c3 	sra	a0,s0,0x1f
9d00781c:	71830000 	madd	t4,v1
9d007820:	00003012 	mflo	a2
9d007824:	004c0019 	multu	v0,t4
9d007828:	00001012 	mflo	v0
9d00782c:	00001810 	mfhi	v1
9d007830:	00c31821 	addu	v1,a2,v1
9d007834:	03033023 	subu	a2,t8,v1
9d007838:	00c4482a 	slt	t1,a2,a0
9d00783c:	15200025 	bnez	t1,9d0078d4 <strtoll+0x1e8>
9d007840:	00025027 	nor	t2,zero,v0
9d007844:	54860005 	bnel	a0,a2,9d00785c <strtoll+0x170>
9d007848:	02028021 	addu	s0,s0,v0
9d00784c:	0150502b 	sltu	t2,t2,s0
9d007850:	55400021 	bnezl	t2,9d0078d8 <strtoll+0x1ec>
9d007854:	24050001 	li	a1,1
9d007858:	02028021 	addu	s0,s0,v0
9d00785c:	0202302b 	sltu	a2,s0,v0
9d007860:	00642021 	addu	a0,v1,a0
9d007864:	02001021 	move	v0,s0
9d007868:	00c41821 	addu	v1,a2,a0
9d00786c:	81100001 	lb	s0,1(t0)
9d007870:	24040001 	li	a0,1
9d007874:	1600ffd6 	bnez	s0,9d0077d0 <strtoll+0xe4>
9d007878:	25080001 	addiu	t0,t0,1
9d00787c:	12c0002d 	beqz	s6,9d007934 <strtoll+0x248>
9d007880:	00000000 	nop
9d007884:	54a0003b 	bnezl	a1,9d007974 <strtoll+0x288>
9d007888:	24030022 	li	v1,34
9d00788c:	00023823 	negu	a3,v0
9d007890:	0007282b 	sltu	a1,zero,a3
9d007894:	00033023 	negu	a2,v1
9d007898:	00e01021 	move	v0,a3
9d00789c:	00c51823 	subu	v1,a2,a1
9d0078a0:	12800002 	beqz	s4,9d0078ac <strtoll+0x1c0>
9d0078a4:	0264400a 	movz	t0,s3,a0
9d0078a8:	ae880000 	sw	t0,0(s4)
9d0078ac:	8fbf002c 	lw	ra,44(sp)
9d0078b0:	8fb60028 	lw	s6,40(sp)
9d0078b4:	8fb50024 	lw	s5,36(sp)
9d0078b8:	8fb40020 	lw	s4,32(sp)
9d0078bc:	8fb3001c 	lw	s3,28(sp)
9d0078c0:	8fb20018 	lw	s2,24(sp)
9d0078c4:	8fb10014 	lw	s1,20(sp)
9d0078c8:	8fb00010 	lw	s0,16(sp)
9d0078cc:	03e00008 	jr	ra
9d0078d0:	27bd0030 	addiu	sp,sp,48
9d0078d4:	24050001 	li	a1,1
9d0078d8:	81100001 	lb	s0,1(t0)
9d0078dc:	0b401e1d 	j	9d007874 <strtoll+0x188>
9d0078e0:	24040001 	li	a0,1
9d0078e4:	10c0ffe5 	beqz	a2,9d00787c <strtoll+0x190>
9d0078e8:	31290001 	andi	t1,t1,0x1
9d0078ec:	01a03021 	move	a2,t5
9d0078f0:	01c9300a 	movz	a2,t6,t1
9d0078f4:	02068023 	subu	s0,s0,a2
9d0078f8:	0b401dfa 	j	9d0077e8 <strtoll+0xfc>
9d0078fc:	2610000a 	addiu	s0,s0,10
9d007900:	12420026 	beq	s2,v0,9d00799c <strtoll+0x2b0>
9d007904:	0012afc3 	sra	s5,s2,0x1f
9d007908:	2404ffff 	li	a0,-1
9d00790c:	3c057fff 	lui	a1,0x7fff
9d007910:	34a5ffff 	ori	a1,a1,0xffff
9d007914:	02403021 	move	a2,s2
9d007918:	0f40174a 	jal	9d005d28 <__divdi3>
9d00791c:	02a03821 	move	a3,s5
9d007920:	02406021 	move	t4,s2
9d007924:	00407821 	move	t7,v0
9d007928:	00605821 	move	t3,v1
9d00792c:	0b401de8 	j	9d0077a0 <strtoll+0xb4>
9d007930:	00002021 	move	a0,zero
9d007934:	10a0ffda 	beqz	a1,9d0078a0 <strtoll+0x1b4>
9d007938:	00000000 	nop
9d00793c:	24030022 	li	v1,34
9d007940:	3c02a000 	lui	v0,0xa000
9d007944:	ac430020 	sw	v1,32(v0)
9d007948:	2402ffff 	li	v0,-1
9d00794c:	3c037fff 	lui	v1,0x7fff
9d007950:	0b401e28 	j	9d0078a0 <strtoll+0x1b4>
9d007954:	3463ffff 	ori	v1,v1,0xffff
9d007958:	5443000b 	bnel	v0,v1,9d007988 <strtoll+0x29c>
9d00795c:	2403002d 	li	v1,45
9d007960:	3842002d 	xori	v0,v0,0x2d
9d007964:	82300001 	lb	s0,1(s1)
9d007968:	2c560001 	sltiu	s6,v0,1
9d00796c:	0b401ddc 	j	9d007770 <strtoll+0x84>
9d007970:	26310001 	addiu	s1,s1,1
9d007974:	3c02a000 	lui	v0,0xa000
9d007978:	ac430020 	sw	v1,32(v0)
9d00797c:	00001021 	move	v0,zero
9d007980:	0b401e28 	j	9d0078a0 <strtoll+0x1b4>
9d007984:	3c038000 	lui	v1,0x8000
9d007988:	5043fff6 	beql	v0,v1,9d007964 <strtoll+0x278>
9d00798c:	3842002d 	xori	v0,v0,0x2d
9d007990:	82300000 	lb	s0,0(s1)
9d007994:	0b401ddc 	j	9d007770 <strtoll+0x84>
9d007998:	0000b021 	move	s6,zero
9d00799c:	24020030 	li	v0,48
9d0079a0:	12020023 	beq	s0,v0,9d007a30 <strtoll+0x344>
9d0079a4:	240fffff 	li	t7,-1
9d0079a8:	3c0b07ff 	lui	t3,0x7ff
9d0079ac:	356bffff 	ori	t3,t3,0xffff
9d0079b0:	240c0010 	li	t4,16
9d0079b4:	0000a821 	move	s5,zero
9d0079b8:	0b401de8 	j	9d0077a0 <strtoll+0xb4>
9d0079bc:	00002021 	move	a0,zero
9d0079c0:	82300001 	lb	s0,1(s1)
9d0079c4:	2402ffdf 	li	v0,-33
9d0079c8:	02021824 	and	v1,s0,v0
9d0079cc:	24020058 	li	v0,88
9d0079d0:	5062000a 	beql	v1,v0,9d0079fc <strtoll+0x310>
9d0079d4:	82300002 	lb	s0,2(s1)
9d0079d8:	26310001 	addiu	s1,s1,1
9d0079dc:	240fffff 	li	t7,-1
9d0079e0:	3c0b0fff 	lui	t3,0xfff
9d0079e4:	356bffff 	ori	t3,t3,0xffff
9d0079e8:	240c0008 	li	t4,8
9d0079ec:	0000a821 	move	s5,zero
9d0079f0:	24040001 	li	a0,1
9d0079f4:	0b401de8 	j	9d0077a0 <strtoll+0xb4>
9d0079f8:	24120008 	li	s2,8
9d0079fc:	240fffff 	li	t7,-1
9d007a00:	26310002 	addiu	s1,s1,2
9d007a04:	3c0b07ff 	lui	t3,0x7ff
9d007a08:	356bffff 	ori	t3,t3,0xffff
9d007a0c:	240c0010 	li	t4,16
9d007a10:	0000a821 	move	s5,zero
9d007a14:	24040001 	li	a0,1
9d007a18:	0b401de8 	j	9d0077a0 <strtoll+0xb4>
9d007a1c:	24120010 	li	s2,16
9d007a20:	00008021 	move	s0,zero
9d007a24:	00808821 	move	s1,a0
9d007a28:	0b401ddc 	j	9d007770 <strtoll+0x84>
9d007a2c:	0000b021 	move	s6,zero
9d007a30:	82300001 	lb	s0,1(s1)
9d007a34:	2406ffdf 	li	a2,-33
9d007a38:	02061824 	and	v1,s0,a2
9d007a3c:	24020058 	li	v0,88
9d007a40:	50620009 	beql	v1,v0,9d007a68 <strtoll+0x37c>
9d007a44:	82300002 	lb	s0,2(s1)
9d007a48:	26310001 	addiu	s1,s1,1
9d007a4c:	240fffff 	li	t7,-1
9d007a50:	3c0b07ff 	lui	t3,0x7ff
9d007a54:	356bffff 	ori	t3,t3,0xffff
9d007a58:	240c0010 	li	t4,16
9d007a5c:	0000a821 	move	s5,zero
9d007a60:	0b401de8 	j	9d0077a0 <strtoll+0xb4>
9d007a64:	24040001 	li	a0,1
9d007a68:	240fffff 	li	t7,-1
9d007a6c:	0b401e94 	j	9d007a50 <strtoll+0x364>
9d007a70:	26310002 	addiu	s1,s1,2

Disassembly of section .text.__strtof:

9d007a74 <__strtof>:
9d007a74:	27bdffc8 	addiu	sp,sp,-56

9d007a78 <.LCFI0>:
9d007a78:	afbf0034 	sw	ra,52(sp)
9d007a7c:	afb70030 	sw	s7,48(sp)
9d007a80:	afb6002c 	sw	s6,44(sp)
9d007a84:	afb50028 	sw	s5,40(sp)
9d007a88:	afb40024 	sw	s4,36(sp)
9d007a8c:	afb30020 	sw	s3,32(sp)
9d007a90:	afb2001c 	sw	s2,28(sp)
9d007a94:	afb10018 	sw	s1,24(sp)
9d007a98:	afb00014 	sw	s0,20(sp)
9d007a9c:	0080a821 	move	s5,a0
9d007aa0:	80820000 	lb	v0,0(a0)
9d007aa4:	3c139d01 	lui	s3,0x9d01
9d007aa8:	26739ce1 	addiu	s3,s3,-25375
9d007aac:	02621821 	addu	v1,s3,v0
9d007ab0:	80630000 	lb	v1,0(v1)
9d007ab4:	00a0b021 	move	s6,a1
9d007ab8:	30630088 	andi	v1,v1,0x88
9d007abc:	10600008 	beqz	v1,9d007ae0 <.LCFI0+0x68>
9d007ac0:	00808021 	move	s0,a0
9d007ac4:	26100001 	addiu	s0,s0,1
9d007ac8:	82020000 	lb	v0,0(s0)
9d007acc:	02621821 	addu	v1,s3,v0
9d007ad0:	80630000 	lb	v1,0(v1)
9d007ad4:	30630088 	andi	v1,v1,0x88
9d007ad8:	5460fffb 	bnezl	v1,9d007ac8 <.LCFI0+0x50>
9d007adc:	26100001 	addiu	s0,s0,1
9d007ae0:	2403002d 	li	v1,45
9d007ae4:	10430081 	beq	v0,v1,9d007cec <.LCFI0+0x274>
9d007ae8:	3842002b 	xori	v0,v0,0x2b
9d007aec:	2c420001 	sltiu	v0,v0,1
9d007af0:	0000b821 	move	s7,zero
9d007af4:	02028021 	addu	s0,s0,v0
9d007af8:	82030000 	lb	v1,0(s0)
9d007afc:	02631021 	addu	v0,s3,v1
9d007b00:	90420000 	lbu	v0,0(v0)
9d007b04:	30420004 	andi	v0,v0,0x4
9d007b08:	104000a5 	beqz	v0,9d007da0 <.LCFI0+0x328>
9d007b0c:	00008821 	move	s1,zero
9d007b10:	0000a021 	move	s4,zero
9d007b14:	2472ffd0 	addiu	s2,v1,-48
9d007b18:	02202021 	move	a0,s1
9d007b1c:	0f40251b 	jal	9d00946c <.LFE9>
9d007b20:	3c054120 	lui	a1,0x4120
9d007b24:	00408821 	move	s1,v0
9d007b28:	0f402ce6 	jal	9d00b398 <__floatsisf>
9d007b2c:	02402021 	move	a0,s2
9d007b30:	02202021 	move	a0,s1
9d007b34:	00402821 	move	a1,v0
9d007b38:	0f402382 	jal	9d008e08 <__addsf3>
9d007b3c:	26100001 	addiu	s0,s0,1
9d007b40:	00408821 	move	s1,v0
9d007b44:	82030000 	lb	v1,0(s0)
9d007b48:	02631021 	addu	v0,s3,v1
9d007b4c:	90420000 	lbu	v0,0(v0)
9d007b50:	30420004 	andi	v0,v0,0x4
9d007b54:	1440ffef 	bnez	v0,9d007b14 <.LCFI0+0x9c>
9d007b58:	0292a025 	or	s4,s4,s2
9d007b5c:	24040001 	li	a0,1
9d007b60:	2402002e 	li	v0,46
9d007b64:	5062003e 	beql	v1,v0,9d007c60 <.LCFI0+0x1e8>
9d007b68:	82020001 	lb	v0,1(s0)
9d007b6c:	54800062 	bnezl	a0,9d007cf8 <.LCFI0+0x280>
9d007b70:	82020000 	lb	v0,0(s0)
9d007b74:	12c00024 	beqz	s6,9d007c08 <.LCFI0+0x190>
9d007b78:	00111840 	sll	v1,s1,0x1
9d007b7c:	02a08021 	move	s0,s5
9d007b80:	00009021 	move	s2,zero
9d007b84:	aed00000 	sw	s0,0(s6)
9d007b88:	1240001f 	beqz	s2,9d007c08 <.LCFI0+0x190>
9d007b8c:	00111840 	sll	v1,s1,0x1
9d007b90:	001217c3 	sra	v0,s2,0x1f
9d007b94:	0052a826 	xor	s5,v0,s2
9d007b98:	02a2a823 	subu	s5,s5,v0
9d007b9c:	3c139d01 	lui	s3,0x9d01
9d007ba0:	2673ba1c 	addiu	s3,s3,-17892
9d007ba4:	24100006 	li	s0,6
9d007ba8:	0b401eee 	j	9d007bb8 <.LCFI0+0x140>
9d007bac:	3c023f80 	lui	v0,0x3f80
9d007bb0:	1200000b 	beqz	s0,9d007be0 <.LCFI0+0x168>
9d007bb4:	2673fffc 	addiu	s3,s3,-4
9d007bb8:	2610ffff 	addiu	s0,s0,-1
9d007bbc:	02151807 	srav	v1,s5,s0
9d007bc0:	30630001 	andi	v1,v1,0x1
9d007bc4:	1060fffa 	beqz	v1,9d007bb0 <.LCFI0+0x138>
9d007bc8:	00000000 	nop
9d007bcc:	8e650000 	lw	a1,0(s3)
9d007bd0:	0f40251b 	jal	9d00946c <.LFE9>
9d007bd4:	00402021 	move	a0,v0
9d007bd8:	1600fff7 	bnez	s0,9d007bb8 <.LCFI0+0x140>
9d007bdc:	2673fffc 	addiu	s3,s3,-4
9d007be0:	02202021 	move	a0,s1
9d007be4:	0640006a 	bltz	s2,9d007d90 <.LCFI0+0x318>
9d007be8:	00402821 	move	a1,v0
9d007bec:	0f40251b 	jal	9d00946c <.LFE9>
9d007bf0:	00000000 	nop
9d007bf4:	00402021 	move	a0,v0
9d007bf8:	0f4027ba 	jal	9d009ee8 <__ldexpf>
9d007bfc:	02402821 	move	a1,s2
9d007c00:	00408821 	move	s1,v0
9d007c04:	00111840 	sll	v1,s1,0x1
9d007c08:	3c02ff00 	lui	v0,0xff00
9d007c0c:	5062006c 	beql	v1,v0,9d007dc0 <.LCFI0+0x348>
9d007c10:	24030022 	li	v1,34
9d007c14:	12200068 	beqz	s1,9d007db8 <.LCFI0+0x340>
9d007c18:	00000000 	nop
9d007c1c:	12e00005 	beqz	s7,9d007c34 <.LCFI0+0x1bc>
9d007c20:	02201021 	move	v0,s1
9d007c24:	0f402e9c 	jal	9d00ba70 <__negsf2>
9d007c28:	02202021 	move	a0,s1
9d007c2c:	00408821 	move	s1,v0
9d007c30:	02201021 	move	v0,s1
9d007c34:	8fbf0034 	lw	ra,52(sp)
9d007c38:	8fb70030 	lw	s7,48(sp)
9d007c3c:	8fb6002c 	lw	s6,44(sp)
9d007c40:	8fb50028 	lw	s5,40(sp)
9d007c44:	8fb40024 	lw	s4,36(sp)
9d007c48:	8fb30020 	lw	s3,32(sp)
9d007c4c:	8fb2001c 	lw	s2,28(sp)
9d007c50:	8fb10018 	lw	s1,24(sp)
9d007c54:	8fb00014 	lw	s0,20(sp)
9d007c58:	03e00008 	jr	ra
9d007c5c:	27bd0038 	addiu	sp,sp,56
9d007c60:	02621821 	addu	v1,s3,v0
9d007c64:	90630000 	lbu	v1,0(v1)
9d007c68:	30630004 	andi	v1,v1,0x4
9d007c6c:	1060ffbf 	beqz	v1,9d007b6c <.LCFI0+0xf4>
9d007c70:	26100001 	addiu	s0,s0,1
9d007c74:	00009021 	move	s2,zero
9d007c78:	2455ffd0 	addiu	s5,v0,-48
9d007c7c:	02202021 	move	a0,s1
9d007c80:	0f40251b 	jal	9d00946c <.LFE9>
9d007c84:	3c054120 	lui	a1,0x4120
9d007c88:	00408821 	move	s1,v0
9d007c8c:	0f402ce6 	jal	9d00b398 <__floatsisf>
9d007c90:	02a02021 	move	a0,s5
9d007c94:	02202021 	move	a0,s1
9d007c98:	00402821 	move	a1,v0
9d007c9c:	0f402382 	jal	9d008e08 <__addsf3>
9d007ca0:	26100001 	addiu	s0,s0,1
9d007ca4:	00408821 	move	s1,v0
9d007ca8:	82020000 	lb	v0,0(s0)
9d007cac:	0295a025 	or	s4,s4,s5
9d007cb0:	02621821 	addu	v1,s3,v0
9d007cb4:	90630000 	lbu	v1,0(v1)
9d007cb8:	30630004 	andi	v1,v1,0x4
9d007cbc:	1460ffee 	bnez	v1,9d007c78 <.LCFI0+0x200>
9d007cc0:	2652ffff 	addiu	s2,s2,-1
9d007cc4:	2404ffdf 	li	a0,-33
9d007cc8:	00441824 	and	v1,v0,a0
9d007ccc:	7c031c20 	seb	v1,v1
9d007cd0:	24020045 	li	v0,69
9d007cd4:	5062000f 	beql	v1,v0,9d007d14 <.LCFI0+0x29c>
9d007cd8:	82030001 	lb	v1,1(s0)
9d007cdc:	56c0ffaa 	bnezl	s6,9d007b88 <.LCFI0+0x110>
9d007ce0:	aed00000 	sw	s0,0(s6)
9d007ce4:	0b401ee2 	j	9d007b88 <.LCFI0+0x110>
9d007ce8:	00000000 	nop
9d007cec:	26100001 	addiu	s0,s0,1
9d007cf0:	0b401ebe 	j	9d007af8 <.LCFI0+0x80>
9d007cf4:	24170001 	li	s7,1
9d007cf8:	2404ffdf 	li	a0,-33
9d007cfc:	00441824 	and	v1,v0,a0
9d007d00:	7c031c20 	seb	v1,v1
9d007d04:	24020045 	li	v0,69
9d007d08:	1462fff4 	bne	v1,v0,9d007cdc <.LCFI0+0x264>
9d007d0c:	00009021 	move	s2,zero
9d007d10:	82030001 	lb	v1,1(s0)
9d007d14:	2402002d 	li	v0,45
9d007d18:	10620019 	beq	v1,v0,9d007d80 <.LCFI0+0x308>
9d007d1c:	2402002b 	li	v0,43
9d007d20:	50620022 	beql	v1,v0,9d007dac <.LCFI0+0x334>
9d007d24:	82030002 	lb	v1,2(s0)
9d007d28:	26100001 	addiu	s0,s0,1
9d007d2c:	00003821 	move	a3,zero
9d007d30:	02631021 	addu	v0,s3,v1
9d007d34:	90420000 	lbu	v0,0(v0)
9d007d38:	30420004 	andi	v0,v0,0x4
9d007d3c:	1040000c 	beqz	v0,9d007d70 <.LCFI0+0x2f8>
9d007d40:	00001021 	move	v0,zero
9d007d44:	26100001 	addiu	s0,s0,1
9d007d48:	2465ffd0 	addiu	a1,v1,-48
9d007d4c:	82030000 	lb	v1,0(s0)
9d007d50:	00023040 	sll	a2,v0,0x1
9d007d54:	000210c0 	sll	v0,v0,0x3
9d007d58:	02632021 	addu	a0,s3,v1
9d007d5c:	90840000 	lbu	a0,0(a0)
9d007d60:	00c21021 	addu	v0,a2,v0
9d007d64:	30840004 	andi	a0,a0,0x4
9d007d68:	1480fff6 	bnez	a0,9d007d44 <.LCFI0+0x2cc>
9d007d6c:	00451021 	addu	v0,v0,a1
9d007d70:	00021823 	negu	v1,v0
9d007d74:	0067100b 	movn	v0,v1,a3
9d007d78:	0b401f37 	j	9d007cdc <.LCFI0+0x264>
9d007d7c:	02429021 	addu	s2,s2,v0
9d007d80:	82030002 	lb	v1,2(s0)
9d007d84:	24070001 	li	a3,1
9d007d88:	0b401f4c 	j	9d007d30 <.LCFI0+0x2b8>
9d007d8c:	26100002 	addiu	s0,s0,2
9d007d90:	0f40241e 	jal	9d009078 <__divsf3>
9d007d94:	00000000 	nop
9d007d98:	0b401efe 	j	9d007bf8 <.LCFI0+0x180>
9d007d9c:	00402021 	move	a0,v0
9d007da0:	00002021 	move	a0,zero
9d007da4:	0b401ed8 	j	9d007b60 <.LCFI0+0xe8>
9d007da8:	0000a021 	move	s4,zero
9d007dac:	00003821 	move	a3,zero
9d007db0:	0b401f4c 	j	9d007d30 <.LCFI0+0x2b8>
9d007db4:	26100002 	addiu	s0,s0,2
9d007db8:	1280ff98 	beqz	s4,9d007c1c <.LCFI0+0x1a4>
9d007dbc:	24030022 	li	v1,34
9d007dc0:	3c02a000 	lui	v0,0xa000
9d007dc4:	0b401f07 	j	9d007c1c <.LCFI0+0x1a4>
9d007dc8:	ac430020 	sw	v1,32(v0)

Disassembly of section .text.dp32mul:

9d007dcc <__muldf3>:
9d007dcc:	00055040 000a5542 00054ac0 00047d42     @P..BU...J..B}..
9d007ddc:	012f4825 000442c0 3c0e8000 012e4825     %H/..B.....<%H..
9d007dec:	00076840 000d6d42 000762c0 00067d42     @h..Bm...b..B}..
9d007dfc:	018f6025 00065ac0 018e6025 00a72826     %`...Z..%`..&(..
9d007e0c:	00ae2824 254fffff 2de107fe 10200047     $(....O%...-G. .
9d007e1c:	00000000                                ....

9d007e20 <Clab1>:
9d007e20:	25afffff 	addiu	t7,t5,-1
9d007e24:	2de107fe 	sltiu	at,t7,2046
9d007e28:	1020006f 	beqz	at,9d007fe8 <CspecB>
9d007e2c:	00000000 	nop

9d007e30 <Clab2>:
9d007e30:	25affc02 	addiu	t7,t5,-1022
9d007e34:	014f5021 	addu	t2,t2,t7
9d007e38:	012c0019 	multu	t1,t4
9d007e3c:	00003812 	mflo	a3
9d007e40:	00007010 	mfhi	t6
9d007e44:	010b0019 	multu	t0,t3
9d007e48:	00002012 	mflo	a0
9d007e4c:	00003010 	mfhi	a2
9d007e50:	012b0019 	multu	t1,t3
9d007e54:	00005812 	mflo	t3
9d007e58:	00006810 	mfhi	t5
9d007e5c:	00cb3021 	addu	a2,a2,t3
9d007e60:	00cb782b 	sltu	t7,a2,t3
9d007e64:	00ed3821 	addu	a3,a3,t5
9d007e68:	00ef3821 	addu	a3,a3,t7
9d007e6c:	10ed0002 	beq	a3,t5,9d007e78 <L20>
9d007e70:	00000000 	nop
9d007e74:	00ed782b 	sltu	t7,a3,t5

9d007e78 <L20>:
9d007e78:	01cf7021 	addu	t6,t6,t7
9d007e7c:	010c0019 	multu	t0,t4
9d007e80:	00004012 	mflo	t0
9d007e84:	00004810 	mfhi	t1
9d007e88:	00c83021 	addu	a2,a2,t0
9d007e8c:	00c8782b 	sltu	t7,a2,t0
9d007e90:	00e93821 	addu	a3,a3,t1
9d007e94:	00ef3821 	addu	a3,a3,t7
9d007e98:	10e90002 	beq	a3,t1,9d007ea4 <L21>
9d007e9c:	00000000 	nop
9d007ea0:	00e9782b 	sltu	t7,a3,t1

9d007ea4 <L21>:
9d007ea4:	01cf7021 	addu	t6,t6,t7
9d007ea8:	00867825 	or	t7,a0,a2
9d007eac:	11e00002 	beqz	t7,9d007eb8 <i13>
9d007eb0:	00000000 	nop
9d007eb4:	34e70001 	ori	a3,a3,0x1

9d007eb8 <i13>:
9d007eb8:	000e4825 	or	t1,zero,t6
9d007ebc:	05200006 	bltz	t1,9d007ed8 <i14>
9d007ec0:	00074025 	or	t0,zero,a3
9d007ec4:	0100782a 	slt	t7,t0,zero
9d007ec8:	01084021 	addu	t0,t0,t0
9d007ecc:	01294821 	addu	t1,t1,t1
9d007ed0:	012f4821 	addu	t1,t1,t7
9d007ed4:	254affff 	addiu	t2,t2,-1

9d007ed8 <i14>:
9d007ed8:	254fffff 	addiu	t7,t2,-1
9d007edc:	2de107fe 	sltiu	at,t7,2046
9d007ee0:	10200068 	beqz	at,9d008084 <Coveund>
9d007ee4:	00000000 	nop
9d007ee8:	25080400 	addiu	t0,t0,1024
9d007eec:	2d0f0400 	sltiu	t7,t0,1024
9d007ef0:	012f4821 	addu	t1,t1,t7
9d007ef4:	012f782b 	sltu	t7,t1,t7
9d007ef8:	014f5021 	addu	t2,t2,t7

9d007efc <Clab8>:
9d007efc:	00087ac2 	srl	t7,t0,0xb
9d007f00:	31ef0001 	andi	t7,t7,0x1
9d007f04:	010f4023 	subu	t0,t0,t7
9d007f08:	000822c2 	srl	a0,t0,0xb
9d007f0c:	00097d40 	sll	t7,t1,0x15
9d007f10:	008f2025 	or	a0,a0,t7
9d007f14:	00097840 	sll	t7,t1,0x1
9d007f18:	000f7b02 	srl	t7,t7,0xc
9d007f1c:	00af2825 	or	a1,a1,t7
9d007f20:	000a7d00 	sll	t7,t2,0x14
9d007f24:	00af2825 	or	a1,a1,t7

9d007f28 <Cret>:
9d007f28:	00041025 	or	v0,zero,a0
9d007f2c:	00051825 	or	v1,zero,a1

9d007f30 <C999>:
9d007f30:	03e00008 	jr	ra
9d007f34:	00000000 	nop

9d007f38 <CspecA>:
9d007f38:	0100782a 	slt	t7,t0,zero
9d007f3c:	01084021 	addu	t0,t0,t0
9d007f40:	01294821 	addu	t1,t1,t1
9d007f44:	1540001c 	bnez	t2,9d007fb8 <i15>
9d007f48:	012f4821 	addu	t1,t1,t7
9d007f4c:	01287825 	or	t7,t1,t0
9d007f50:	11e00014 	beqz	t7,9d007fa4 <i16>
9d007f54:	00000000 	nop
9d007f58:	15200008 	bnez	t1,9d007f7c <L22>
9d007f5c:	00000000 	nop
9d007f60:	15000003 	bnez	t0,9d007f70 <L23>
9d007f64:	00000000 	nop
9d007f68:	1000ffad 	b	9d007e20 <Clab1>
9d007f6c:	240a0000 	li	t2,0

9d007f70 <L23>:
9d007f70:	01004825 	move	t1,t0
9d007f74:	24080000 	li	t0,0
9d007f78:	254affe0 	addiu	t2,t2,-32

9d007f7c <L22>:
9d007f7c:	712e7020 	clz	t6,t1
9d007f80:	11c0ffa7 	beqz	t6,9d007e20 <Clab1>
9d007f84:	00000000 	nop
9d007f88:	014e5023 	subu	t2,t2,t6
9d007f8c:	000e3822 	neg	a3,t6
9d007f90:	00e83806 	srlv	a3,t0,a3
9d007f94:	01c84004 	sllv	t0,t0,t6
9d007f98:	01c94804 	sllv	t1,t1,t6
9d007f9c:	1000ffa0 	b	9d007e20 <Clab1>
9d007fa0:	01274825 	or	t1,t1,a3

9d007fa4 <i16>:
9d007fa4:	240107ff 	li	at,2047
9d007fa8:	11a10033 	beq	t5,at,9d008078 <Cnan>
9d007fac:	00000000 	nop
9d007fb0:	1000ffdd 	b	9d007f28 <Cret>
9d007fb4:	00000000 	nop

9d007fb8 <i15>:
9d007fb8:	01287825 	or	t7,t1,t0
9d007fbc:	15e0002e 	bnez	t7,9d008078 <Cnan>
9d007fc0:	00000000 	nop
9d007fc4:	15a00005 	bnez	t5,9d007fdc <i17>
9d007fc8:	00000000 	nop
9d007fcc:	000c7840 	sll	t7,t4,0x1
9d007fd0:	01eb7825 	or	t7,t7,t3
9d007fd4:	11e00028 	beqz	t7,9d008078 <Cnan>
9d007fd8:	00000000 	nop

9d007fdc <i17>:
9d007fdc:	240107ff 	li	at,2047
9d007fe0:	15a10021 	bne	t5,at,9d008068 <Cinf>
9d007fe4:	00000000 	nop

9d007fe8 <CspecB>:
9d007fe8:	0160782a 	slt	t7,t3,zero
9d007fec:	016b5821 	addu	t3,t3,t3
9d007ff0:	018c6021 	addu	t4,t4,t4
9d007ff4:	15a00019 	bnez	t5,9d00805c <i18>
9d007ff8:	018f6021 	addu	t4,t4,t7
9d007ffc:	018b7825 	or	t7,t4,t3
9d008000:	11e00014 	beqz	t7,9d008054 <i19>
9d008004:	00000000 	nop
9d008008:	15800008 	bnez	t4,9d00802c <L25>
9d00800c:	00000000 	nop
9d008010:	15600003 	bnez	t3,9d008020 <L26>
9d008014:	00000000 	nop
9d008018:	1000ff85 	b	9d007e30 <Clab2>
9d00801c:	240d0000 	li	t5,0

9d008020 <L26>:
9d008020:	01606025 	move	t4,t3
9d008024:	240b0000 	li	t3,0
9d008028:	25adffe0 	addiu	t5,t5,-32

9d00802c <L25>:
9d00802c:	71863020 	clz	a2,t4
9d008030:	10c0ff7f 	beqz	a2,9d007e30 <Clab2>
9d008034:	00000000 	nop
9d008038:	01a66823 	subu	t5,t5,a2
9d00803c:	00067022 	neg	t6,a2
9d008040:	01cb7006 	srlv	t6,t3,t6
9d008044:	00cb5804 	sllv	t3,t3,a2
9d008048:	00cc6004 	sllv	t4,t4,a2
9d00804c:	1000ff78 	b	9d007e30 <Clab2>
9d008050:	018e6025 	or	t4,t4,t6

9d008054 <i19>:
9d008054:	1000ffb4 	b	9d007f28 <Cret>
9d008058:	24040000 	li	a0,0

9d00805c <i18>:
9d00805c:	018b7825 	or	t7,t4,t3
9d008060:	15e00005 	bnez	t7,9d008078 <Cnan>
9d008064:	00000000 	nop

9d008068 <Cinf>:
9d008068:	3c017ff0 	lui	at,0x7ff0
9d00806c:	00a12825 	or	a1,a1,at
9d008070:	1000ffad 	b	9d007f28 <Cret>
9d008074:	24040000 	li	a0,0

9d008078 <Cnan>:
9d008078:	3c05fff8 	lui	a1,0xfff8
9d00807c:	1000ffaa 	b	9d007f28 <Cret>
9d008080:	24040000 	li	a0,0

9d008084 <Coveund>:
9d008084:	1d40fff8 	bgtz	t2,9d008068 <Cinf>
9d008088:	00000000 	nop
9d00808c:	240e0001 	li	t6,1
9d008090:	01ca7023 	subu	t6,t6,t2

9d008094 <L28>:
9d008094:	2dc10020 	sltiu	at,t6,32
9d008098:	14200007 	bnez	at,9d0080b8 <L29>
9d00809c:	00000000 	nop
9d0080a0:	21ceffe0 	addi	t6,t6,-32
9d0080a4:	0008302b 	sltu	a2,zero,t0
9d0080a8:	1009000d 	beq	zero,t1,9d0080e0 <L30>
9d0080ac:	01264025 	or	t0,t1,a2
9d0080b0:	1000fff8 	b	9d008094 <L28>
9d0080b4:	34090000 	li	t1,0x0

9d0080b8 <L29>:
9d0080b8:	11c00009 	beqz	t6,9d0080e0 <L30>
9d0080bc:	00000000 	nop
9d0080c0:	000e3822 	neg	a3,t6
9d0080c4:	00e83004 	sllv	a2,t0,a3
9d0080c8:	00e93804 	sllv	a3,t1,a3
9d0080cc:	01c84006 	srlv	t0,t0,t6
9d0080d0:	01c94806 	srlv	t1,t1,t6
9d0080d4:	10c00002 	beqz	a2,9d0080e0 <L30>
9d0080d8:	00e84025 	or	t0,a3,t0
9d0080dc:	35080002 	ori	t0,t0,0x2

9d0080e0 <L30>:
9d0080e0:	25080400 	addiu	t0,t0,1024
9d0080e4:	2d0f0400 	sltiu	t7,t0,1024
9d0080e8:	012f4821 	addu	t1,t1,t7
9d0080ec:	1000ff83 	b	9d007efc <Clab8>
9d0080f0:	000957c2 	srl	t2,t1,0x1f
9d0080f4:	00000000 	nop

Disassembly of section .text.strtoull:

9d0080f8 <strtoull>:
9d0080f8:	27bdffd0 	addiu	sp,sp,-48
9d0080fc:	afbf002c 	sw	ra,44(sp)
9d008100:	afb50028 	sw	s5,40(sp)
9d008104:	afb40024 	sw	s4,36(sp)
9d008108:	afb30020 	sw	s3,32(sp)
9d00810c:	afb2001c 	sw	s2,28(sp)
9d008110:	afb10018 	sw	s1,24(sp)
9d008114:	afb00014 	sw	s0,20(sp)
9d008118:	00808821 	move	s1,a0
9d00811c:	80820000 	lb	v0,0(a0)
9d008120:	00a09821 	move	s3,a1
9d008124:	1040001f 	beqz	v0,9d0081a4 <strtoull+0xac>
9d008128:	00c09021 	move	s2,a2
9d00812c:	3c049d01 	lui	a0,0x9d01
9d008130:	24849ce1 	addiu	a0,a0,-25375
9d008134:	0b402052 	j	9d008148 <strtoull+0x50>
9d008138:	00821821 	addu	v1,a0,v0
9d00813c:	82220000 	lb	v0,0(s1)
9d008140:	10400018 	beqz	v0,9d0081a4 <strtoull+0xac>
9d008144:	00821821 	addu	v1,a0,v0
9d008148:	80630000 	lb	v1,0(v1)
9d00814c:	30630088 	andi	v1,v1,0x88
9d008150:	5460fffa 	bnezl	v1,9d00813c <strtoull+0x44>
9d008154:	26310001 	addiu	s1,s1,1
9d008158:	2403002b 	li	v1,43
9d00815c:	14430079 	bne	v0,v1,9d008344 <strtoull+0x24c>
9d008160:	2403002d 	li	v1,45
9d008164:	3842002d 	xori	v0,v0,0x2d
9d008168:	82300001 	lb	s0,1(s1)
9d00816c:	2c550001 	sltiu	s5,v0,1
9d008170:	26310001 	addiu	s1,s1,1
9d008174:	1640000f 	bnez	s2,9d0081b4 <strtoull+0xbc>
9d008178:	24020010 	li	v0,16
9d00817c:	24020030 	li	v0,48
9d008180:	12020075 	beq	s0,v0,9d008358 <strtoull+0x260>
9d008184:	3c0d9999 	lui	t5,0x9999
9d008188:	35ad9999 	ori	t5,t5,0x9999
9d00818c:	3c0a1999 	lui	t2,0x1999
9d008190:	354a9999 	ori	t2,t2,0x9999
9d008194:	240b000a 	li	t3,10
9d008198:	0000a021 	move	s4,zero
9d00819c:	0b402077 	j	9d0081dc <strtoull+0xe4>
9d0081a0:	2412000a 	li	s2,10
9d0081a4:	00008021 	move	s0,zero
9d0081a8:	1240fff4 	beqz	s2,9d00817c <strtoull+0x84>
9d0081ac:	0000a821 	move	s5,zero
9d0081b0:	24020010 	li	v0,16
9d0081b4:	12420076 	beq	s2,v0,9d008390 <strtoull+0x298>
9d0081b8:	0012a7c3 	sra	s4,s2,0x1f
9d0081bc:	2404ffff 	li	a0,-1
9d0081c0:	2405ffff 	li	a1,-1
9d0081c4:	02403021 	move	a2,s2
9d0081c8:	0f401990 	jal	9d006640 <.LFE1>
9d0081cc:	02803821 	move	a3,s4
9d0081d0:	02405821 	move	t3,s2
9d0081d4:	00406821 	move	t5,v0
9d0081d8:	00605021 	move	t2,v1
9d0081dc:	2624ffff 	addiu	a0,s1,-1
9d0081e0:	00002821 	move	a1,zero
9d0081e4:	00001021 	move	v0,zero
9d0081e8:	00001821 	move	v1,zero
9d0081ec:	3c079d01 	lui	a3,0x9d01
9d0081f0:	24e79ce1 	addiu	a3,a3,-25375
9d0081f4:	240e0061 	li	t6,97
9d0081f8:	240c0041 	li	t4,65
9d0081fc:	1200002b 	beqz	s0,9d0082ac <strtoull+0x1b4>
9d008200:	24840001 	addiu	a0,a0,1
9d008204:	02074021 	addu	t0,s0,a3
9d008208:	91080000 	lbu	t0,0(t0)
9d00820c:	31090004 	andi	t1,t0,0x4
9d008210:	1120003d 	beqz	t1,9d008308 <strtoull+0x210>
9d008214:	31060003 	andi	a2,t0,0x3
9d008218:	2610ffd0 	addiu	s0,s0,-48
9d00821c:	06000023 	bltz	s0,9d0082ac <strtoull+0x1b4>
9d008220:	0212402a 	slt	t0,s0,s2
9d008224:	11000021 	beqz	t0,9d0082ac <strtoull+0x1b4>
9d008228:	0143402b 	sltu	t0,t2,v1
9d00822c:	55000034 	bnezl	t0,9d008300 <strtoull+0x208>
9d008230:	24050001 	li	a1,1
9d008234:	146a0003 	bne	v1,t2,9d008244 <strtoull+0x14c>
9d008238:	01a2302b 	sltu	a2,t5,v0
9d00823c:	54c00030 	bnezl	a2,9d008300 <strtoull+0x208>
9d008240:	24050001 	li	a1,1
9d008244:	14a00016 	bnez	a1,9d0082a0 <strtoull+0x1a8>
9d008248:	02820018 	mult	s4,v0
9d00824c:	001047c3 	sra	t0,s0,0x1f
9d008250:	71630000 	madd	t3,v1
9d008254:	00003012 	mflo	a2
9d008258:	004b0019 	multu	v0,t3
9d00825c:	00001012 	mflo	v0
9d008260:	00001810 	mfhi	v1
9d008264:	00c31821 	addu	v1,a2,v1
9d008268:	00033027 	nor	a2,zero,v1
9d00826c:	00c8482b 	sltu	t1,a2,t0
9d008270:	15200022 	bnez	t1,9d0082fc <strtoull+0x204>
9d008274:	00027827 	nor	t7,zero,v0
9d008278:	55060005 	bnel	t0,a2,9d008290 <strtoull+0x198>
9d00827c:	02028021 	addu	s0,s0,v0
9d008280:	01f0782b 	sltu	t7,t7,s0
9d008284:	55e0001e 	bnezl	t7,9d008300 <strtoull+0x208>
9d008288:	24050001 	li	a1,1
9d00828c:	02028021 	addu	s0,s0,v0
9d008290:	0202302b 	sltu	a2,s0,v0
9d008294:	00684021 	addu	t0,v1,t0
9d008298:	02001021 	move	v0,s0
9d00829c:	00c81821 	addu	v1,a2,t0
9d0082a0:	80900001 	lb	s0,1(a0)
9d0082a4:	1600ffd7 	bnez	s0,9d008204 <strtoull+0x10c>
9d0082a8:	24840001 	addiu	a0,a0,1
9d0082ac:	12a0001d 	beqz	s5,9d008324 <strtoull+0x22c>
9d0082b0:	00000000 	nop
9d0082b4:	54a0001e 	bnezl	a1,9d008330 <strtoull+0x238>
9d0082b8:	24030022 	li	v1,34
9d0082bc:	00023823 	negu	a3,v0
9d0082c0:	0007282b 	sltu	a1,zero,a3
9d0082c4:	00033023 	negu	a2,v1
9d0082c8:	00e01021 	move	v0,a3
9d0082cc:	00c51823 	subu	v1,a2,a1
9d0082d0:	56600001 	bnezl	s3,9d0082d8 <strtoull+0x1e0>
9d0082d4:	ae640000 	sw	a0,0(s3)
9d0082d8:	8fbf002c 	lw	ra,44(sp)
9d0082dc:	8fb50028 	lw	s5,40(sp)
9d0082e0:	8fb40024 	lw	s4,36(sp)
9d0082e4:	8fb30020 	lw	s3,32(sp)
9d0082e8:	8fb2001c 	lw	s2,28(sp)
9d0082ec:	8fb10018 	lw	s1,24(sp)
9d0082f0:	8fb00014 	lw	s0,20(sp)
9d0082f4:	03e00008 	jr	ra
9d0082f8:	27bd0030 	addiu	sp,sp,48
9d0082fc:	24050001 	li	a1,1
9d008300:	0b4020a9 	j	9d0082a4 <strtoull+0x1ac>
9d008304:	80900001 	lb	s0,1(a0)
9d008308:	10c0ffe8 	beqz	a2,9d0082ac <strtoull+0x1b4>
9d00830c:	31080001 	andi	t0,t0,0x1
9d008310:	01803021 	move	a2,t4
9d008314:	01c8300a 	movz	a2,t6,t0
9d008318:	02068023 	subu	s0,s0,a2
9d00831c:	0b402087 	j	9d00821c <strtoull+0x124>
9d008320:	2610000a 	addiu	s0,s0,10
9d008324:	10a0ffea 	beqz	a1,9d0082d0 <strtoull+0x1d8>
9d008328:	00000000 	nop
9d00832c:	24030022 	li	v1,34
9d008330:	3c02a000 	lui	v0,0xa000
9d008334:	ac430020 	sw	v1,32(v0)
9d008338:	2402ffff 	li	v0,-1
9d00833c:	0b4020b4 	j	9d0082d0 <strtoull+0x1d8>
9d008340:	2403ffff 	li	v1,-1
9d008344:	1043ff88 	beq	v0,v1,9d008168 <strtoull+0x70>
9d008348:	3842002d 	xori	v0,v0,0x2d
9d00834c:	82300000 	lb	s0,0(s1)
9d008350:	0b40205d 	j	9d008174 <strtoull+0x7c>
9d008354:	0000a821 	move	s5,zero
9d008358:	82300001 	lb	s0,1(s1)
9d00835c:	2402ffdf 	li	v0,-33
9d008360:	02021824 	and	v1,s0,v0
9d008364:	24020058 	li	v0,88
9d008368:	50620012 	beql	v1,v0,9d0083b4 <strtoull+0x2bc>
9d00836c:	82300002 	lb	s0,2(s1)
9d008370:	26310001 	addiu	s1,s1,1
9d008374:	240dffff 	li	t5,-1
9d008378:	3c0a1fff 	lui	t2,0x1fff
9d00837c:	354affff 	ori	t2,t2,0xffff
9d008380:	240b0008 	li	t3,8
9d008384:	0000a021 	move	s4,zero
9d008388:	0b402077 	j	9d0081dc <strtoull+0xe4>
9d00838c:	24120008 	li	s2,8
9d008390:	24020030 	li	v0,48
9d008394:	5202000f 	beql	s0,v0,9d0083d4 <strtoull+0x2dc>
9d008398:	82300001 	lb	s0,1(s1)
9d00839c:	240dffff 	li	t5,-1
9d0083a0:	3c0a0fff 	lui	t2,0xfff
9d0083a4:	354affff 	ori	t2,t2,0xffff
9d0083a8:	240b0010 	li	t3,16
9d0083ac:	0b402077 	j	9d0081dc <strtoull+0xe4>
9d0083b0:	0000a021 	move	s4,zero
9d0083b4:	240dffff 	li	t5,-1
9d0083b8:	26310002 	addiu	s1,s1,2
9d0083bc:	3c0a0fff 	lui	t2,0xfff
9d0083c0:	354affff 	ori	t2,t2,0xffff
9d0083c4:	240b0010 	li	t3,16
9d0083c8:	0000a021 	move	s4,zero
9d0083cc:	0b402077 	j	9d0081dc <strtoull+0xe4>
9d0083d0:	24120010 	li	s2,16
9d0083d4:	24020078 	li	v0,120
9d0083d8:	52020003 	beql	s0,v0,9d0083e8 <strtoull+0x2f0>
9d0083dc:	82300002 	lb	s0,2(s1)
9d0083e0:	0b4020e7 	j	9d00839c <strtoull+0x2a4>
9d0083e4:	26310001 	addiu	s1,s1,1
9d0083e8:	240dffff 	li	t5,-1
9d0083ec:	26310002 	addiu	s1,s1,2
9d0083f0:	3c0a0fff 	lui	t2,0xfff
9d0083f4:	354affff 	ori	t2,t2,0xffff
9d0083f8:	240b0010 	li	t3,16
9d0083fc:	0b402077 	j	9d0081dc <strtoull+0xe4>
9d008400:	0000a021 	move	s4,zero

Disassembly of section .text._strtostr:

9d008404 <_strtostr>:
9d008404:	27bdfec8 	addiu	sp,sp,-312
9d008408:	afbf0134 	sw	ra,308(sp)
9d00840c:	afbe0130 	sw	s8,304(sp)
9d008410:	afb7012c 	sw	s7,300(sp)
9d008414:	afb60128 	sw	s6,296(sp)
9d008418:	afb50124 	sw	s5,292(sp)
9d00841c:	afb40120 	sw	s4,288(sp)
9d008420:	afb3011c 	sw	s3,284(sp)
9d008424:	afb20118 	sw	s2,280(sp)
9d008428:	afb10114 	sw	s1,276(sp)
9d00842c:	afb00110 	sw	s0,272(sp)
9d008430:	00808021 	move	s0,a0
9d008434:	afa5013c 	sw	a1,316(sp)
9d008438:	00c09821 	move	s3,a2
9d00843c:	00e0b021 	move	s6,a3
9d008440:	24020002 	li	v0,2
9d008444:	10820056 	beq	a0,v0,9d0085a0 <_strtostr+0x19c>
9d008448:	8fb20148 	lw	s2,328(sp)
9d00844c:	32730001 	andi	s3,s3,0x1
9d008450:	16600005 	bnez	s3,9d008468 <_strtostr+0x64>
9d008454:	00000000 	nop
9d008458:	8e42000c 	lw	v0,12(s2)
9d00845c:	24430004 	addiu	v1,v0,4
9d008460:	ae43000c 	sw	v1,12(s2)
9d008464:	8c510000 	lw	s1,0(v0)
9d008468:	12c00081 	beqz	s6,9d008670 <_strtostr+0x26c>
9d00846c:	02c0b821 	move	s7,s6
9d008470:	2414ffff 	li	s4,-1
9d008474:	24150001 	li	s5,1
9d008478:	3c1e9d01 	lui	s8,0x9d01
9d00847c:	27de9ce1 	addiu	s8,s8,-25375
9d008480:	0f402cb4 	jal	9d00b2d0 <gsgetc>
9d008484:	02402021 	move	a0,s2
9d008488:	50540011 	beql	v0,s4,9d0084d0 <_strtostr+0xcc>
9d00848c:	02e01821 	move	v1,s7
9d008490:	12150038 	beq	s0,s5,9d008574 <_strtostr+0x170>
9d008494:	26e3ffff 	addiu	v1,s7,-1
9d008498:	24040002 	li	a0,2
9d00849c:	1204002b 	beq	s0,a0,9d00854c <_strtostr+0x148>
9d0084a0:	27a50010 	addiu	a1,sp,16
9d0084a4:	16600003 	bnez	s3,9d0084b4 <_strtostr+0xb0>
9d0084a8:	00000000 	nop
9d0084ac:	a2220000 	sb	v0,0(s1)
9d0084b0:	26310001 	addiu	s1,s1,1
9d0084b4:	10600006 	beqz	v1,9d0084d0 <_strtostr+0xcc>
9d0084b8:	0060b821 	move	s7,v1
9d0084bc:	0f402cb4 	jal	9d00b2d0 <gsgetc>
9d0084c0:	02402021 	move	a0,s2
9d0084c4:	1454fff2 	bne	v0,s4,9d008490 <_strtostr+0x8c>
9d0084c8:	00000000 	nop
9d0084cc:	02e01821 	move	v1,s7
9d0084d0:	2402ffff 	li	v0,-1
9d0084d4:	8e440014 	lw	a0,20(s2)
9d0084d8:	24840001 	addiu	a0,a0,1
9d0084dc:	16600008 	bnez	s3,9d008500 <_strtostr+0xfc>
9d0084e0:	ae440014 	sw	a0,20(s2)
9d0084e4:	24040001 	li	a0,1
9d0084e8:	8fa6013c 	lw	a2,316(sp)
9d0084ec:	50c40001 	beql	a2,a0,9d0084f4 <_strtostr+0xf0>
9d0084f0:	a2200000 	sb	zero,0(s1)
9d0084f4:	8e440018 	lw	a0,24(s2)
9d0084f8:	24840001 	addiu	a0,a0,1
9d0084fc:	ae440018 	sw	a0,24(s2)
9d008500:	14760005 	bne	v1,s6,9d008518 <_strtostr+0x114>
9d008504:	00002021 	move	a0,zero
9d008508:	2404ffff 	li	a0,-1
9d00850c:	00021027 	nor	v0,zero,v0
9d008510:	24030001 	li	v1,1
9d008514:	0062200b 	movn	a0,v1,v0
9d008518:	00801021 	move	v0,a0
9d00851c:	8fbf0134 	lw	ra,308(sp)
9d008520:	8fbe0130 	lw	s8,304(sp)
9d008524:	8fb7012c 	lw	s7,300(sp)
9d008528:	8fb60128 	lw	s6,296(sp)
9d00852c:	8fb50124 	lw	s5,292(sp)
9d008530:	8fb40120 	lw	s4,288(sp)
9d008534:	8fb3011c 	lw	s3,284(sp)
9d008538:	8fb20118 	lw	s2,280(sp)
9d00853c:	8fb10114 	lw	s1,276(sp)
9d008540:	8fb00110 	lw	s0,272(sp)
9d008544:	03e00008 	jr	ra
9d008548:	27bd0138 	addiu	sp,sp,312
9d00854c:	00a22021 	addu	a0,a1,v0
9d008550:	80840000 	lb	a0,0(a0)
9d008554:	1480ffd3 	bnez	a0,9d0084a4 <_strtostr+0xa0>
9d008558:	00000000 	nop
9d00855c:	8e440010 	lw	a0,16(s2)
9d008560:	ae420004 	sw	v0,4(s2)
9d008564:	02e01821 	move	v1,s7
9d008568:	2484ffff 	addiu	a0,a0,-1
9d00856c:	0b402135 	j	9d0084d4 <_strtostr+0xd0>
9d008570:	ae440010 	sw	a0,16(s2)
9d008574:	005e2021 	addu	a0,v0,s8
9d008578:	80840000 	lb	a0,0(a0)
9d00857c:	30840088 	andi	a0,a0,0x88
9d008580:	1080ffc8 	beqz	a0,9d0084a4 <_strtostr+0xa0>
9d008584:	00000000 	nop
9d008588:	8e440010 	lw	a0,16(s2)
9d00858c:	ae420004 	sw	v0,4(s2)
9d008590:	02e01821 	move	v1,s7
9d008594:	2484ffff 	addiu	a0,a0,-1
9d008598:	0b402135 	j	9d0084d4 <_strtostr+0xd0>
9d00859c:	ae440010 	sw	a0,16(s2)
9d0085a0:	8e540008 	lw	s4,8(s2)
9d0085a4:	82830000 	lb	v1,0(s4)
9d0085a8:	2402005e 	li	v0,94
9d0085ac:	50620032 	beql	v1,v0,9d008678 <_strtostr+0x274>
9d0085b0:	26940001 	addiu	s4,s4,1
9d0085b4:	24150001 	li	s5,1
9d0085b8:	00002821 	move	a1,zero
9d0085bc:	27a40010 	addiu	a0,sp,16
9d0085c0:	0f402e2c 	jal	9d00b8b0 <.LFE1>
9d0085c4:	24060100 	li	a2,256
9d0085c8:	82830000 	lb	v1,0(s4)
9d0085cc:	2405ffff 	li	a1,-1
9d0085d0:	2409ffff 	li	t1,-1
9d0085d4:	240a002d 	li	t2,45
9d0085d8:	2408005d 	li	t0,93
9d0085dc:	0b402183 	j	9d00860c <_strtostr+0x208>
9d0085e0:	7c152420 	seb	a0,s5
9d0085e4:	00602821 	move	a1,v1
9d0085e8:	27a30010 	addiu	v1,sp,16
9d0085ec:	00651021 	addu	v0,v1,a1
9d0085f0:	a0550000 	sb	s5,0(v0)
9d0085f4:	02801021 	move	v0,s4
9d0085f8:	24540001 	addiu	s4,v0,1
9d0085fc:	ae540008 	sw	s4,8(s2)
9d008600:	80430001 	lb	v1,1(v0)
9d008604:	50680018 	beql	v1,t0,9d008668 <_strtostr+0x264>
9d008608:	24420002 	addiu	v0,v0,2
9d00860c:	10a9fff5 	beq	a1,t1,9d0085e4 <_strtostr+0x1e0>
9d008610:	82870001 	lb	a3,1(s4)
9d008614:	546afff4 	bnel	v1,t2,9d0085e8 <_strtostr+0x1e4>
9d008618:	00602821 	move	a1,v1
9d00861c:	10e8fff1 	beq	a3,t0,9d0085e4 <_strtostr+0x1e0>
9d008620:	24a20001 	addiu	v0,a1,1
9d008624:	00e2282a 	slt	a1,a3,v0
9d008628:	27a30010 	addiu	v1,sp,16
9d00862c:	00621021 	addu	v0,v1,v0
9d008630:	27a60011 	addiu	a2,sp,17
9d008634:	14a00005 	bnez	a1,9d00864c <_strtostr+0x248>
9d008638:	00c71821 	addu	v1,a2,a3
9d00863c:	a0440000 	sb	a0,0(v0)
9d008640:	24420001 	addiu	v0,v0,1
9d008644:	5443fffe 	bnel	v0,v1,9d008640 <_strtostr+0x23c>
9d008648:	a0440000 	sb	a0,0(v0)
9d00864c:	26820001 	addiu	v0,s4,1
9d008650:	24540001 	addiu	s4,v0,1
9d008654:	ae540008 	sw	s4,8(s2)
9d008658:	80430001 	lb	v1,1(v0)
9d00865c:	1468ffeb 	bne	v1,t0,9d00860c <_strtostr+0x208>
9d008660:	2405ffff 	li	a1,-1
9d008664:	24420002 	addiu	v0,v0,2
9d008668:	0b402113 	j	9d00844c <_strtostr+0x48>
9d00866c:	ae420008 	sw	v0,8(s2)
9d008670:	0b402134 	j	9d0084d0 <_strtostr+0xcc>
9d008674:	00001821 	move	v1,zero
9d008678:	ae540008 	sw	s4,8(s2)
9d00867c:	0000a821 	move	s5,zero
9d008680:	0b40216f 	j	9d0085bc <_strtostr+0x1b8>
9d008684:	24050001 	li	a1,1

Disassembly of section .text.strtoul:

9d008688 <strtoul>:
9d008688:	80820000 	lb	v0,0(a0)
9d00868c:	10400089 	beqz	v0,9d0088b4 <strtoul+0x22c>
9d008690:	00001821 	move	v1,zero
9d008694:	3c089d01 	lui	t0,0x9d01
9d008698:	25089ce1 	addiu	t0,t0,-25375
9d00869c:	01021821 	addu	v1,t0,v0
9d0086a0:	80630000 	lb	v1,0(v1)
9d0086a4:	30630088 	andi	v1,v1,0x88
9d0086a8:	14600007 	bnez	v1,9d0086c8 <strtoul+0x40>
9d0086ac:	00803821 	move	a3,a0
9d0086b0:	0b402206 	j	9d008818 <strtoul+0x190>
9d0086b4:	2403002b 	li	v1,43
9d0086b8:	80630000 	lb	v1,0(v1)
9d0086bc:	30630088 	andi	v1,v1,0x88
9d0086c0:	50600055 	beqzl	v1,9d008818 <strtoul+0x190>
9d0086c4:	2403002b 	li	v1,43
9d0086c8:	24e70001 	addiu	a3,a3,1
9d0086cc:	80e20000 	lb	v0,0(a3)
9d0086d0:	1440fff9 	bnez	v0,9d0086b8 <strtoul+0x30>
9d0086d4:	01021821 	addu	v1,t0,v0
9d0086d8:	00001821 	move	v1,zero
9d0086dc:	0000c021 	move	t8,zero
9d0086e0:	14c00041 	bnez	a2,9d0087e8 <strtoul+0x160>
9d0086e4:	24020010 	li	v0,16
9d0086e8:	24020030 	li	v0,48
9d0086ec:	1062005d 	beq	v1,v0,9d008864 <strtoul+0x1dc>
9d0086f0:	3c0d1999 	lui	t5,0x1999
9d0086f4:	35ad9999 	ori	t5,t5,0x9999
9d0086f8:	240f000a 	li	t7,10
9d0086fc:	00005821 	move	t3,zero
9d008700:	2406000a 	li	a2,10
9d008704:	24e7ffff 	addiu	a3,a3,-1
9d008708:	00005021 	move	t2,zero
9d00870c:	00001021 	move	v0,zero
9d008710:	3c0c9d01 	lui	t4,0x9d01
9d008714:	258c9ce1 	addiu	t4,t4,-25375
9d008718:	24190061 	li	t9,97
9d00871c:	240e0041 	li	t6,65
9d008720:	10600019 	beqz	v1,9d008788 <strtoul+0x100>
9d008724:	24e70001 	addiu	a3,a3,1
9d008728:	006c4021 	addu	t0,v1,t4
9d00872c:	91080000 	lbu	t0,0(t0)
9d008730:	31090004 	andi	t1,t0,0x4
9d008734:	11200023 	beqz	t1,9d0087c4 <strtoul+0x13c>
9d008738:	31090003 	andi	t1,t0,0x3
9d00873c:	2463ffd0 	addiu	v1,v1,-48
9d008740:	04600011 	bltz	v1,9d008788 <strtoul+0x100>
9d008744:	0066402a 	slt	t0,v1,a2
9d008748:	1100000f 	beqz	t0,9d008788 <strtoul+0x100>
9d00874c:	01a2402b 	sltu	t0,t5,v0
9d008750:	55000019 	bnezl	t0,9d0087b8 <strtoul+0x130>
9d008754:	240a0001 	li	t2,1
9d008758:	55400008 	bnezl	t2,9d00877c <strtoul+0xf4>
9d00875c:	80e30001 	lb	v1,1(a3)
9d008760:	704f1002 	mul	v0,v0,t7
9d008764:	00024027 	nor	t0,zero,v0
9d008768:	0103402b 	sltu	t0,t0,v1
9d00876c:	55000012 	bnezl	t0,9d0087b8 <strtoul+0x130>
9d008770:	240a0001 	li	t2,1
9d008774:	00431021 	addu	v0,v0,v1
9d008778:	80e30001 	lb	v1,1(a3)
9d00877c:	240b0001 	li	t3,1
9d008780:	1460ffe9 	bnez	v1,9d008728 <strtoul+0xa0>
9d008784:	24e70001 	addiu	a3,a3,1
9d008788:	1300001f 	beqz	t8,9d008808 <strtoul+0x180>
9d00878c:	00000000 	nop
9d008790:	11400005 	beqz	t2,9d0087a8 <strtoul+0x120>
9d008794:	00021023 	negu	v0,v0
9d008798:	24030022 	li	v1,34
9d00879c:	3c02a000 	lui	v0,0xa000
9d0087a0:	ac430020 	sw	v1,32(v0)
9d0087a4:	2402ffff 	li	v0,-1
9d0087a8:	10a0000d 	beqz	a1,9d0087e0 <strtoul+0x158>
9d0087ac:	008b380a 	movz	a3,a0,t3
9d0087b0:	03e00008 	jr	ra
9d0087b4:	aca70000 	sw	a3,0(a1)
9d0087b8:	80e30001 	lb	v1,1(a3)
9d0087bc:	0b4021e0 	j	9d008780 <strtoul+0xf8>
9d0087c0:	240b0001 	li	t3,1
9d0087c4:	1120fff0 	beqz	t1,9d008788 <strtoul+0x100>
9d0087c8:	31080001 	andi	t0,t0,0x1
9d0087cc:	01c04821 	move	t1,t6
9d0087d0:	0328480a 	movz	t1,t9,t0
9d0087d4:	00691823 	subu	v1,v1,t1
9d0087d8:	0b4021d0 	j	9d008740 <strtoul+0xb8>
9d0087dc:	2463000a 	addiu	v1,v1,10
9d0087e0:	03e00008 	jr	ra
9d0087e4:	00000000 	nop
9d0087e8:	10c20017 	beq	a2,v0,9d008848 <strtoul+0x1c0>
9d0087ec:	240dffff 	li	t5,-1
9d0087f0:	00c07821 	move	t7,a2
9d0087f4:	01a6001b 	divu	zero,t5,a2
9d0087f8:	00c001f4 	teq	a2,zero,0x7
9d0087fc:	00006812 	mflo	t5
9d008800:	0b4021c1 	j	9d008704 <strtoul+0x7c>
9d008804:	00005821 	move	t3,zero
9d008808:	1540ffe4 	bnez	t2,9d00879c <strtoul+0x114>
9d00880c:	24030022 	li	v1,34
9d008810:	0b4021ea 	j	9d0087a8 <strtoul+0x120>
9d008814:	00000000 	nop
9d008818:	54430006 	bnel	v0,v1,9d008834 <strtoul+0x1ac>
9d00881c:	2403002d 	li	v1,45
9d008820:	3842002d 	xori	v0,v0,0x2d
9d008824:	80e30001 	lb	v1,1(a3)
9d008828:	2c580001 	sltiu	t8,v0,1
9d00882c:	0b4021b8 	j	9d0086e0 <strtoul+0x58>
9d008830:	24e70001 	addiu	a3,a3,1
9d008834:	5043fffb 	beql	v0,v1,9d008824 <strtoul+0x19c>
9d008838:	3842002d 	xori	v0,v0,0x2d
9d00883c:	80e30000 	lb	v1,0(a3)
9d008840:	0b4021b8 	j	9d0086e0 <strtoul+0x58>
9d008844:	0000c021 	move	t8,zero
9d008848:	24020030 	li	v0,48
9d00884c:	1062001c 	beq	v1,v0,9d0088c0 <strtoul+0x238>
9d008850:	3c0d0fff 	lui	t5,0xfff
9d008854:	35adffff 	ori	t5,t5,0xffff
9d008858:	240f0010 	li	t7,16
9d00885c:	0b4021c1 	j	9d008704 <strtoul+0x7c>
9d008860:	00005821 	move	t3,zero
9d008864:	80e30001 	lb	v1,1(a3)
9d008868:	2402ffdf 	li	v0,-33
9d00886c:	00623024 	and	a2,v1,v0
9d008870:	24020058 	li	v0,88
9d008874:	50c20008 	beql	a2,v0,9d008898 <strtoul+0x210>
9d008878:	80e30002 	lb	v1,2(a3)
9d00887c:	24e70001 	addiu	a3,a3,1
9d008880:	3c0d1fff 	lui	t5,0x1fff
9d008884:	35adffff 	ori	t5,t5,0xffff
9d008888:	240f0008 	li	t7,8
9d00888c:	240b0001 	li	t3,1
9d008890:	0b4021c1 	j	9d008704 <strtoul+0x7c>
9d008894:	24060008 	li	a2,8
9d008898:	3c0d0fff 	lui	t5,0xfff
9d00889c:	35adffff 	ori	t5,t5,0xffff
9d0088a0:	24e70002 	addiu	a3,a3,2
9d0088a4:	240f0010 	li	t7,16
9d0088a8:	240b0001 	li	t3,1
9d0088ac:	0b4021c1 	j	9d008704 <strtoul+0x7c>
9d0088b0:	24060010 	li	a2,16
9d0088b4:	00803821 	move	a3,a0
9d0088b8:	0b4021b8 	j	9d0086e0 <strtoul+0x58>
9d0088bc:	0000c021 	move	t8,zero
9d0088c0:	80e30001 	lb	v1,1(a3)
9d0088c4:	2402ffdf 	li	v0,-33
9d0088c8:	00624024 	and	t0,v1,v0
9d0088cc:	24020058 	li	v0,88
9d0088d0:	51020007 	beql	t0,v0,9d0088f0 <strtoul+0x268>
9d0088d4:	80e30002 	lb	v1,2(a3)
9d0088d8:	24e70001 	addiu	a3,a3,1
9d0088dc:	3c0d0fff 	lui	t5,0xfff
9d0088e0:	35adffff 	ori	t5,t5,0xffff
9d0088e4:	240f0010 	li	t7,16
9d0088e8:	0b4021c1 	j	9d008704 <strtoul+0x7c>
9d0088ec:	240b0001 	li	t3,1
9d0088f0:	3c0d0fff 	lui	t5,0xfff
9d0088f4:	35adffff 	ori	t5,t5,0xffff
9d0088f8:	24e70002 	addiu	a3,a3,2
9d0088fc:	240f0010 	li	t7,16
9d008900:	0b4021c1 	j	9d008704 <strtoul+0x7c>
9d008904:	240b0001 	li	t3,1

Disassembly of section .text.free:

9d008908 <free>:
9d008908:	10800074 	beqz	a0,9d008adc <free+0x1d4>
9d00890c:	2402fffe 	li	v0,-2
9d008910:	8c86fffc 	lw	a2,-4(a0)
9d008914:	2485fff8 	addiu	a1,a0,-8
9d008918:	00c21824 	and	v1,a2,v0
9d00891c:	00a31021 	addu	v0,a1,v1
9d008920:	8c470004 	lw	a3,4(v0)
9d008924:	30e80001 	andi	t0,a3,0x1
9d008928:	1100006c 	beqz	t0,9d008adc <free+0x1d4>
9d00892c:	7c070804 	ins	a3,zero,0x0,0x2
9d008930:	3c08a000 	lui	t0,0xa000
9d008934:	2508003c 	addiu	t0,t0,60
9d008938:	8d090008 	lw	t1,8(t0)
9d00893c:	10490057 	beq	v0,t1,9d008a9c <free+0x194>
9d008940:	30c60001 	andi	a2,a2,0x1
9d008944:	ac470004 	sw	a3,4(v0)
9d008948:	14c0000c 	bnez	a2,9d00897c <free+0x74>
9d00894c:	00004821 	move	t1,zero
9d008950:	8c86fff8 	lw	a2,-8(a0)
9d008954:	00a62823 	subu	a1,a1,a2
9d008958:	8ca40008 	lw	a0,8(a1)
9d00895c:	00661821 	addu	v1,v1,a2
9d008960:	3c06a000 	lui	a2,0xa000
9d008964:	24c60044 	addiu	a2,a2,68
9d008968:	50860004 	beql	a0,a2,9d00897c <free+0x74>
9d00896c:	24090001 	li	t1,1
9d008970:	8ca6000c 	lw	a2,12(a1)
9d008974:	ac86000c 	sw	a2,12(a0)
9d008978:	acc40008 	sw	a0,8(a2)
9d00897c:	00472021 	addu	a0,v0,a3
9d008980:	8c840004 	lw	a0,4(a0)
9d008984:	30840001 	andi	a0,a0,0x1
9d008988:	54800008 	bnezl	a0,9d0089ac <free+0xa4>
9d00898c:	34640001 	ori	a0,v1,0x1
9d008990:	00671821 	addu	v1,v1,a3
9d008994:	11200026 	beqz	t1,9d008a30 <free+0x128>
9d008998:	8c440008 	lw	a0,8(v0)
9d00899c:	8c42000c 	lw	v0,12(v0)
9d0089a0:	ac82000c 	sw	v0,12(a0)
9d0089a4:	ac440008 	sw	a0,8(v0)
9d0089a8:	34640001 	ori	a0,v1,0x1
9d0089ac:	00a31021 	addu	v0,a1,v1
9d0089b0:	aca40004 	sw	a0,4(a1)
9d0089b4:	15200049 	bnez	t1,9d008adc <free+0x1d4>
9d0089b8:	ac430000 	sw	v1,0(v0)
9d0089bc:	2c620200 	sltiu	v0,v1,512
9d0089c0:	54400028 	bnezl	v0,9d008a64 <free+0x15c>
9d0089c4:	000318c2 	srl	v1,v1,0x3
9d0089c8:	00031242 	srl	v0,v1,0x9
9d0089cc:	2c440005 	sltiu	a0,v0,5
9d0089d0:	1080004c 	beqz	a0,9d008b04 <free+0x1fc>
9d0089d4:	2c440015 	sltiu	a0,v0,21
9d0089d8:	00032182 	srl	a0,v1,0x6
9d0089dc:	24840038 	addiu	a0,a0,56
9d0089e0:	00043040 	sll	a2,a0,0x1
9d0089e4:	00063080 	sll	a2,a2,0x2
9d0089e8:	01063021 	addu	a2,t0,a2
9d0089ec:	8cc20008 	lw	v0,8(a2)
9d0089f0:	50460049 	beql	v0,a2,9d008b18 <free+0x210>
9d0089f4:	8d030004 	lw	v1,4(t0)
9d0089f8:	8c440004 	lw	a0,4(v0)
9d0089fc:	7c040804 	ins	a0,zero,0x0,0x2
9d008a00:	0064202b 	sltu	a0,v1,a0
9d008a04:	50800005 	beqzl	a0,9d008a1c <free+0x114>
9d008a08:	8c43000c 	lw	v1,12(v0)
9d008a0c:	8c420008 	lw	v0,8(v0)
9d008a10:	54c2fffa 	bnel	a2,v0,9d0089fc <free+0xf4>
9d008a14:	8c440004 	lw	a0,4(v0)
9d008a18:	8c43000c 	lw	v1,12(v0)
9d008a1c:	aca3000c 	sw	v1,12(a1)
9d008a20:	aca20008 	sw	v0,8(a1)
9d008a24:	ac650008 	sw	a1,8(v1)
9d008a28:	03e00008 	jr	ra
9d008a2c:	ac45000c 	sw	a1,12(v0)
9d008a30:	3c06a000 	lui	a2,0xa000
9d008a34:	24c60044 	addiu	a2,a2,68
9d008a38:	5486ffd9 	bnel	a0,a2,9d0089a0 <free+0x98>
9d008a3c:	8c42000c 	lw	v0,12(v0)
9d008a40:	34660001 	ori	a2,v1,0x1
9d008a44:	00a31021 	addu	v0,a1,v1
9d008a48:	ad050014 	sw	a1,20(t0)
9d008a4c:	ad050010 	sw	a1,16(t0)
9d008a50:	aca4000c 	sw	a0,12(a1)
9d008a54:	aca40008 	sw	a0,8(a1)
9d008a58:	aca60004 	sw	a2,4(a1)
9d008a5c:	03e00008 	jr	ra
9d008a60:	ac430000 	sw	v1,0(v0)
9d008a64:	000310c0 	sll	v0,v1,0x3
9d008a68:	01021021 	addu	v0,t0,v0
9d008a6c:	8d060004 	lw	a2,4(t0)
9d008a70:	8c440008 	lw	a0,8(v0)
9d008a74:	00031883 	sra	v1,v1,0x2
9d008a78:	24070001 	li	a3,1
9d008a7c:	00671804 	sllv	v1,a3,v1
9d008a80:	00661825 	or	v1,v1,a2
9d008a84:	aca2000c 	sw	v0,12(a1)
9d008a88:	aca40008 	sw	a0,8(a1)
9d008a8c:	ad030004 	sw	v1,4(t0)
9d008a90:	ac450008 	sw	a1,8(v0)
9d008a94:	03e00008 	jr	ra
9d008a98:	ac85000c 	sw	a1,12(a0)
9d008a9c:	14c00008 	bnez	a2,9d008ac0 <free+0x1b8>
9d008aa0:	00e33821 	addu	a3,a3,v1
9d008aa4:	8c84fff8 	lw	a0,-8(a0)
9d008aa8:	00a42823 	subu	a1,a1,a0
9d008aac:	8ca2000c 	lw	v0,12(a1)
9d008ab0:	8ca30008 	lw	v1,8(a1)
9d008ab4:	00e43821 	addu	a3,a3,a0
9d008ab8:	ac62000c 	sw	v0,12(v1)
9d008abc:	ac430008 	sw	v1,8(v0)
9d008ac0:	3c02a000 	lui	v0,0xa000
9d008ac4:	8c420038 	lw	v0,56(v0)
9d008ac8:	34e30001 	ori	v1,a3,0x1
9d008acc:	aca30004 	sw	v1,4(a1)
9d008ad0:	00e2382b 	sltu	a3,a3,v0
9d008ad4:	10e00003 	beqz	a3,9d008ae4 <free+0x1dc>
9d008ad8:	ad050008 	sw	a1,8(t0)
9d008adc:	03e00008 	jr	ra
9d008ae0:	00000000 	nop
9d008ae4:	27bdffe8 	addiu	sp,sp,-24
9d008ae8:	afbf0014 	sw	ra,20(sp)
9d008aec:	3c02a000 	lui	v0,0xa000
9d008af0:	0f402779 	jal	9d009de4 <malloc_trim>
9d008af4:	8c4405d0 	lw	a0,1488(v0)
9d008af8:	8fbf0014 	lw	ra,20(sp)
9d008afc:	03e00008 	jr	ra
9d008b00:	27bd0018 	addiu	sp,sp,24
9d008b04:	5080000b 	beqzl	a0,9d008b34 <free+0x22c>
9d008b08:	2c440055 	sltiu	a0,v0,85
9d008b0c:	2444005b 	addiu	a0,v0,91
9d008b10:	0b402279 	j	9d0089e4 <free+0xdc>
9d008b14:	00043040 	sll	a2,a0,0x1
9d008b18:	00042083 	sra	a0,a0,0x2
9d008b1c:	24060001 	li	a2,1
9d008b20:	00862004 	sllv	a0,a2,a0
9d008b24:	00831825 	or	v1,a0,v1
9d008b28:	ad030004 	sw	v1,4(t0)
9d008b2c:	0b402287 	j	9d008a1c <free+0x114>
9d008b30:	00401821 	move	v1,v0
9d008b34:	50800005 	beqzl	a0,9d008b4c <free+0x244>
9d008b38:	2c440155 	sltiu	a0,v0,341
9d008b3c:	00032302 	srl	a0,v1,0xc
9d008b40:	2484006e 	addiu	a0,a0,110
9d008b44:	0b402279 	j	9d0089e4 <free+0xdc>
9d008b48:	00043040 	sll	a2,a0,0x1
9d008b4c:	10800005 	beqz	a0,9d008b64 <free+0x25c>
9d008b50:	2c420555 	sltiu	v0,v0,1365
9d008b54:	000323c2 	srl	a0,v1,0xf
9d008b58:	24840077 	addiu	a0,a0,119
9d008b5c:	0b402279 	j	9d0089e4 <free+0xdc>
9d008b60:	00043040 	sll	a2,a0,0x1
9d008b64:	50400005 	beqzl	v0,9d008b7c <free+0x274>
9d008b68:	240600fc 	li	a2,252
9d008b6c:	00032482 	srl	a0,v1,0x12
9d008b70:	2484007c 	addiu	a0,a0,124
9d008b74:	0b402279 	j	9d0089e4 <free+0xdc>
9d008b78:	00043040 	sll	a2,a0,0x1
9d008b7c:	0b402279 	j	9d0089e4 <free+0xdc>
9d008b80:	2404007e 	li	a0,126

Disassembly of section .text.strtol:

9d008b84 <strtol>:
9d008b84:	80820000 	lb	v0,0(a0)
9d008b88:	1040008a 	beqz	v0,9d008db4 <strtol+0x230>
9d008b8c:	00001821 	move	v1,zero
9d008b90:	3c089d01 	lui	t0,0x9d01
9d008b94:	25089ce1 	addiu	t0,t0,-25375
9d008b98:	01021821 	addu	v1,t0,v0
9d008b9c:	80630000 	lb	v1,0(v1)
9d008ba0:	30630088 	andi	v1,v1,0x88
9d008ba4:	14600007 	bnez	v1,9d008bc4 <strtol+0x40>
9d008ba8:	00803821 	move	a3,a0
9d008bac:	0b402349 	j	9d008d24 <strtol+0x1a0>
9d008bb0:	2403002b 	li	v1,43
9d008bb4:	80630000 	lb	v1,0(v1)
9d008bb8:	30630088 	andi	v1,v1,0x88
9d008bbc:	50600059 	beqzl	v1,9d008d24 <strtol+0x1a0>
9d008bc0:	2403002b 	li	v1,43
9d008bc4:	24e70001 	addiu	a3,a3,1
9d008bc8:	80e20000 	lb	v0,0(a3)
9d008bcc:	1440fff9 	bnez	v0,9d008bb4 <strtol+0x30>
9d008bd0:	01021821 	addu	v1,t0,v0
9d008bd4:	00001821 	move	v1,zero
9d008bd8:	0000c021 	move	t8,zero
9d008bdc:	14c00042 	bnez	a2,9d008ce8 <strtol+0x164>
9d008be0:	24020010 	li	v0,16
9d008be4:	24020030 	li	v0,48
9d008be8:	10620060 	beq	v1,v0,9d008d6c <strtol+0x1e8>
9d008bec:	3c0d0ccc 	lui	t5,0xccc
9d008bf0:	35adcccc 	ori	t5,t5,0xcccc
9d008bf4:	00005821 	move	t3,zero
9d008bf8:	2406000a 	li	a2,10
9d008bfc:	24e7ffff 	addiu	a3,a3,-1
9d008c00:	00005021 	move	t2,zero
9d008c04:	00001021 	move	v0,zero
9d008c08:	3c0c9d01 	lui	t4,0x9d01
9d008c0c:	258c9ce1 	addiu	t4,t4,-25375
9d008c10:	240f0061 	li	t7,97
9d008c14:	240e0041 	li	t6,65
9d008c18:	3c197fff 	lui	t9,0x7fff
9d008c1c:	3739ffff 	ori	t9,t9,0xffff
9d008c20:	10600019 	beqz	v1,9d008c88 <strtol+0x104>
9d008c24:	24e70001 	addiu	a3,a3,1
9d008c28:	006c4021 	addu	t0,v1,t4
9d008c2c:	91080000 	lbu	t0,0(t0)
9d008c30:	31090004 	andi	t1,t0,0x4
9d008c34:	11200023 	beqz	t1,9d008cc4 <strtol+0x140>
9d008c38:	31090003 	andi	t1,t0,0x3
9d008c3c:	2463ffd0 	addiu	v1,v1,-48
9d008c40:	04600011 	bltz	v1,9d008c88 <strtol+0x104>
9d008c44:	0066402a 	slt	t0,v1,a2
9d008c48:	1100000f 	beqz	t0,9d008c88 <strtol+0x104>
9d008c4c:	01a2402a 	slt	t0,t5,v0
9d008c50:	55000019 	bnezl	t0,9d008cb8 <strtol+0x134>
9d008c54:	240a0001 	li	t2,1
9d008c58:	55400017 	bnezl	t2,9d008cb8 <strtol+0x134>
9d008c5c:	240a0001 	li	t2,1
9d008c60:	70461002 	mul	v0,v0,a2
9d008c64:	03224023 	subu	t0,t9,v0
9d008c68:	0103402a 	slt	t0,t0,v1
9d008c6c:	55000012 	bnezl	t0,9d008cb8 <strtol+0x134>
9d008c70:	240a0001 	li	t2,1
9d008c74:	00431021 	addu	v0,v0,v1
9d008c78:	80e30001 	lb	v1,1(a3)
9d008c7c:	240b0001 	li	t3,1
9d008c80:	1460ffe9 	bnez	v1,9d008c28 <strtol+0xa4>
9d008c84:	24e70001 	addiu	a3,a3,1
9d008c88:	1300001f 	beqz	t8,9d008d08 <strtol+0x184>
9d008c8c:	00000000 	nop
9d008c90:	11400005 	beqz	t2,9d008ca8 <strtol+0x124>
9d008c94:	00021023 	negu	v0,v0
9d008c98:	24030022 	li	v1,34
9d008c9c:	3c02a000 	lui	v0,0xa000
9d008ca0:	ac430020 	sw	v1,32(v0)
9d008ca4:	3c028000 	lui	v0,0x8000
9d008ca8:	10a0000d 	beqz	a1,9d008ce0 <strtol+0x15c>
9d008cac:	008b380a 	movz	a3,a0,t3
9d008cb0:	03e00008 	jr	ra
9d008cb4:	aca70000 	sw	a3,0(a1)
9d008cb8:	80e30001 	lb	v1,1(a3)
9d008cbc:	0b402320 	j	9d008c80 <strtol+0xfc>
9d008cc0:	240b0001 	li	t3,1
9d008cc4:	1120fff0 	beqz	t1,9d008c88 <strtol+0x104>
9d008cc8:	31080001 	andi	t0,t0,0x1
9d008ccc:	01c04821 	move	t1,t6
9d008cd0:	01e8480a 	movz	t1,t7,t0
9d008cd4:	00691823 	subu	v1,v1,t1
9d008cd8:	0b402310 	j	9d008c40 <strtol+0xbc>
9d008cdc:	2463000a 	addiu	v1,v1,10
9d008ce0:	03e00008 	jr	ra
9d008ce4:	00000000 	nop
9d008ce8:	10c2001a 	beq	a2,v0,9d008d54 <strtol+0x1d0>
9d008cec:	3c0d7fff 	lui	t5,0x7fff
9d008cf0:	35adffff 	ori	t5,t5,0xffff
9d008cf4:	01a6001a 	div	zero,t5,a2
9d008cf8:	00c001f4 	teq	a2,zero,0x7
9d008cfc:	00006812 	mflo	t5
9d008d00:	0b4022ff 	j	9d008bfc <strtol+0x78>
9d008d04:	00005821 	move	t3,zero
9d008d08:	1140ffe7 	beqz	t2,9d008ca8 <strtol+0x124>
9d008d0c:	24030022 	li	v1,34
9d008d10:	3c02a000 	lui	v0,0xa000
9d008d14:	ac430020 	sw	v1,32(v0)
9d008d18:	3c027fff 	lui	v0,0x7fff
9d008d1c:	0b40232a 	j	9d008ca8 <strtol+0x124>
9d008d20:	3442ffff 	ori	v0,v0,0xffff
9d008d24:	54430006 	bnel	v0,v1,9d008d40 <strtol+0x1bc>
9d008d28:	2403002d 	li	v1,45
9d008d2c:	3842002d 	xori	v0,v0,0x2d
9d008d30:	80e30001 	lb	v1,1(a3)
9d008d34:	2c580001 	sltiu	t8,v0,1
9d008d38:	0b4022f7 	j	9d008bdc <strtol+0x58>
9d008d3c:	24e70001 	addiu	a3,a3,1
9d008d40:	5043fffb 	beql	v0,v1,9d008d30 <strtol+0x1ac>
9d008d44:	3842002d 	xori	v0,v0,0x2d
9d008d48:	80e30000 	lb	v1,0(a3)
9d008d4c:	0b4022f7 	j	9d008bdc <strtol+0x58>
9d008d50:	0000c021 	move	t8,zero
9d008d54:	24020030 	li	v0,48
9d008d58:	10620019 	beq	v1,v0,9d008dc0 <strtol+0x23c>
9d008d5c:	3c0d07ff 	lui	t5,0x7ff
9d008d60:	35adffff 	ori	t5,t5,0xffff
9d008d64:	0b4022ff 	j	9d008bfc <strtol+0x78>
9d008d68:	00005821 	move	t3,zero
9d008d6c:	80e30001 	lb	v1,1(a3)
9d008d70:	2402ffdf 	li	v0,-33
9d008d74:	00623024 	and	a2,v1,v0
9d008d78:	24020058 	li	v0,88
9d008d7c:	50c20007 	beql	a2,v0,9d008d9c <strtol+0x218>
9d008d80:	80e30002 	lb	v1,2(a3)
9d008d84:	24e70001 	addiu	a3,a3,1
9d008d88:	3c0d0fff 	lui	t5,0xfff
9d008d8c:	35adffff 	ori	t5,t5,0xffff
9d008d90:	240b0001 	li	t3,1
9d008d94:	0b4022ff 	j	9d008bfc <strtol+0x78>
9d008d98:	24060008 	li	a2,8
9d008d9c:	3c0d07ff 	lui	t5,0x7ff
9d008da0:	35adffff 	ori	t5,t5,0xffff
9d008da4:	24e70002 	addiu	a3,a3,2
9d008da8:	240b0001 	li	t3,1
9d008dac:	0b4022ff 	j	9d008bfc <strtol+0x78>
9d008db0:	24060010 	li	a2,16
9d008db4:	00803821 	move	a3,a0
9d008db8:	0b4022f7 	j	9d008bdc <strtol+0x58>
9d008dbc:	0000c021 	move	t8,zero
9d008dc0:	80e30001 	lb	v1,1(a3)
9d008dc4:	2402ffdf 	li	v0,-33
9d008dc8:	00624024 	and	t0,v1,v0
9d008dcc:	24020058 	li	v0,88
9d008dd0:	51020006 	beql	t0,v0,9d008dec <strtol+0x268>
9d008dd4:	80e30002 	lb	v1,2(a3)
9d008dd8:	24e70001 	addiu	a3,a3,1
9d008ddc:	3c0d07ff 	lui	t5,0x7ff
9d008de0:	35adffff 	ori	t5,t5,0xffff
9d008de4:	0b4022ff 	j	9d008bfc <strtol+0x78>
9d008de8:	240b0001 	li	t3,1
9d008dec:	3c0d07ff 	lui	t5,0x7ff
9d008df0:	35adffff 	ori	t5,t5,0xffff
9d008df4:	24e70002 	addiu	a3,a3,2
9d008df8:	0b4022ff 	j	9d008bfc <strtol+0x78>
9d008dfc:	240b0001 	li	t3,1

Disassembly of section .text.fpsubadd:

9d008e00 <__subsf3>:
9d008e00:	3c018000 00a12826                       ...<&(..

9d008e08 <__addsf3>:
9d008e08:	00044dc2 312900ff 00055dc2 316b00ff     .M....)1.]....k1
9d008e18:	3c078000 00044200 01074025 00055200     ...<.B..%@...R..
9d008e28:	01475025 252dffff 2da100fe 10200061     %PG...-%...-a. .
9d008e38:	00000000                                ....

9d008e3c <Blab1>:
9d008e3c:	256dffff 	addiu	t5,t3,-1
9d008e40:	2da100fe 	sltiu	at,t5,254
9d008e44:	10200077 	beqz	at,9d009024 <BspecB>
9d008e48:	00000000 	nop

9d008e4c <Blab2>:
9d008e4c:	012b6023 	subu	t4,t1,t3
9d008e50:	0580000d 	bltz	t4,9d008e88 <i1>
9d008e54:	00000000 	nop
9d008e58:	29810020 	slti	at,t4,32
9d008e5c:	14200003 	bnez	at,9d008e6c <i2>
9d008e60:	00000000 	nop
9d008e64:	10000015 	b	9d008ebc <e1>
9d008e68:	240a0002 	li	t2,2

9d008e6c <i2>:
9d008e6c:	000a3025 	or	a2,zero,t2
9d008e70:	018a5006 	srlv	t2,t2,t4
9d008e74:	018a6804 	sllv	t5,t2,t4
9d008e78:	11a60010 	beq	t5,a2,9d008ebc <e1>
9d008e7c:	00000000 	nop
9d008e80:	1000000e 	b	9d008ebc <e1>
9d008e84:	354a0002 	ori	t2,t2,0x2

9d008e88 <i1>:
9d008e88:	000b4825 	or	t1,zero,t3
9d008e8c:	000c6023 	negu	t4,t4
9d008e90:	29810020 	slti	at,t4,32
9d008e94:	14200003 	bnez	at,9d008ea4 <i4>
9d008e98:	00000000 	nop
9d008e9c:	10000007 	b	9d008ebc <e1>
9d008ea0:	24080002 	li	t0,2

9d008ea4 <i4>:
9d008ea4:	00083025 	or	a2,zero,t0
9d008ea8:	01884006 	srlv	t0,t0,t4
9d008eac:	01886804 	sllv	t5,t0,t4
9d008eb0:	11a60002 	beq	t5,a2,9d008ebc <e1>
9d008eb4:	00000000 	nop
9d008eb8:	35080002 	ori	t0,t0,0x2

9d008ebc <e1>:
9d008ebc:	00876024 	and	t4,a0,a3
9d008ec0:	01856826 	xor	t5,t4,a1
9d008ec4:	05a00010 	bltz	t5,9d008f08 <Bsub1>
9d008ec8:	00000000 	nop
9d008ecc:	010a4021 	addu	t0,t0,t2
9d008ed0:	010a682b 	sltu	t5,t0,t2
9d008ed4:	11a00017 	beqz	t5,9d008f34 <Bres>
9d008ed8:	00000000 	nop
9d008edc:	310d0001 	andi	t5,t0,0x1
9d008ee0:	11a00002 	beqz	t5,9d008eec <i7>
9d008ee4:	00000000 	nop
9d008ee8:	35080002 	ori	t0,t0,0x2

9d008eec <i7>:
9d008eec:	00084042 	srl	t0,t0,0x1
9d008ef0:	25290001 	addiu	t1,t1,1
9d008ef4:	240100ff 	li	at,255
9d008ef8:	1521000e 	bne	t1,at,9d008f34 <Bres>
9d008efc:	00000000 	nop
9d008f00:	1000000c 	b	9d008f34 <Bres>
9d008f04:	24080000 	li	t0,0

9d008f08 <Bsub1>:
9d008f08:	010a682b 	sltu	t5,t0,t2
9d008f0c:	11a00004 	beqz	t5,9d008f20 <i9>
9d008f10:	010a4023 	subu	t0,t0,t2
9d008f14:	00084023 	negu	t0,t0
9d008f18:	10000003 	b	9d008f28 <e9>
9d008f1c:	01876026 	xor	t4,t4,a3

9d008f20 <i9>:
9d008f20:	11000050 	beqz	t0,9d009064 <Bzer>
9d008f24:	00000000 	nop

9d008f28 <e9>:
9d008f28:	71063020 	clz	a2,t0
9d008f2c:	01264823 	subu	t1,t1,a2
9d008f30:	00c84004 	sllv	t0,t0,a2

9d008f34 <Bres>:
9d008f34:	1920000e 	blez	t1,9d008f70 <Bund>
9d008f38:	00000000 	nop

9d008f3c <Blab12>:
9d008f3c:	25080080 	addiu	t0,t0,128
9d008f40:	2d0d0080 	sltiu	t5,t0,128
9d008f44:	012d4821 	addu	t1,t1,t5
9d008f48:	00086a02 	srl	t5,t0,0x8
9d008f4c:	31ad0001 	andi	t5,t5,0x1
9d008f50:	010d4023 	subu	t0,t0,t5
9d008f54:	00084040 	sll	t0,t0,0x1
9d008f58:	00084242 	srl	t0,t0,0x9
9d008f5c:	00096dc0 	sll	t5,t1,0x17
9d008f60:	010d4025 	or	t0,t0,t5
9d008f64:	010c1025 	or	v0,t0,t4

9d008f68 <B999>:
9d008f68:	03e00008 	jr	ra
9d008f6c:	00000000 	nop

9d008f70 <Bund>:
9d008f70:	24060001 	li	a2,1
9d008f74:	00c93023 	subu	a2,a2,t1
9d008f78:	2cc10020 	sltiu	at,a2,32
9d008f7c:	10200039 	beqz	at,9d009064 <Bzer>
9d008f80:	00000000 	nop
9d008f84:	3c018000 	lui	at,0x8000
9d008f88:	01014025 	or	t0,t0,at
9d008f8c:	240d0020 	li	t5,32
9d008f90:	01a66823 	subu	t5,t5,a2
9d008f94:	01a84804 	sllv	t1,t0,t5
9d008f98:	11200002 	beqz	t1,9d008fa4 <i10>
9d008f9c:	00c84006 	srlv	t0,t0,a2
9d008fa0:	35080001 	ori	t0,t0,0x1

9d008fa4 <i10>:
9d008fa4:	24090000 	li	t1,0
9d008fa8:	250d0080 	addiu	t5,t0,128
9d008fac:	05a1ffe3 	bgez	t5,9d008f3c <Blab12>
9d008fb0:	00000000 	nop
9d008fb4:	1000ffe1 	b	9d008f3c <Blab12>
9d008fb8:	24090001 	li	t1,1

9d008fbc <BspecA>:
9d008fbc:	1520000e 	bnez	t1,9d008ff8 <i12>
9d008fc0:	00000000 	nop
9d008fc4:	01084021 	addu	t0,t0,t0
9d008fc8:	11000005 	beqz	t0,9d008fe0 <i13>
9d008fcc:	00000000 	nop
9d008fd0:	710c6020 	clz	t4,t0
9d008fd4:	012c4823 	subu	t1,t1,t4
9d008fd8:	1000ff98 	b	9d008e3c <Blab1>
9d008fdc:	01884004 	sllv	t0,t0,t4

9d008fe0 <i13>:
9d008fe0:	240100ff 	li	at,255
9d008fe4:	1161000f 	beq	t3,at,9d009024 <BspecB>
9d008fe8:	00000000 	nop
9d008fec:	3c018000 	lui	at,0x8000
9d008ff0:	14a10018 	bne	a1,at,9d009054 <BretB>
9d008ff4:	00000000 	nop

9d008ff8 <i12>:
9d008ff8:	01086821 	addu	t5,t0,t0
9d008ffc:	15a0001b 	bnez	t5,9d00906c <Bnan>
9d009000:	00000000 	nop
9d009004:	240100ff 	li	at,255
9d009008:	15610014 	bne	t3,at,9d00905c <BretA>
9d00900c:	00000000 	nop
9d009010:	00856826 	xor	t5,a0,a1
9d009014:	05a00015 	bltz	t5,9d00906c <Bnan>
9d009018:	00000000 	nop
9d00901c:	1000000d 	b	9d009054 <BretB>
9d009020:	00000000 	nop

9d009024 <BspecB>:
9d009024:	15600008 	bnez	t3,9d009048 <i15>
9d009028:	00000000 	nop
9d00902c:	014a5021 	addu	t2,t2,t2
9d009030:	1140000a 	beqz	t2,9d00905c <BretA>
9d009034:	00000000 	nop
9d009038:	714c6020 	clz	t4,t2
9d00903c:	016c5823 	subu	t3,t3,t4
9d009040:	1000ff82 	b	9d008e4c <Blab2>
9d009044:	018a5004 	sllv	t2,t2,t4

9d009048 <i15>:
9d009048:	014a6821 	addu	t5,t2,t2
9d00904c:	15a00007 	bnez	t5,9d00906c <Bnan>
9d009050:	00000000 	nop

9d009054 <BretB>:
9d009054:	1000ffc4 	b	9d008f68 <B999>
9d009058:	00051025 	or	v0,zero,a1

9d00905c <BretA>:
9d00905c:	1000ffc2 	b	9d008f68 <B999>
9d009060:	00041025 	or	v0,zero,a0

9d009064 <Bzer>:
9d009064:	1000ffc0 	b	9d008f68 <B999>
9d009068:	24020000 	li	v0,0

9d00906c <Bnan>:
9d00906c:	1000ffbe 	b	9d008f68 <B999>
9d009070:	3c02ffc0 	lui	v0,0xffc0
9d009074:	00000000 	nop

Disassembly of section .text.fp32div:

9d009078 <__divsf3>:
9d009078:	3c0b8000 000445c2 310800ff 000555c2     ...<.E.....1.U..
9d009088:	314a00ff 00043a00 00eb3825 00054a00     ..J1.:..%8...J..
9d009098:	012b4825 00857026 016e5824 250effff     %H+.&p..$Xn....%
9d0090a8:	2dc100fe 1020003f 00000000              ...-?. .....

9d0090b4 <Dlab1>:
9d0090b4:	254effff 	addiu	t6,t2,-1
9d0090b8:	2dc100fe 	sltiu	at,t6,254
9d0090bc:	10200053 	beqz	at,9d00920c <DspecB>
9d0090c0:	00000000 	nop

9d0090c4 <Dlab2>:
9d0090c4:	00e9082b 	sltu	at,a3,t1
9d0090c8:	14200003 	bnez	at,9d0090d8 <i27>
9d0090cc:	00000000 	nop
9d0090d0:	00073842 	srl	a3,a3,0x1
9d0090d4:	25080001 	addiu	t0,t0,1

9d0090d8 <i27>:
9d0090d8:	00096382 	srl	t4,t1,0xe
9d0090dc:	018001f4 	teq	t4,zero,0x7
9d0090e0:	00ec001b 	divu	zero,a3,t4
9d0090e4:	00002012 	mflo	a0
9d0090e8:	00003010 	mfhi	a2
9d0090ec:	312d3fff 	andi	t5,t1,0x3fff
9d0090f0:	01a40019 	multu	t5,a0
9d0090f4:	00002812 	mflo	a1
9d0090f8:	00063380 	sll	a2,a2,0xe
9d0090fc:	00c5702b 	sltu	t6,a2,a1
9d009100:	11c00004 	beqz	t6,9d009114 <i28>
9d009104:	00c53023 	subu	a2,a2,a1
9d009108:	2484ffff 	addiu	a0,a0,-1
9d00910c:	00c93021 	addu	a2,a2,t1
9d009110:	00c9702b 	sltu	t6,a2,t1

9d009114 <i28>:
9d009114:	018001f4 	teq	t4,zero,0x7
9d009118:	00cc001b 	divu	zero,a2,t4
9d00911c:	00003812 	mflo	a3
9d009120:	00003010 	mfhi	a2
9d009124:	01a70019 	multu	t5,a3
9d009128:	00002812 	mflo	a1
9d00912c:	00063380 	sll	a2,a2,0xe
9d009130:	00c5702b 	sltu	t6,a2,a1
9d009134:	11c00004 	beqz	t6,9d009148 <i29>
9d009138:	00c53023 	subu	a2,a2,a1
9d00913c:	24e7ffff 	addiu	a3,a3,-1
9d009140:	00c93021 	addu	a2,a2,t1
9d009144:	00c9702b 	sltu	t6,a2,t1

9d009148 <i29>:
9d009148:	00047380 	sll	t6,a0,0xe
9d00914c:	00ee3821 	addu	a3,a3,t6
9d009150:	10c00002 	beqz	a2,9d00915c <i30>
9d009154:	00073900 	sll	a3,a3,0x4
9d009158:	34e70001 	ori	a3,a3,0x1

9d00915c <i30>:
9d00915c:	240e007e 	li	t6,126
9d009160:	01ca7023 	subu	t6,t6,t2
9d009164:	010e4021 	addu	t0,t0,t6
9d009168:	250effff 	addiu	t6,t0,-1
9d00916c:	2dc100fe 	sltiu	at,t6,254
9d009170:	10200034 	beqz	at,9d009244 <Doveund>
9d009174:	00000000 	nop

9d009178 <Dlab8>:
9d009178:	24e70080 	addiu	a3,a3,128
9d00917c:	2cee0080 	sltiu	t6,a3,128
9d009180:	010e4021 	addu	t0,t0,t6
9d009184:	00077202 	srl	t6,a3,0x8
9d009188:	31ce0001 	andi	t6,t6,0x1
9d00918c:	00ee3823 	subu	a3,a3,t6
9d009190:	00073840 	sll	a3,a3,0x1
9d009194:	00073a42 	srl	a3,a3,0x9
9d009198:	000875c0 	sll	t6,t0,0x17
9d00919c:	00ee3825 	or	a3,a3,t6
9d0091a0:	00eb1025 	or	v0,a3,t3

9d0091a4 <D999>:
9d0091a4:	03e00008 	jr	ra
9d0091a8:	00000000 	nop

9d0091ac <DspecA>:
9d0091ac:	15000008 	bnez	t0,9d0091d0 <i31>
9d0091b0:	00000000 	nop
9d0091b4:	00e73821 	addu	a3,a3,a3
9d0091b8:	10e00005 	beqz	a3,9d0091d0 <i31>
9d0091bc:	00000000 	nop
9d0091c0:	70ec6020 	clz	t4,a3
9d0091c4:	010c4023 	subu	t0,t0,t4
9d0091c8:	1000ffba 	b	9d0090b4 <Dlab1>
9d0091cc:	01873804 	sllv	a3,a3,t4

9d0091d0 <i31>:
9d0091d0:	15480004 	bne	t2,t0,9d0091e4 <i33>
9d0091d4:	00000000 	nop
9d0091d8:	01297021 	addu	t6,t1,t1
9d0091dc:	11c0002f 	beqz	t6,9d00929c <Dnan>
9d0091e0:	00000000 	nop

9d0091e4 <i33>:
9d0091e4:	240100ff 	li	at,255
9d0091e8:	11410008 	beq	t2,at,9d00920c <DspecB>
9d0091ec:	00000000 	nop
9d0091f0:	11000012 	beqz	t0,9d00923c <Dzer>
9d0091f4:	00000000 	nop
9d0091f8:	00e77021 	addu	t6,a3,a3
9d0091fc:	15c00027 	bnez	t6,9d00929c <Dnan>
9d009200:	00000000 	nop
9d009204:	10000022 	b	9d009290 <Dinf>
9d009208:	00000000 	nop

9d00920c <DspecB>:
9d00920c:	15400008 	bnez	t2,9d009230 <i34>
9d009210:	00000000 	nop
9d009214:	01294821 	addu	t1,t1,t1
9d009218:	1120001d 	beqz	t1,9d009290 <Dinf>
9d00921c:	00000000 	nop
9d009220:	712c6020 	clz	t4,t1
9d009224:	014c5023 	subu	t2,t2,t4
9d009228:	1000ffa6 	b	9d0090c4 <Dlab2>
9d00922c:	01894804 	sllv	t1,t1,t4

9d009230 <i34>:
9d009230:	01297021 	addu	t6,t1,t1
9d009234:	15c00019 	bnez	t6,9d00929c <Dnan>
9d009238:	00000000 	nop

9d00923c <Dzer>:
9d00923c:	1000ffd9 	b	9d0091a4 <D999>
9d009240:	000b1025 	or	v0,zero,t3

9d009244 <Doveund>:
9d009244:	1d000012 	bgtz	t0,9d009290 <Dinf>
9d009248:	00000000 	nop
9d00924c:	240c0001 	li	t4,1
9d009250:	01886023 	subu	t4,t4,t0
9d009254:	2d810020 	sltiu	at,t4,32
9d009258:	1020fff8 	beqz	at,9d00923c <Dzer>
9d00925c:	00000000 	nop
9d009260:	240e0020 	li	t6,32
9d009264:	01cc7023 	subu	t6,t6,t4
9d009268:	01c74004 	sllv	t0,a3,t6
9d00926c:	11000002 	beqz	t0,9d009278 <i37>
9d009270:	01873806 	srlv	a3,a3,t4
9d009274:	34e70002 	ori	a3,a3,0x2

9d009278 <i37>:
9d009278:	24080000 	li	t0,0
9d00927c:	24ee0080 	addiu	t6,a3,128
9d009280:	05c1ffbd 	bgez	t6,9d009178 <Dlab8>
9d009284:	00000000 	nop
9d009288:	1000ffbb 	b	9d009178 <Dlab8>
9d00928c:	24080001 	li	t0,1

9d009290 <Dinf>:
9d009290:	3c017f80 	lui	at,0x7f80
9d009294:	1000ffc3 	b	9d0091a4 <D999>
9d009298:	01611025 	or	v0,t3,at

9d00929c <Dnan>:
9d00929c:	1000ffc1 	b	9d0091a4 <D999>
9d0092a0:	3c02ffc0 	lui	v0,0xffc0
9d0092a4:	00000000 	nop

Disassembly of section .text:

9d0092a8 <NU32_Startup>:

// Perform startup routines:
//  Make NU32_LED1 and NU32_LED2 pins outputs (NU32_USER is by default an input)
//  Initialize the serial port - UART3 (no interrupt) 
//  Enable interrupts
void NU32_Startup() {
9d0092a8:	27bdfff8 	addiu	sp,sp,-8
9d0092ac:	afbf0004 	sw	ra,4(sp)
  // disable interrupts
  __builtin_disable_interrupts();
9d0092b0:	41626000 	di	v0
9d0092b4:	000000c0 	ehb
  // see Chapter 2 "CPU for Devices with M4K Core" of the PIC32 reference manual
  // most of the other bits have prescribed values
  // microchip does not provide a _CP0_SET_CONFIG macro, so we directly use
  // the compiler built-in command _mtc0
  // to disable cache, use 0xa4210582 
  __builtin_mtc0(_CP0_CONFIG, _CP0_CONFIG_SELECT, 0xa4210583); 
9d0092b8:	3c02a421 	lui	v0,0xa421
9d0092bc:	24420583 	addiu	v0,v0,1411
9d0092c0:	40828000 	mtc0	v0,c0_config
9d0092c4:	000000c0 	ehb
  
  // set the prefectch cache wait state to 2, as per the
  // electrical characteristics data sheet
  CHECONbits.PFMWS = 0x2;   
9d0092c8:	3c02bf88 	lui	v0,0xbf88
9d0092cc:	8c434000 	lw	v1,16384(v0)
9d0092d0:	24050002 	li	a1,2
9d0092d4:	7ca31004 	ins	v1,a1,0x0,0x3
9d0092d8:	ac434000 	sw	v1,16384(v0)

  //enable prefetch for cacheable and noncacheable memory
  CHECONbits.PREFEN = 0x3; 
9d0092dc:	8c434000 	lw	v1,16384(v0)
9d0092e0:	24040003 	li	a0,3
9d0092e4:	7c832904 	ins	v1,a0,0x4,0x2
9d0092e8:	ac434000 	sw	v1,16384(v0)

  // 0 data RAM access wait states
  BMXCONbits.BMXWSDRM = 0x0;
9d0092ec:	3c02bf88 	lui	v0,0xbf88
9d0092f0:	8c432000 	lw	v1,8192(v0)
9d0092f4:	7c033184 	ins	v1,zero,0x6,0x1
9d0092f8:	ac432000 	sw	v1,8192(v0)
  
  // enable multi vector interrupts
  INTCONbits.MVEC = 0x1;
9d0092fc:	3c02bf88 	lui	v0,0xbf88
9d009300:	8c461000 	lw	a2,4096(v0)
9d009304:	24030001 	li	v1,1
9d009308:	7c666304 	ins	a2,v1,0xc,0x1
9d00930c:	ac461000 	sw	a2,4096(v0)

  // disable JTAG to get B10, B11, B12 and B13 back
  DDPCONbits.JTAGEN = 0;
9d009310:	3c02bf81 	lui	v0,0xbf81
9d009314:	9046f200 	lbu	a2,-3584(v0)
9d009318:	7c0618c4 	ins	a2,zero,0x3,0x1
9d00931c:	a046f200 	sb	a2,-3584(v0)

  TRISFCLR = 0x0003;  // Make F0 and F1 outputs (LED1 and LED2)
9d009320:	3c02bf88 	lui	v0,0xbf88
9d009324:	ac446144 	sw	a0,24900(v0)
  NU32_LED1 = 1;      // LED1 is off
9d009328:	3c02bf88 	lui	v0,0xbf88
9d00932c:	90446160 	lbu	a0,24928(v0)
9d009330:	7c640004 	ins	a0,v1,0x0,0x1
9d009334:	a0446160 	sb	a0,24928(v0)
  NU32_LED2 = 0;      // LED2 is on
9d009338:	90446160 	lbu	a0,24928(v0)
9d00933c:	7c040844 	ins	a0,zero,0x1,0x1
9d009340:	a0446160 	sb	a0,24928(v0)

  // turn on UART3 without an interrupt
  U3MODEbits.BRGH = 0; // set baud to NU32_DESIRED_BAUD
9d009344:	3c02bf80 	lui	v0,0xbf80
9d009348:	94446400 	lhu	a0,25600(v0)
9d00934c:	7c0418c4 	ins	a0,zero,0x3,0x1
9d009350:	a4446400 	sh	a0,25600(v0)
  U3BRG = ((NU32_SYS_FREQ / NU32_DESIRED_BAUD) / 16) - 1;
9d009354:	24060014 	li	a2,20
9d009358:	3c04bf80 	lui	a0,0xbf80
9d00935c:	ac866440 	sw	a2,25664(a0)

  // 8 bit, no parity bit, and 1 stop bit (8N1 setup)
  U3MODEbits.PDSEL = 0;
9d009360:	94446400 	lhu	a0,25600(v0)
9d009364:	7c041044 	ins	a0,zero,0x1,0x2
9d009368:	a4446400 	sh	a0,25600(v0)
  U3MODEbits.STSEL = 0;
9d00936c:	94446400 	lhu	a0,25600(v0)
9d009370:	7c040004 	ins	a0,zero,0x0,0x1
9d009374:	a4446400 	sh	a0,25600(v0)

  // configure TX & RX pins as output & input pins
  U3STAbits.UTXEN = 1;
9d009378:	3c04bf80 	lui	a0,0xbf80
9d00937c:	8c866410 	lw	a2,25616(a0)
9d009380:	7c665284 	ins	a2,v1,0xa,0x1
9d009384:	ac866410 	sw	a2,25616(a0)
  U3STAbits.URXEN = 1;
9d009388:	8c866410 	lw	a2,25616(a0)
9d00938c:	7c666304 	ins	a2,v1,0xc,0x1
9d009390:	ac866410 	sw	a2,25616(a0)
  // configure hardware flow control using RTS and CTS
  U3MODEbits.UEN = 2;
9d009394:	94446400 	lhu	a0,25600(v0)
9d009398:	7ca44a04 	ins	a0,a1,0x8,0x2
9d00939c:	a4446400 	sh	a0,25600(v0)

  // enable the uart
  U3MODEbits.ON = 1;
9d0093a0:	94446400 	lhu	a0,25600(v0)
9d0093a4:	7c647bc4 	ins	a0,v1,0xf,0x1
9d0093a8:	a4446400 	sh	a0,25600(v0)

  __builtin_enable_interrupts();
9d0093ac:	41626020 	ei	v0
}
9d0093b0:	8fbf0004 	lw	ra,4(sp)
9d0093b4:	03e00008 	jr	ra
9d0093b8:	27bd0008 	addiu	sp,sp,8

9d0093bc <NU32_ReadUART3>:
// Read from UART3
// block other functions until you get a '\r' or '\n'
// send the pointer to your char array and the number of elements in the array
void NU32_ReadUART3(char * message, int maxLength) {
  char data = 0;
  int complete = 0, num_bytes = 0;
9d0093bc:	00003021 	move	a2,zero
  // loop until you get a '\r' or '\n'
  while (!complete) {
    if (U3STAbits.URXDA) { // if data is available
9d0093c0:	3c03bf80 	lui	v1,0xbf80
      data = U3RXREG;      // read the data
9d0093c4:	3c08bf80 	lui	t0,0xbf80
      if ((data == '\n') || (data == '\r')) {
9d0093c8:	2407000a 	li	a3,10
9d0093cc:	0b402503 	j	9d00940c <NU32_ReadUART3+0x50>
9d0093d0:	2409000d 	li	t1,13
void NU32_ReadUART3(char * message, int maxLength) {
  char data = 0;
  int complete = 0, num_bytes = 0;
  // loop until you get a '\r' or '\n'
  while (!complete) {
    if (U3STAbits.URXDA) { // if data is available
9d0093d4:	8c626410 	lw	v0,25616(v1)
9d0093d8:	30420001 	andi	v0,v0,0x1
9d0093dc:	1040fffd 	beqz	v0,9d0093d4 <NU32_ReadUART3+0x18>
9d0093e0:	00000000 	nop
      data = U3RXREG;      // read the data
9d0093e4:	8d026430 	lw	v0,25648(t0)
9d0093e8:	7c021420 	seb	v0,v0
      if ((data == '\n') || (data == '\r')) {
9d0093ec:	5047000e 	beql	v0,a3,9d009428 <NU32_ReadUART3+0x6c>
9d0093f0:	00862021 	addu	a0,a0,a2
9d0093f4:	1049000b 	beq	v0,t1,9d009424 <NU32_ReadUART3+0x68>
9d0093f8:	00865021 	addu	t2,a0,a2
        complete = 1;
      } else {
        message[num_bytes] = data;
9d0093fc:	a1420000 	sb	v0,0(t2)
        ++num_bytes;
9d009400:	24c60001 	addiu	a2,a2,1
        // roll over if the array is too small
        if (num_bytes >= maxLength) {
9d009404:	00c5102a 	slt	v0,a2,a1
          num_bytes = 0;
9d009408:	0002300a 	movz	a2,zero,v0
void NU32_ReadUART3(char * message, int maxLength) {
  char data = 0;
  int complete = 0, num_bytes = 0;
  // loop until you get a '\r' or '\n'
  while (!complete) {
    if (U3STAbits.URXDA) { // if data is available
9d00940c:	8c626410 	lw	v0,25616(v1)
9d009410:	30420001 	andi	v0,v0,0x1
9d009414:	1040ffef 	beqz	v0,9d0093d4 <NU32_ReadUART3+0x18>
9d009418:	00000000 	nop
9d00941c:	0b4024f9 	j	9d0093e4 <NU32_ReadUART3+0x28>
9d009420:	00000000 	nop
        }
      }
    }
  }
  // end the string
  message[num_bytes] = '\0';
9d009424:	00862021 	addu	a0,a0,a2
9d009428:	03e00008 	jr	ra
9d00942c:	a0800000 	sb	zero,0(a0)

9d009430 <NU32_WriteUART3>:
}

// Write a character array using UART3
void NU32_WriteUART3(const char * string) {
  while (*string != '\0') {
9d009430:	80850000 	lb	a1,0(a0)
9d009434:	10a0000b 	beqz	a1,9d009464 <NU32_WriteUART3+0x34>
9d009438:	3c03bf80 	lui	v1,0xbf80
    while (U3STAbits.UTXBF) {
      ; // wait until tx buffer isn't full
    }
    U3TXREG = *string;
9d00943c:	3c06bf80 	lui	a2,0xbf80
}

// Write a character array using UART3
void NU32_WriteUART3(const char * string) {
  while (*string != '\0') {
    while (U3STAbits.UTXBF) {
9d009440:	8c626410 	lw	v0,25616(v1)
9d009444:	30420200 	andi	v0,v0,0x200
9d009448:	1440fffd 	bnez	v0,9d009440 <NU32_WriteUART3+0x10>
9d00944c:	00000000 	nop
      ; // wait until tx buffer isn't full
    }
    U3TXREG = *string;
9d009450:	acc56420 	sw	a1,25632(a2)
    ++string;
9d009454:	24840001 	addiu	a0,a0,1
  message[num_bytes] = '\0';
}

// Write a character array using UART3
void NU32_WriteUART3(const char * string) {
  while (*string != '\0') {
9d009458:	80850000 	lb	a1,0(a0)
9d00945c:	14a0fff8 	bnez	a1,9d009440 <NU32_WriteUART3+0x10>
9d009460:	00000000 	nop
9d009464:	03e00008 	jr	ra
9d009468:	00000000 	nop

Disassembly of section .text.fp32mul:

9d00946c <__mulsf3>:
9d00946c:	00043dc2 30e700ff 00054dc2 312900ff     .=.....0.M....)1
9d00947c:	3c0a8000 00043200 00ca3025 00054200     ...<.2..%0...B..
9d00948c:	010a4025 00856026 014c5024 24ecffff     %@..&`..$PL....$
9d00949c:	2d8100fe 10200021 00000000              ...-!. .....

9d0094a8 <Clab1>:
9d0094a8:	252cffff 	addiu	t4,t1,-1
9d0094ac:	2d8100fe 	sltiu	at,t4,254
9d0094b0:	10200036 	beqz	at,9d00958c <CspecB>
9d0094b4:	00000000 	nop

9d0094b8 <Clab2>:
9d0094b8:	00c80019 	multu	a2,t0
9d0094bc:	00005812 	mflo	t3
9d0094c0:	11600002 	beqz	t3,9d0094cc <i17>
9d0094c4:	00003010 	mfhi	a2
9d0094c8:	34c60001 	ori	a2,a2,0x1

9d0094cc <i17>:
9d0094cc:	04c00003 	bltz	a2,9d0094dc <i18>
9d0094d0:	00000000 	nop
9d0094d4:	00063040 	sll	a2,a2,0x1
9d0094d8:	24e7ffff 	addiu	a3,a3,-1

9d0094dc <i18>:
9d0094dc:	252cff82 	addiu	t4,t1,-126
9d0094e0:	00ec3821 	addu	a3,a3,t4
9d0094e4:	24ecffff 	addiu	t4,a3,-1
9d0094e8:	2d8100fe 	sltiu	at,t4,254
9d0094ec:	1020003a 	beqz	at,9d0095d8 <Coveund>
9d0094f0:	00000000 	nop

9d0094f4 <Clab8>:
9d0094f4:	24c60080 	addiu	a2,a2,128
9d0094f8:	2ccc0080 	sltiu	t4,a2,128
9d0094fc:	00ec3821 	addu	a3,a3,t4
9d009500:	00066202 	srl	t4,a2,0x8
9d009504:	318c0001 	andi	t4,t4,0x1
9d009508:	00cc3023 	subu	a2,a2,t4
9d00950c:	00063040 	sll	a2,a2,0x1
9d009510:	00063242 	srl	a2,a2,0x9
9d009514:	000765c0 	sll	t4,a3,0x17
9d009518:	00cc3025 	or	a2,a2,t4
9d00951c:	00ca1025 	or	v0,a2,t2

9d009520 <C999>:
9d009520:	03e00008 	jr	ra
9d009524:	00000000 	nop

9d009528 <CspecA>:
9d009528:	14e0000d 	bnez	a3,9d009560 <i19>
9d00952c:	00000000 	nop
9d009530:	00c63021 	addu	a2,a2,a2
9d009534:	10c00005 	beqz	a2,9d00954c <i20>
9d009538:	00000000 	nop
9d00953c:	70cb5820 	clz	t3,a2
9d009540:	00eb3823 	subu	a3,a3,t3
9d009544:	1000ffd8 	b	9d0094a8 <Clab1>
9d009548:	01663004 	sllv	a2,a2,t3

9d00954c <i20>:
9d00954c:	240100ff 	li	at,255
9d009550:	1121001f 	beq	t1,at,9d0095d0 <Cnan>
9d009554:	00000000 	nop
9d009558:	10000015 	b	9d0095b0 <Czer>
9d00955c:	00000000 	nop

9d009560 <i19>:
9d009560:	00c66021 	addu	t4,a2,a2
9d009564:	1580001a 	bnez	t4,9d0095d0 <Cnan>
9d009568:	00000000 	nop
9d00956c:	15200004 	bnez	t1,9d009580 <i21>
9d009570:	00000000 	nop
9d009574:	01086021 	addu	t4,t0,t0
9d009578:	11800015 	beqz	t4,9d0095d0 <Cnan>
9d00957c:	00000000 	nop

9d009580 <i21>:
9d009580:	240100ff 	li	at,255
9d009584:	1521000f 	bne	t1,at,9d0095c4 <Cinf>
9d009588:	00000000 	nop

9d00958c <CspecB>:
9d00958c:	1520000a 	bnez	t1,9d0095b8 <i22>
9d009590:	00000000 	nop
9d009594:	01084021 	addu	t0,t0,t0
9d009598:	11000005 	beqz	t0,9d0095b0 <Czer>
9d00959c:	00000000 	nop
9d0095a0:	710b5820 	clz	t3,t0
9d0095a4:	012b4823 	subu	t1,t1,t3
9d0095a8:	1000ffc3 	b	9d0094b8 <Clab2>
9d0095ac:	01684004 	sllv	t0,t0,t3

9d0095b0 <Czer>:
9d0095b0:	1000ffdb 	b	9d009520 <C999>
9d0095b4:	000a1025 	or	v0,zero,t2

9d0095b8 <i22>:
9d0095b8:	01086021 	addu	t4,t0,t0
9d0095bc:	15800004 	bnez	t4,9d0095d0 <Cnan>
9d0095c0:	00000000 	nop

9d0095c4 <Cinf>:
9d0095c4:	3c017f80 	lui	at,0x7f80
9d0095c8:	1000ffd5 	b	9d009520 <C999>
9d0095cc:	01411025 	or	v0,t2,at

9d0095d0 <Cnan>:
9d0095d0:	1000ffd3 	b	9d009520 <C999>
9d0095d4:	3c02ffc0 	lui	v0,0xffc0

9d0095d8 <Coveund>:
9d0095d8:	1ce0fffa 	bgtz	a3,9d0095c4 <Cinf>
9d0095dc:	00000000 	nop
9d0095e0:	240b0001 	li	t3,1
9d0095e4:	01675823 	subu	t3,t3,a3
9d0095e8:	2d610020 	sltiu	at,t3,32
9d0095ec:	1020fff0 	beqz	at,9d0095b0 <Czer>
9d0095f0:	00000000 	nop
9d0095f4:	240c0020 	li	t4,32
9d0095f8:	018b6023 	subu	t4,t4,t3
9d0095fc:	01863804 	sllv	a3,a2,t4
9d009600:	10e00002 	beqz	a3,9d00960c <i25>
9d009604:	01663006 	srlv	a2,a2,t3
9d009608:	34c60002 	ori	a2,a2,0x2

9d00960c <i25>:
9d00960c:	24070000 	li	a3,0
9d009610:	24cc0080 	addiu	t4,a2,128
9d009614:	0581ffb7 	bgez	t4,9d0094f4 <Clab8>
9d009618:	00000000 	nop
9d00961c:	1000ffb5 	b	9d0094f4 <Clab8>
9d009620:	24070001 	li	a3,1
9d009624:	00000000 	nop

Disassembly of section .text.__ldexp:

9d009628 <__ldexp>:
9d009628:	27bdffe0 	addiu	sp,sp,-32

9d00962c <.LCFI0>:
9d00962c:	afbf001c 	sw	ra,28(sp)
9d009630:	afb20018 	sw	s2,24(sp)
9d009634:	afb10014 	sw	s1,20(sp)
9d009638:	afb00010 	sw	s0,16(sp)
9d00963c:	7ca75500 	ext	a3,a1,0x14,0xb
9d009640:	24e2ffff 	addiu	v0,a3,-1
9d009644:	7ca89800 	ext	t0,a1,0x0,0x14
9d009648:	2c4907fe 	sltiu	t1,v0,2046
9d00964c:	00c08821 	move	s1,a2
9d009650:	000587c2 	srl	s0,a1,0x1f
9d009654:	00801021 	move	v0,a0
9d009658:	11200041 	beqz	t1,9d009760 <.LCFI0+0x134>
9d00965c:	01001821 	move	v1,t0
9d009660:	24e7fc01 	addiu	a3,a3,-1023
9d009664:	3c040010 	lui	a0,0x10
9d009668:	01041825 	or	v1,t0,a0
9d00966c:	00f13821 	addu	a3,a3,s1
9d009670:	00022f42 	srl	a1,v0,0x1d
9d009674:	000318c0 	sll	v1,v1,0x3
9d009678:	24e403ff 	addiu	a0,a3,1023
9d00967c:	00a31825 	or	v1,a1,v1
9d009680:	18800025 	blez	a0,9d009718 <.LCFI0+0xec>
9d009684:	000210c0 	sll	v0,v0,0x3
9d009688:	30450007 	andi	a1,v0,0x7
9d00968c:	14a00015 	bnez	a1,9d0096e4 <.LCFI0+0xb8>
9d009690:	7c4500c0 	ext	a1,v0,0x3,0x1
9d009694:	00033740 	sll	a2,v1,0x1d
9d009698:	000210c2 	srl	v0,v0,0x3
9d00969c:	288507ff 	slti	a1,a0,2047
9d0096a0:	00c21025 	or	v0,a2,v0
9d0096a4:	10a00036 	beqz	a1,9d009780 <.LCFI0+0x154>
9d0096a8:	000318c2 	srl	v1,v1,0x3
9d0096ac:	7c650500 	ext	a1,v1,0x14,0x1
9d0096b0:	50a00002 	beqzl	a1,9d0096bc <.LCFI0+0x90>
9d0096b4:	00002021 	move	a0,zero
9d0096b8:	7c639800 	ext	v1,v1,0x0,0x14
9d0096bc:	001082c0 	sll	s0,s0,0xb
9d0096c0:	00902025 	or	a0,a0,s0
9d0096c4:	00042500 	sll	a0,a0,0x14
9d0096c8:	00831825 	or	v1,a0,v1
9d0096cc:	8fbf001c 	lw	ra,28(sp)
9d0096d0:	8fb20018 	lw	s2,24(sp)
9d0096d4:	8fb10014 	lw	s1,20(sp)
9d0096d8:	8fb00010 	lw	s0,16(sp)
9d0096dc:	03e00008 	jr	ra
9d0096e0:	27bd0020 	addiu	sp,sp,32
9d0096e4:	24a50003 	addiu	a1,a1,3
9d0096e8:	00452821 	addu	a1,v0,a1
9d0096ec:	00a2102b 	sltu	v0,a1,v0
9d0096f0:	00431821 	addu	v1,v0,v1
9d0096f4:	7c660600 	ext	a2,v1,0x18,0x1
9d0096f8:	10c0ffe6 	beqz	a2,9d009694 <.LCFI0+0x68>
9d0096fc:	00a01021 	move	v0,a1
9d009700:	00032fc0 	sll	a1,v1,0x1f
9d009704:	00021042 	srl	v0,v0,0x1
9d009708:	00a21025 	or	v0,a1,v0
9d00970c:	00031842 	srl	v1,v1,0x1
9d009710:	0b4025a5 	j	9d009694 <.LCFI0+0x68>
9d009714:	24840001 	addiu	a0,a0,1
9d009718:	2406fc02 	li	a2,-1022
9d00971c:	00c73023 	subu	a2,a2,a3
9d009720:	28c40038 	slti	a0,a2,56
9d009724:	5080001b 	beqzl	a0,9d009794 <.LCFI0+0x168>
9d009728:	00001021 	move	v0,zero
9d00972c:	00062023 	negu	a0,a2
9d009730:	30850020 	andi	a1,a0,0x20
9d009734:	14a00003 	bnez	a1,9d009744 <.LCFI0+0x118>
9d009738:	00828804 	sllv	s1,v0,a0
9d00973c:	00832004 	sllv	a0,v1,a0
9d009740:	00828825 	or	s1,a0,v0
9d009744:	00402021 	move	a0,v0
9d009748:	0f402db7 	jal	9d00b6dc <__lshrdi3>
9d00974c:	00602821 	move	a1,v1
9d009750:	0011882b 	sltu	s1,zero,s1
9d009754:	02221025 	or	v0,s1,v0
9d009758:	0b4025a2 	j	9d009688 <.LCFI0+0x5c>
9d00975c:	24040001 	li	a0,1
9d009760:	54e00005 	bnezl	a3,9d009778 <.LCFI0+0x14c>
9d009764:	00801021 	move	v0,a0
9d009768:	01043025 	or	a2,t0,a0
9d00976c:	14c0000c 	bnez	a2,9d0097a0 <.LCFI0+0x174>
9d009770:	00000000 	nop
9d009774:	00801021 	move	v0,a0
9d009778:	0b4025b3 	j	9d0096cc <.LCFI0+0xa0>
9d00977c:	00a01821 	move	v1,a1
9d009780:	00101ac0 	sll	v1,s0,0xb
9d009784:	346307ff 	ori	v1,v1,0x7ff
9d009788:	00031d00 	sll	v1,v1,0x14
9d00978c:	0b4025b3 	j	9d0096cc <.LCFI0+0xa0>
9d009790:	00001021 	move	v0,zero
9d009794:	00001821 	move	v1,zero
9d009798:	0b4025af 	j	9d0096bc <.LCFI0+0x90>
9d00979c:	00002021 	move	a0,zero
9d0097a0:	15000003 	bnez	t0,9d0097b0 <.LCFI0+0x184>
9d0097a4:	71129020 	clz	s2,t0
9d0097a8:	70929020 	clz	s2,a0
9d0097ac:	26520020 	addiu	s2,s2,32
9d0097b0:	2646fff5 	addiu	a2,s2,-11
9d0097b4:	10c0ffad 	beqz	a2,9d00966c <.LCFI0+0x40>
9d0097b8:	2407fc02 	li	a3,-1022
9d0097bc:	0f402dc7 	jal	9d00b71c <__ashldi3>
9d0097c0:	01002821 	move	a1,t0
9d0097c4:	2407fc0d 	li	a3,-1011
9d0097c8:	0b40259b 	j	9d00966c <.LCFI0+0x40>
9d0097cc:	00f23823 	subu	a3,a3,s2

Disassembly of section .text._sbrk_init:

9d0097d0 <_sbrk_init>:
9d0097d0:	27bdffd8 	addiu	sp,sp,-40

9d0097d4 <.LCFI0>:
9d0097d4:	afbf0024 	sw	ra,36(sp)
9d0097d8:	afb40020 	sw	s4,32(sp)
9d0097dc:	afb3001c 	sw	s3,28(sp)
9d0097e0:	afb20018 	sw	s2,24(sp)
9d0097e4:	afb10014 	sw	s1,20(sp)
9d0097e8:	afb00010 	sw	s0,16(sp)
9d0097ec:	3c10a000 	lui	s0,0xa000
9d0097f0:	8e0205ec 	lw	v0,1516(s0)
9d0097f4:	10400009 	beqz	v0,9d00981c <.LCFI0+0x48>
9d0097f8:	3c12a000 	lui	s2,0xa000
9d0097fc:	8fbf0024 	lw	ra,36(sp)
9d009800:	8fb40020 	lw	s4,32(sp)
9d009804:	8fb3001c 	lw	s3,28(sp)
9d009808:	8fb20018 	lw	s2,24(sp)
9d00980c:	8fb10014 	lw	s1,20(sp)
9d009810:	8fb00010 	lw	s0,16(sp)
9d009814:	03e00008 	jr	ra
9d009818:	27bd0028 	addiu	sp,sp,40
9d00981c:	8e4305f4 	lw	v1,1524(s2)
9d009820:	5060003d 	beqzl	v1,9d009918 <.LCFI0+0x144>
9d009824:	3c03a000 	lui	v1,0xa000
9d009828:	3c13a000 	lui	s3,0xa000
9d00982c:	8e6205f0 	lw	v0,1520(s3)
9d009830:	5040003b 	beqzl	v0,9d009920 <.LCFI0+0x14c>
9d009834:	3c040000 	lui	a0,0x0
9d009838:	00038f82 	srl	s1,v1,0x1e
9d00983c:	0002a782 	srl	s4,v0,0x1e
9d009840:	7c65e000 	ext	a1,v1,0x0,0x1d
9d009844:	3a310002 	xori	s1,s1,0x2
9d009848:	7c44e000 	ext	a0,v0,0x0,0x1d
9d00984c:	3a940002 	xori	s4,s4,0x2
9d009850:	00b1180a 	movz	v1,a1,s1
9d009854:	00608821 	move	s1,v1
9d009858:	0094100a 	movz	v0,a0,s4
9d00985c:	0f402e21 	jal	9d00b884 <_stub_sbd_memlayout>
9d009860:	0040a021 	move	s4,v0
9d009864:	8c430000 	lw	v1,0(v0)
9d009868:	8c440004 	lw	a0,4(v0)
9d00986c:	0223102b 	sltu	v0,s1,v1
9d009870:	10400024 	beqz	v0,9d009904 <.LCFI0+0x130>
9d009874:	00642021 	addu	a0,v1,a0
9d009878:	3c02a000 	lui	v0,0xa000
9d00987c:	24420034 	addiu	v0,v0,52
9d009880:	7c42e000 	ext	v0,v0,0x0,0x1d
9d009884:	0062102b 	sltu	v0,v1,v0
9d009888:	1440ffdd 	bnez	v0,9d009800 <.LCFI0+0x2c>
9d00988c:	8fbf0024 	lw	ra,36(sp)
9d009890:	0283102b 	sltu	v0,s4,v1
9d009894:	14400005 	bnez	v0,9d0098ac <.LCFI0+0xd8>
9d009898:	0064102b 	sltu	v0,v1,a0
9d00989c:	0284102b 	sltu	v0,s4,a0
9d0098a0:	54400004 	bnezl	v0,9d0098b4 <.LCFI0+0xe0>
9d0098a4:	02802021 	move	a0,s4
9d0098a8:	0064102b 	sltu	v0,v1,a0
9d0098ac:	1040ffd4 	beqz	v0,9d009800 <.LCFI0+0x2c>
9d0098b0:	8fbf0024 	lw	ra,36(sp)
9d0098b4:	3c02a000 	lui	v0,0xa000
9d0098b8:	24420034 	addiu	v0,v0,52
9d0098bc:	00021742 	srl	v0,v0,0x1d
9d0098c0:	24050005 	li	a1,5
9d0098c4:	1445001b 	bne	v0,a1,9d009934 <.LCFI0+0x160>
9d0098c8:	24050004 	li	a1,4
9d0098cc:	3c02a000 	lui	v0,0xa000
9d0098d0:	00621825 	or	v1,v1,v0
9d0098d4:	00822025 	or	a0,a0,v0
9d0098d8:	ae4305f4 	sw	v1,1524(s2)
9d0098dc:	ae6405f0 	sw	a0,1520(s3)
9d0098e0:	ae0305ec 	sw	v1,1516(s0)
9d0098e4:	8fbf0024 	lw	ra,36(sp)
9d0098e8:	8fb40020 	lw	s4,32(sp)
9d0098ec:	8fb3001c 	lw	s3,28(sp)
9d0098f0:	8fb20018 	lw	s2,24(sp)
9d0098f4:	8fb10014 	lw	s1,20(sp)
9d0098f8:	8fb00010 	lw	s0,16(sp)
9d0098fc:	03e00008 	jr	ra
9d009900:	27bd0028 	addiu	sp,sp,40
9d009904:	0224102b 	sltu	v0,s1,a0
9d009908:	1040ffdc 	beqz	v0,9d00987c <.LCFI0+0xa8>
9d00990c:	3c02a000 	lui	v0,0xa000
9d009910:	0b402624 	j	9d009890 <.LCFI0+0xbc>
9d009914:	02201821 	move	v1,s1
9d009918:	0b40260a 	j	9d009828 <.LCFI0+0x54>
9d00991c:	24630628 	addiu	v1,v1,1576
9d009920:	24840000 	addiu	a0,a0,0
9d009924:	3c02a000 	lui	v0,0xa000
9d009928:	24420628 	addiu	v0,v0,1576
9d00992c:	0b40260e 	j	9d009838 <.LCFI0+0x64>
9d009930:	00441021 	addu	v0,v0,a0
9d009934:	14450007 	bne	v0,a1,9d009954 <.LCFI0+0x180>
9d009938:	3c028000 	lui	v0,0x8000
9d00993c:	00621825 	or	v1,v1,v0
9d009940:	00821025 	or	v0,a0,v0
9d009944:	ae4305f4 	sw	v1,1524(s2)
9d009948:	ae6205f0 	sw	v0,1520(s3)
9d00994c:	0b402639 	j	9d0098e4 <.LCFI0+0x110>
9d009950:	ae0305ec 	sw	v1,1516(s0)
9d009954:	ae4405f4 	sw	a0,1524(s2)
9d009958:	00801821 	move	v1,a0
9d00995c:	0b402639 	j	9d0098e4 <.LCFI0+0x110>
9d009960:	ae0305ec 	sw	v1,1516(s0)

Disassembly of section .text._outcnvrt:

9d009964 <_outcnvrt>:
9d009964:	27bdffd8 	addiu	sp,sp,-40
9d009968:	afbf0024 	sw	ra,36(sp)
9d00996c:	afb40020 	sw	s4,32(sp)
9d009970:	afb3001c 	sw	s3,28(sp)
9d009974:	afb20018 	sw	s2,24(sp)
9d009978:	afb10014 	sw	s1,20(sp)
9d00997c:	afb00010 	sw	s0,16(sp)
9d009980:	00809821 	move	s3,a0
9d009984:	00a0a021 	move	s4,a1
9d009988:	97a20038 	lhu	v0,56(sp)
9d00998c:	30420008 	andi	v0,v0,0x8
9d009990:	00c08021 	move	s0,a2
9d009994:	10400014 	beqz	v0,9d0099e8 <_outcnvrt+0x84>
9d009998:	00e08821 	move	s1,a3
9d00999c:	00a02021 	move	a0,a1
9d0099a0:	00c02821 	move	a1,a2
9d0099a4:	0f402c4c 	jal	9d00b130 <__sputn>
9d0099a8:	02603021 	move	a2,s3
9d0099ac:	2403ffff 	li	v1,-1
9d0099b0:	10430003 	beq	v0,v1,9d0099c0 <_outcnvrt+0x5c>
9d0099b4:	0211902a 	slt	s2,s0,s1
9d0099b8:	1640001c 	bnez	s2,9d009a2c <_outcnvrt+0xc8>
9d0099bc:	02602021 	move	a0,s3
9d0099c0:	02201021 	move	v0,s1
9d0099c4:	0212100a 	movz	v0,s0,s2
9d0099c8:	8fbf0024 	lw	ra,36(sp)
9d0099cc:	8fb40020 	lw	s4,32(sp)
9d0099d0:	8fb3001c 	lw	s3,28(sp)
9d0099d4:	8fb20018 	lw	s2,24(sp)
9d0099d8:	8fb10014 	lw	s1,20(sp)
9d0099dc:	8fb00010 	lw	s0,16(sp)
9d0099e0:	03e00008 	jr	ra
9d0099e4:	27bd0028 	addiu	sp,sp,40
9d0099e8:	00c7902a 	slt	s2,a2,a3
9d0099ec:	1640001d 	bnez	s2,9d009a64 <_outcnvrt+0x100>
9d0099f0:	00e62823 	subu	a1,a3,a2
9d0099f4:	02802021 	move	a0,s4
9d0099f8:	02002821 	move	a1,s0
9d0099fc:	0f402c4c 	jal	9d00b130 <__sputn>
9d009a00:	02603021 	move	a2,s3
9d009a04:	02201021 	move	v0,s1
9d009a08:	0212100a 	movz	v0,s0,s2
9d009a0c:	8fbf0024 	lw	ra,36(sp)
9d009a10:	8fb40020 	lw	s4,32(sp)
9d009a14:	8fb3001c 	lw	s3,28(sp)
9d009a18:	8fb20018 	lw	s2,24(sp)
9d009a1c:	8fb10014 	lw	s1,20(sp)
9d009a20:	8fb00010 	lw	s0,16(sp)
9d009a24:	03e00008 	jr	ra
9d009a28:	27bd0028 	addiu	sp,sp,40
9d009a2c:	02302823 	subu	a1,s1,s0
9d009a30:	3c069d01 	lui	a2,0x9d01
9d009a34:	0f402a97 	jal	9d00aa5c <repl>
9d009a38:	24c6b1d4 	addiu	a2,a2,-20012
9d009a3c:	02201021 	move	v0,s1
9d009a40:	0212100a 	movz	v0,s0,s2
9d009a44:	8fbf0024 	lw	ra,36(sp)
9d009a48:	8fb40020 	lw	s4,32(sp)
9d009a4c:	8fb3001c 	lw	s3,28(sp)
9d009a50:	8fb20018 	lw	s2,24(sp)
9d009a54:	8fb10014 	lw	s1,20(sp)
9d009a58:	8fb00010 	lw	s0,16(sp)
9d009a5c:	03e00008 	jr	ra
9d009a60:	27bd0028 	addiu	sp,sp,40
9d009a64:	3c069d01 	lui	a2,0x9d01
9d009a68:	0f402a97 	jal	9d00aa5c <repl>
9d009a6c:	24c6b1d4 	addiu	a2,a2,-20012
9d009a70:	2403ffff 	li	v1,-1
9d009a74:	1443ffdf 	bne	v0,v1,9d0099f4 <_outcnvrt+0x90>
9d009a78:	02201021 	move	v0,s1
9d009a7c:	0212100a 	movz	v0,s0,s2
9d009a80:	8fbf0024 	lw	ra,36(sp)
9d009a84:	8fb40020 	lw	s4,32(sp)
9d009a88:	8fb3001c 	lw	s3,28(sp)
9d009a8c:	8fb20018 	lw	s2,24(sp)
9d009a90:	8fb10014 	lw	s1,20(sp)
9d009a94:	8fb00010 	lw	s0,16(sp)
9d009a98:	03e00008 	jr	ra
9d009a9c:	27bd0028 	addiu	sp,sp,40

Disassembly of section .text.ungetc:

9d009aa0 <ungetc>:
9d009aa0:	27bdffe0 	addiu	sp,sp,-32
9d009aa4:	afbf001c 	sw	ra,28(sp)
9d009aa8:	afb20018 	sw	s2,24(sp)
9d009aac:	afb10014 	sw	s1,20(sp)
9d009ab0:	afb00010 	sw	s0,16(sp)
9d009ab4:	2412ffff 	li	s2,-1
9d009ab8:	10920028 	beq	a0,s2,9d009b5c <ungetc+0xbc>
9d009abc:	00808821 	move	s1,a0
9d009ac0:	00a08021 	move	s0,a1
9d009ac4:	8ca20018 	lw	v0,24(a1)
9d009ac8:	00a02021 	move	a0,a1
9d009acc:	8c420010 	lw	v0,16(v0)
9d009ad0:	0040f809 	jalr	v0
9d009ad4:	24050002 	li	a1,2
9d009ad8:	10400021 	beqz	v0,9d009b60 <ungetc+0xc0>
9d009adc:	2402ffff 	li	v0,-1
9d009ae0:	8e020000 	lw	v0,0(s0)
9d009ae4:	10520037 	beq	v0,s2,9d009bc4 <ungetc+0x124>
9d009ae8:	00000000 	nop
9d009aec:	8e02000c 	lw	v0,12(s0)
9d009af0:	50400017 	beqzl	v0,9d009b50 <ungetc+0xb0>
9d009af4:	8e030004 	lw	v1,4(s0)
9d009af8:	8e020004 	lw	v0,4(s0)
9d009afc:	8e030008 	lw	v1,8(s0)
9d009b00:	0062182b 	sltu	v1,v1,v0
9d009b04:	1060001c 	beqz	v1,9d009b78 <ungetc+0xd8>
9d009b08:	8e030000 	lw	v1,0(s0)
9d009b0c:	2442ffff 	addiu	v0,v0,-1
9d009b10:	ae020004 	sw	v0,4(s0)
9d009b14:	24630001 	addiu	v1,v1,1
9d009b18:	ae030000 	sw	v1,0(s0)
9d009b1c:	90430000 	lbu	v1,0(v0)
9d009b20:	54710001 	bnel	v1,s1,9d009b28 <ungetc+0x88>
9d009b24:	a0510000 	sb	s1,0(v0)
9d009b28:	96030010 	lhu	v1,16(s0)
9d009b2c:	02201021 	move	v0,s1
9d009b30:	7c032944 	ins	v1,zero,0x5,0x1
9d009b34:	a6030010 	sh	v1,16(s0)
9d009b38:	8fbf001c 	lw	ra,28(sp)
9d009b3c:	8fb20018 	lw	s2,24(sp)
9d009b40:	8fb10014 	lw	s1,20(sp)
9d009b44:	8fb00010 	lw	s0,16(sp)
9d009b48:	03e00008 	jr	ra
9d009b4c:	27bd0020 	addiu	sp,sp,32
9d009b50:	2402ffff 	li	v0,-1
9d009b54:	50620011 	beql	v1,v0,9d009b9c <ungetc+0xfc>
9d009b58:	96030010 	lhu	v1,16(s0)
9d009b5c:	2402ffff 	li	v0,-1
9d009b60:	8fbf001c 	lw	ra,28(sp)
9d009b64:	8fb20018 	lw	s2,24(sp)
9d009b68:	8fb10014 	lw	s1,20(sp)
9d009b6c:	8fb00010 	lw	s0,16(sp)
9d009b70:	03e00008 	jr	ra
9d009b74:	27bd0020 	addiu	sp,sp,32
9d009b78:	5060ffe7 	beqzl	v1,9d009b18 <ungetc+0x78>
9d009b7c:	24630001 	addiu	v1,v1,1
9d009b80:	02201021 	move	v0,s1
9d009b84:	8fbf001c 	lw	ra,28(sp)
9d009b88:	8fb20018 	lw	s2,24(sp)
9d009b8c:	8fb10014 	lw	s1,20(sp)
9d009b90:	8fb00010 	lw	s0,16(sp)
9d009b94:	03e00008 	jr	ra
9d009b98:	27bd0020 	addiu	sp,sp,32
9d009b9c:	ae110004 	sw	s1,4(s0)
9d009ba0:	02201021 	move	v0,s1
9d009ba4:	7c032944 	ins	v1,zero,0x5,0x1
9d009ba8:	a6030010 	sh	v1,16(s0)
9d009bac:	8fbf001c 	lw	ra,28(sp)
9d009bb0:	8fb20018 	lw	s2,24(sp)
9d009bb4:	8fb10014 	lw	s1,20(sp)
9d009bb8:	8fb00010 	lw	s0,16(sp)
9d009bbc:	03e00008 	jr	ra
9d009bc0:	27bd0020 	addiu	sp,sp,32
9d009bc4:	0f402b0c 	jal	9d00ac30 <_i_init>
9d009bc8:	02002021 	move	a0,s0
9d009bcc:	0b4026bc 	j	9d009af0 <ungetc+0x50>
9d009bd0:	8e02000c 	lw	v0,12(s0)

Disassembly of section .text.putget.2780:

9d009bd4 <putget.2780>:
9d009bd4:	27bdffe0 	addiu	sp,sp,-32
9d009bd8:	afbf001c 	sw	ra,28(sp)
9d009bdc:	afb10018 	sw	s1,24(sp)
9d009be0:	afb00014 	sw	s0,20(sp)
9d009be4:	01e08021 	move	s0,t7
9d009be8:	8de50014 	lw	a1,20(t7)
9d009bec:	8de20010 	lw	v0,16(t7)
9d009bf0:	10a20019 	beq	a1,v0,9d009c58 <putget.2780+0x84>
9d009bf4:	00808821 	move	s1,a0
9d009bf8:	8de20008 	lw	v0,8(t7)
9d009bfc:	24a30001 	addiu	v1,a1,1
9d009c00:	00452821 	addu	a1,v0,a1
9d009c04:	ae030014 	sw	v1,20(s0)
9d009c08:	1220000d 	beqz	s1,9d009c40 <putget.2780+0x6c>
9d009c0c:	a0b10000 	sb	s1,0(a1)
9d009c10:	8e020004 	lw	v0,4(s0)
9d009c14:	1040000a 	beqz	v0,9d009c40 <putget.2780+0x6c>
9d009c18:	2411ffff 	li	s1,-1
9d009c1c:	0f402cb4 	jal	9d00b2d0 <gsgetc>
9d009c20:	8e040000 	lw	a0,0(s0)
9d009c24:	00408821 	move	s1,v0
9d009c28:	2402ffff 	li	v0,-1
9d009c2c:	12220005 	beq	s1,v0,9d009c44 <putget.2780+0x70>
9d009c30:	02201021 	move	v0,s1
9d009c34:	8e020004 	lw	v0,4(s0)
9d009c38:	2442ffff 	addiu	v0,v0,-1
9d009c3c:	ae020004 	sw	v0,4(s0)
9d009c40:	02201021 	move	v0,s1
9d009c44:	8fbf001c 	lw	ra,28(sp)
9d009c48:	8fb10018 	lw	s1,24(sp)
9d009c4c:	8fb00014 	lw	s0,20(sp)
9d009c50:	03e00008 	jr	ra
9d009c54:	27bd0020 	addiu	sp,sp,32
9d009c58:	8de4000c 	lw	a0,12(t7)
9d009c5c:	24a50080 	addiu	a1,a1,128
9d009c60:	10800007 	beqz	a0,9d009c80 <putget.2780+0xac>
9d009c64:	ade50010 	sw	a1,16(t7)
9d009c68:	0f4014bb 	jal	9d0052ec <realloc>
9d009c6c:	00000000 	nop
9d009c70:	ae02000c 	sw	v0,12(s0)
9d009c74:	8e050014 	lw	a1,20(s0)
9d009c78:	0b4026ff 	j	9d009bfc <putget.2780+0x28>
9d009c7c:	ae020008 	sw	v0,8(s0)
9d009c80:	0f400fd7 	jal	9d003f5c <.LFE10>
9d009c84:	00a02021 	move	a0,a1
9d009c88:	8e030008 	lw	v1,8(s0)
9d009c8c:	ae02000c 	sw	v0,12(s0)
9d009c90:	24680080 	addiu	t0,v1,128
9d009c94:	88670003 	lwl	a3,3(v1)
9d009c98:	88660007 	lwl	a2,7(v1)
9d009c9c:	8865000b 	lwl	a1,11(v1)
9d009ca0:	8864000f 	lwl	a0,15(v1)
9d009ca4:	98670000 	lwr	a3,0(v1)
9d009ca8:	98660004 	lwr	a2,4(v1)
9d009cac:	98650008 	lwr	a1,8(v1)
9d009cb0:	9864000c 	lwr	a0,12(v1)
9d009cb4:	24630010 	addiu	v1,v1,16
9d009cb8:	ac470000 	sw	a3,0(v0)
9d009cbc:	ac460004 	sw	a2,4(v0)
9d009cc0:	ac450008 	sw	a1,8(v0)
9d009cc4:	ac44000c 	sw	a0,12(v0)
9d009cc8:	1468fff2 	bne	v1,t0,9d009c94 <putget.2780+0xc0>
9d009ccc:	24420010 	addiu	v0,v0,16
9d009cd0:	8e02000c 	lw	v0,12(s0)
9d009cd4:	8e050014 	lw	a1,20(s0)
9d009cd8:	0b4026ff 	j	9d009bfc <putget.2780+0x28>
9d009cdc:	ae020008 	sw	v0,8(s0)

Disassembly of section .rodata:

9d009ce0 <_ctype>:
9d009ce0:	20202000 20202020 28282020 20282828     .         ((((( 
9d009cf0:	20202020 20202020 20202020 20202020                     
9d009d00:	10108020 10101010 10101010 10101010      ...............
9d009d10:	04040410 04040404 10040404 10101010     ................
9d009d20:	41411010 41414141 01010101 01010101     ..AAAAAA........
9d009d30:	01010101 01010101 01010101 10101010     ................
9d009d40:	42421010 42424242 02020202 02020202     ..BBBBBB........
9d009d50:	02020202 02020202 02020202 10101010     ................
9d009d60:	00000020 00000000 00000000 00000000      ...............
	...

Disassembly of section .text.malloc_trim:

9d009de4 <malloc_trim>:
9d009de4:	27bdffe0 	addiu	sp,sp,-32
9d009de8:	afbf001c 	sw	ra,28(sp)
9d009dec:	afb20018 	sw	s2,24(sp)
9d009df0:	afb10014 	sw	s1,20(sp)
9d009df4:	afb00010 	sw	s0,16(sp)
9d009df8:	0f402ed9 	jal	9d00bb64 <getpagesize>
9d009dfc:	00809021 	move	s2,a0
9d009e00:	3c10a000 	lui	s0,0xa000
9d009e04:	2610003c 	addiu	s0,s0,60
9d009e08:	8e030008 	lw	v1,8(s0)
9d009e0c:	8c710004 	lw	s1,4(v1)
9d009e10:	7c110804 	ins	s1,zero,0x0,0x2
9d009e14:	02322023 	subu	a0,s1,s2
9d009e18:	2484ffef 	addiu	a0,a0,-17
9d009e1c:	00822021 	addu	a0,a0,v0
9d009e20:	0082001b 	divu	zero,a0,v0
9d009e24:	004001f4 	teq	v0,zero,0x7
9d009e28:	00009012 	mflo	s2
9d009e2c:	2652ffff 	addiu	s2,s2,-1
9d009e30:	72429002 	mul	s2,s2,v0
9d009e34:	0242102a 	slt	v0,s2,v0
9d009e38:	10400008 	beqz	v0,9d009e5c <malloc_trim+0x78>
9d009e3c:	00000000 	nop
9d009e40:	00001021 	move	v0,zero
9d009e44:	8fbf001c 	lw	ra,28(sp)
9d009e48:	8fb20018 	lw	s2,24(sp)
9d009e4c:	8fb10014 	lw	s1,20(sp)
9d009e50:	8fb00010 	lw	s0,16(sp)
9d009e54:	03e00008 	jr	ra
9d009e58:	27bd0020 	addiu	sp,sp,32
9d009e5c:	0f402d27 	jal	9d00b49c <sbrk>
9d009e60:	00002021 	move	a0,zero
9d009e64:	8e030008 	lw	v1,8(s0)
9d009e68:	00711821 	addu	v1,v1,s1
9d009e6c:	1443fff5 	bne	v0,v1,9d009e44 <malloc_trim+0x60>
9d009e70:	00001021 	move	v0,zero
9d009e74:	0f402d27 	jal	9d00b49c <sbrk>
9d009e78:	00122023 	negu	a0,s2
9d009e7c:	2403ffff 	li	v1,-1
9d009e80:	1043000a 	beq	v0,v1,9d009eac <malloc_trim+0xc8>
9d009e84:	3c02a000 	lui	v0,0xa000
9d009e88:	8c4405a0 	lw	a0,1440(v0)
9d009e8c:	8e030008 	lw	v1,8(s0)
9d009e90:	02328823 	subu	s1,s1,s2
9d009e94:	36310001 	ori	s1,s1,0x1
9d009e98:	00929023 	subu	s2,a0,s2
9d009e9c:	ac710004 	sw	s1,4(v1)
9d009ea0:	ac5205a0 	sw	s2,1440(v0)
9d009ea4:	0b402791 	j	9d009e44 <malloc_trim+0x60>
9d009ea8:	24020001 	li	v0,1
9d009eac:	0f402d27 	jal	9d00b49c <sbrk>
9d009eb0:	00002021 	move	a0,zero
9d009eb4:	8e030008 	lw	v1,8(s0)
9d009eb8:	00432023 	subu	a0,v0,v1
9d009ebc:	28850010 	slti	a1,a0,16
9d009ec0:	54a0ffe0 	bnezl	a1,9d009e44 <malloc_trim+0x60>
9d009ec4:	00001021 	move	v0,zero
9d009ec8:	3c05a000 	lui	a1,0xa000
9d009ecc:	8ca50034 	lw	a1,52(a1)
9d009ed0:	34840001 	ori	a0,a0,0x1
9d009ed4:	00451023 	subu	v0,v0,a1
9d009ed8:	3c05a000 	lui	a1,0xa000
9d009edc:	aca205a0 	sw	v0,1440(a1)
9d009ee0:	0b402790 	j	9d009e40 <malloc_trim+0x5c>
9d009ee4:	ac640004 	sw	a0,4(v1)

Disassembly of section .text.__ldexpf:

9d009ee8 <__ldexpf>:
9d009ee8:	7c863dc0 	ext	a2,a0,0x17,0x8
9d009eec:	24c8ffff 	addiu	t0,a2,-1
9d009ef0:	2d0800fe 	sltiu	t0,t0,254
9d009ef4:	00044fc2 	srl	t1,a0,0x1f
9d009ef8:	1100002b 	beqz	t0,9d009fa8 <__ldexpf+0xc0>
9d009efc:	7c87b000 	ext	a3,a0,0x0,0x17
9d009f00:	24c6ff81 	addiu	a2,a2,-127
9d009f04:	3c020080 	lui	v0,0x80
9d009f08:	00e21025 	or	v0,a3,v0
9d009f0c:	00c53021 	addu	a2,a2,a1
9d009f10:	24c3007f 	addiu	v1,a2,127
9d009f14:	18600018 	blez	v1,9d009f78 <__ldexpf+0x90>
9d009f18:	000210c0 	sll	v0,v0,0x3
9d009f1c:	30440007 	andi	a0,v0,0x7
9d009f20:	1480000d 	bnez	a0,9d009f58 <__ldexpf+0x70>
9d009f24:	7c4400c0 	ext	a0,v0,0x3,0x1
9d009f28:	286400ff 	slti	a0,v1,255
9d009f2c:	10800024 	beqz	a0,9d009fc0 <__ldexpf+0xd8>
9d009f30:	000210c2 	srl	v0,v0,0x3
9d009f34:	7c4405c0 	ext	a0,v0,0x17,0x1
9d009f38:	50800002 	beqzl	a0,9d009f44 <__ldexpf+0x5c>
9d009f3c:	00001821 	move	v1,zero
9d009f40:	7c42b000 	ext	v0,v0,0x0,0x17
9d009f44:	00094a00 	sll	t1,t1,0x8
9d009f48:	00691825 	or	v1,v1,t1
9d009f4c:	00031dc0 	sll	v1,v1,0x17
9d009f50:	03e00008 	jr	ra
9d009f54:	00621025 	or	v0,v1,v0
9d009f58:	24420003 	addiu	v0,v0,3
9d009f5c:	00441021 	addu	v0,v0,a0
9d009f60:	000226c2 	srl	a0,v0,0x1b
9d009f64:	1080fff1 	beqz	a0,9d009f2c <__ldexpf+0x44>
9d009f68:	286400ff 	slti	a0,v1,255
9d009f6c:	00021042 	srl	v0,v0,0x1
9d009f70:	0b4027ca 	j	9d009f28 <__ldexpf+0x40>
9d009f74:	24630001 	addiu	v1,v1,1
9d009f78:	2403ff82 	li	v1,-126
9d009f7c:	00661823 	subu	v1,v1,a2
9d009f80:	2864001b 	slti	a0,v1,27
9d009f84:	50800012 	beqzl	a0,9d009fd0 <__ldexpf+0xe8>
9d009f88:	00001021 	move	v0,zero
9d009f8c:	24c4009e 	addiu	a0,a2,158
9d009f90:	00822004 	sllv	a0,v0,a0
9d009f94:	00621006 	srlv	v0,v0,v1
9d009f98:	0004182b 	sltu	v1,zero,a0
9d009f9c:	00621025 	or	v0,v1,v0
9d009fa0:	0b4027c7 	j	9d009f1c <__ldexpf+0x34>
9d009fa4:	24030001 	li	v1,1
9d009fa8:	14c00003 	bnez	a2,9d009fb8 <__ldexpf+0xd0>
9d009fac:	00000000 	nop
9d009fb0:	14e00009 	bnez	a3,9d009fd8 <__ldexpf+0xf0>
9d009fb4:	70e31820 	clz	v1,a3
9d009fb8:	03e00008 	jr	ra
9d009fbc:	00801021 	move	v0,a0
9d009fc0:	00091200 	sll	v0,t1,0x8
9d009fc4:	344200ff 	ori	v0,v0,0xff
9d009fc8:	03e00008 	jr	ra
9d009fcc:	000215c0 	sll	v0,v0,0x17
9d009fd0:	0b4027d1 	j	9d009f44 <__ldexpf+0x5c>
9d009fd4:	00001821 	move	v1,zero
9d009fd8:	2462fff8 	addiu	v0,v1,-8
9d009fdc:	00471004 	sllv	v0,a3,v0
9d009fe0:	2406ff8a 	li	a2,-118
9d009fe4:	0b4027c3 	j	9d009f0c <__ldexpf+0x24>
9d009fe8:	00c33023 	subu	a2,a2,v1

Disassembly of section .text.dptofp:

9d009fec <__truncdfsf2>:
9d009fec:	00053ac0 00045d42 00eb3825 000432c0     .:..B]..%8...2..
9d009ffc:	3c018000 00e13825 3c018000 00a14824     ...<%8.....<$H..
9d00a00c:	00054040 00084542 2508fc80 250bffff     @@..BE.....%...%
9d00a01c:	2d6100fe 10200012 00000000              ..a-.. .....

9d00a028 <Hlab1>:
9d00a028:	10c00002 	beqz	a2,9d00a034 <i45>
9d00a02c:	00000000 	nop
9d00a030:	34e70001 	ori	a3,a3,0x1

9d00a034 <i45>:
9d00a034:	24e70080 	addiu	a3,a3,128
9d00a038:	2ceb0080 	sltiu	t3,a3,128
9d00a03c:	010b4021 	addu	t0,t0,t3
9d00a040:	00075a02 	srl	t3,a3,0x8
9d00a044:	316b0001 	andi	t3,t3,0x1
9d00a048:	00eb3823 	subu	a3,a3,t3
9d00a04c:	00073840 	sll	a3,a3,0x1
9d00a050:	00073a42 	srl	a3,a3,0x9
9d00a054:	00085dc0 	sll	t3,t0,0x17
9d00a058:	00eb3825 	or	a3,a3,t3
9d00a05c:	00e91025 	or	v0,a3,t1

9d00a060 <H999>:
9d00a060:	03e00008 	jr	ra
9d00a064:	00000000 	nop
9d00a068:	00000000 	nop

9d00a06c <Hspec>:
9d00a06c:	2401047f 	li	at,1151
9d00a070:	15010007 	bne	t0,at,9d00a090 <i46>
9d00a074:	00000000 	nop
9d00a078:	00075840 	sll	t3,a3,0x1
9d00a07c:	01665825 	or	t3,t3,a2
9d00a080:	11600003 	beqz	t3,9d00a090 <i46>
9d00a084:	00000000 	nop
9d00a088:	1000fff5 	b	9d00a060 <H999>
9d00a08c:	3c02ffc0 	lui	v0,0xffc0

9d00a090 <i46>:
9d00a090:	290100ff 	slti	at,t0,255
9d00a094:	14200004 	bnez	at,9d00a0a8 <i48>
9d00a098:	00000000 	nop
9d00a09c:	3c017f80 	lui	at,0x7f80
9d00a0a0:	1000ffef 	b	9d00a060 <H999>
9d00a0a4:	01211025 	or	v0,t1,at

9d00a0a8 <i48>:
9d00a0a8:	240a0001 	li	t2,1
9d00a0ac:	01485023 	subu	t2,t2,t0
9d00a0b0:	2d410020 	sltiu	at,t2,32
9d00a0b4:	14200003 	bnez	at,9d00a0c4 <i49>
9d00a0b8:	00000000 	nop
9d00a0bc:	1000ffe8 	b	9d00a060 <H999>
9d00a0c0:	00091025 	or	v0,zero,t1

9d00a0c4 <i49>:
9d00a0c4:	240c0020 	li	t4,32
9d00a0c8:	018a6023 	subu	t4,t4,t2
9d00a0cc:	01875804 	sllv	t3,a3,t4
9d00a0d0:	00cb3025 	or	a2,a2,t3
9d00a0d4:	01473806 	srlv	a3,a3,t2
9d00a0d8:	24080000 	li	t0,0
9d00a0dc:	3c018000 	lui	at,0x8000
9d00a0e0:	1000ffd1 	b	9d00a028 <Hlab1>
9d00a0e4:	00e13825 	or	a3,a3,at
9d00a0e8:	00000000 	nop

Disassembly of section .text._flsbuf_simple:

9d00a0ec <_flsbuf_simple>:
9d00a0ec:	27bdffd8 	addiu	sp,sp,-40
9d00a0f0:	afbf0024 	sw	ra,36(sp)
9d00a0f4:	afb10020 	sw	s1,32(sp)
9d00a0f8:	afb0001c 	sw	s0,28(sp)
9d00a0fc:	00a08021 	move	s0,a1
9d00a100:	8ca2000c 	lw	v0,12(a1)
9d00a104:	1040002d 	beqz	v0,9d00a1bc <_flsbuf_simple+0xd0>
9d00a108:	00808821 	move	s1,a0
9d00a10c:	8ca20000 	lw	v0,0(a1)
9d00a110:	24420001 	addiu	v0,v0,1
9d00a114:	2403ffff 	li	v1,-1
9d00a118:	1043001e 	beq	v0,v1,9d00a194 <_flsbuf_simple+0xa8>
9d00a11c:	aca20000 	sw	v0,0(a1)
9d00a120:	0f402b78 	jal	9d00ade0 <_fflush_simple>
9d00a124:	02002021 	move	a0,s0
9d00a128:	8e040000 	lw	a0,0(s0)
9d00a12c:	8e020004 	lw	v0,4(s0)
9d00a130:	2484ffff 	addiu	a0,a0,-1
9d00a134:	24430001 	addiu	v1,v0,1
9d00a138:	ae040000 	sw	a0,0(s0)
9d00a13c:	ae030004 	sw	v1,4(s0)
9d00a140:	a0510000 	sb	s1,0(v0)
9d00a144:	2402000a 	li	v0,10
9d00a148:	52220007 	beql	s1,v0,9d00a168 <_flsbuf_simple+0x7c>
9d00a14c:	96020010 	lhu	v0,16(s0)
9d00a150:	02201021 	move	v0,s1
9d00a154:	8fbf0024 	lw	ra,36(sp)
9d00a158:	8fb10020 	lw	s1,32(sp)
9d00a15c:	8fb0001c 	lw	s0,28(sp)
9d00a160:	03e00008 	jr	ra
9d00a164:	27bd0028 	addiu	sp,sp,40
9d00a168:	30420008 	andi	v0,v0,0x8
9d00a16c:	1040fff9 	beqz	v0,9d00a154 <_flsbuf_simple+0x68>
9d00a170:	02201021 	move	v0,s1
9d00a174:	0f402b78 	jal	9d00ade0 <_fflush_simple>
9d00a178:	02002021 	move	a0,s0
9d00a17c:	02201021 	move	v0,s1
9d00a180:	8fbf0024 	lw	ra,36(sp)
9d00a184:	8fb10020 	lw	s1,32(sp)
9d00a188:	8fb0001c 	lw	s0,28(sp)
9d00a18c:	03e00008 	jr	ra
9d00a190:	27bd0028 	addiu	sp,sp,40
9d00a194:	8ca20008 	lw	v0,8(a1)
9d00a198:	1440ffe1 	bnez	v0,9d00a120 <_flsbuf_simple+0x34>
9d00a19c:	00000000 	nop
9d00a1a0:	94a20010 	lhu	v0,16(a1)
9d00a1a4:	aca00004 	sw	zero,4(a1)
9d00a1a8:	aca0000c 	sw	zero,12(a1)
9d00a1ac:	34420010 	ori	v0,v0,0x10
9d00a1b0:	aca00000 	sw	zero,0(a1)
9d00a1b4:	0b402848 	j	9d00a120 <_flsbuf_simple+0x34>
9d00a1b8:	a4a20010 	sh	v0,16(a1)
9d00a1bc:	27a40010 	addiu	a0,sp,16
9d00a1c0:	24050001 	li	a1,1
9d00a1c4:	0f402d3b 	jal	9d00b4ec <.LFE4>
9d00a1c8:	a3b10010 	sb	s1,16(sp)
9d00a1cc:	ae000000 	sw	zero,0(s0)
9d00a1d0:	02201021 	move	v0,s1
9d00a1d4:	8fbf0024 	lw	ra,36(sp)
9d00a1d8:	8fb10020 	lw	s1,32(sp)
9d00a1dc:	8fb0001c 	lw	s0,28(sp)
9d00a1e0:	03e00008 	jr	ra
9d00a1e4:	27bd0028 	addiu	sp,sp,40

Disassembly of section .text.strchr:

9d00a1e8 <strchr>:
9d00a1e8:	30820003 	andi	v0,a0,0x3
9d00a1ec:	14400034 	bnez	v0,9d00a2c0 <strchr+0xd8>
9d00a1f0:	30a600ff 	andi	a2,a1,0xff
9d00a1f4:	30a500ff 	andi	a1,a1,0xff
9d00a1f8:	00054a00 	sll	t1,a1,0x8
9d00a1fc:	8c820000 	lw	v0,0(a0)
9d00a200:	01252825 	or	a1,t1,a1
9d00a204:	00054c00 	sll	t1,a1,0x10
9d00a208:	01254825 	or	t1,t1,a1
9d00a20c:	01221826 	xor	v1,t1,v0
9d00a210:	3c05fefe 	lui	a1,0xfefe
9d00a214:	34a5feff 	ori	a1,a1,0xfeff
9d00a218:	00034027 	nor	t0,zero,v1
9d00a21c:	00651821 	addu	v1,v1,a1
9d00a220:	00023827 	nor	a3,zero,v0
9d00a224:	00451021 	addu	v0,v0,a1
9d00a228:	01031824 	and	v1,t0,v1
9d00a22c:	00e21024 	and	v0,a3,v0
9d00a230:	00621025 	or	v0,v1,v0
9d00a234:	3c0a8080 	lui	t2,0x8080
9d00a238:	354a8080 	ori	t2,t2,0x8080
9d00a23c:	004a1024 	and	v0,v0,t2
9d00a240:	54400020 	bnezl	v0,9d00a2c4 <strchr+0xdc>
9d00a244:	90820000 	lbu	v0,0(a0)
9d00a248:	24840004 	addiu	a0,a0,4
9d00a24c:	8c820000 	lw	v0,0(a0)
9d00a250:	01221826 	xor	v1,t1,v0
9d00a254:	00034027 	nor	t0,zero,v1
9d00a258:	00651821 	addu	v1,v1,a1
9d00a25c:	00023827 	nor	a3,zero,v0
9d00a260:	00451021 	addu	v0,v0,a1
9d00a264:	01031824 	and	v1,t0,v1
9d00a268:	00e21024 	and	v0,a3,v0
9d00a26c:	00621025 	or	v0,v1,v0
9d00a270:	004a1024 	and	v0,v0,t2
9d00a274:	54400013 	bnezl	v0,9d00a2c4 <strchr+0xdc>
9d00a278:	90820000 	lbu	v0,0(a0)
9d00a27c:	24840004 	addiu	a0,a0,4
9d00a280:	8c820000 	lw	v0,0(a0)
9d00a284:	01221826 	xor	v1,t1,v0
9d00a288:	00034027 	nor	t0,zero,v1
9d00a28c:	00651821 	addu	v1,v1,a1
9d00a290:	00023827 	nor	a3,zero,v0
9d00a294:	00451021 	addu	v0,v0,a1
9d00a298:	01031824 	and	v1,t0,v1
9d00a29c:	00e21024 	and	v0,a3,v0
9d00a2a0:	00621025 	or	v0,v1,v0
9d00a2a4:	004a1024 	and	v0,v0,t2
9d00a2a8:	5040ffe8 	beqzl	v0,9d00a24c <strchr+0x64>
9d00a2ac:	24840004 	addiu	a0,a0,4
9d00a2b0:	0b4028b1 	j	9d00a2c4 <strchr+0xdc>
9d00a2b4:	90820000 	lbu	v0,0(a0)
9d00a2b8:	10400006 	beqz	v0,9d00a2d4 <strchr+0xec>
9d00a2bc:	24840001 	addiu	a0,a0,1
9d00a2c0:	90820000 	lbu	v0,0(a0)
9d00a2c4:	1446fffc 	bne	v0,a2,9d00a2b8 <strchr+0xd0>
9d00a2c8:	00000000 	nop
9d00a2cc:	03e00008 	jr	ra
9d00a2d0:	00801021 	move	v0,a0
9d00a2d4:	03e00008 	jr	ra
9d00a2d8:	00001021 	move	v0,zero

Disassembly of section .text._mon_getc:

9d00a2dc <_mon_getc>:
9d00a2dc:	27bdffe8 	addiu	sp,sp,-24

9d00a2e0 <.LCFI0>:
9d00a2e0:	afbf0014 	sw	ra,20(sp)
9d00a2e4:	3c02a000 	lui	v0,0xa000
9d00a2e8:	8c420008 	lw	v0,8(v0)
9d00a2ec:	1440000a 	bnez	v0,9d00a318 <.LCFI0+0x38>
9d00a2f0:	24030002 	li	v1,2
9d00a2f4:	3c020000 	lui	v0,0x0
9d00a2f8:	24420000 	addiu	v0,v0,0
9d00a2fc:	10400029 	beqz	v0,9d00a3a4 <.LCFI0+0xc4>
9d00a300:	3c020000 	lui	v0,0x0
9d00a304:	0c000000 	jal	90000000 <_bmxdudba_address+0x8ffe0000>
9d00a308:	00000000 	nop
9d00a30c:	8fbf0014 	lw	ra,20(sp)
9d00a310:	03e00008 	jr	ra
9d00a314:	27bd0018 	addiu	sp,sp,24
9d00a318:	1043001c 	beq	v0,v1,9d00a38c <.LCFI0+0xac>
9d00a31c:	3c02bf80 	lui	v0,0xbf80
9d00a320:	3c02bf80 	lui	v0,0xbf80
9d00a324:	8c426000 	lw	v0,24576(v0)
9d00a328:	3c05bf80 	lui	a1,0xbf80
9d00a32c:	24a56030 	addiu	a1,a1,24624
9d00a330:	3c04bf80 	lui	a0,0xbf80
9d00a334:	24846010 	addiu	a0,a0,24592
9d00a338:	30428000 	andi	v0,v0,0x8000
9d00a33c:	14400003 	bnez	v0,9d00a34c <.LCFI0+0x6c>
9d00a340:	34038000 	li	v1,0x8000
9d00a344:	3c02bf80 	lui	v0,0xbf80
9d00a348:	ac436008 	sw	v1,24584(v0)
9d00a34c:	8c820000 	lw	v0,0(a0)
9d00a350:	30420001 	andi	v0,v0,0x1
9d00a354:	14400009 	bnez	v0,9d00a37c <.LCFI0+0x9c>
9d00a358:	240200a0 	li	v0,160
9d00a35c:	0b4028db 	j	9d00a36c <.LCFI0+0x8c>
9d00a360:	00000000 	nop
9d00a364:	10400005 	beqz	v0,9d00a37c <.LCFI0+0x9c>
9d00a368:	00000000 	nop
9d00a36c:	8c830000 	lw	v1,0(a0)
9d00a370:	30630001 	andi	v1,v1,0x1
9d00a374:	1060fffb 	beqz	v1,9d00a364 <.LCFI0+0x84>
9d00a378:	2442ffff 	addiu	v0,v0,-1
9d00a37c:	8ca20000 	lw	v0,0(a1)
9d00a380:	8fbf0014 	lw	ra,20(sp)
9d00a384:	03e00008 	jr	ra
9d00a388:	27bd0018 	addiu	sp,sp,24
9d00a38c:	8c426800 	lw	v0,26624(v0)
9d00a390:	3c05bf80 	lui	a1,0xbf80
9d00a394:	24a56830 	addiu	a1,a1,26672
9d00a398:	3c04bf80 	lui	a0,0xbf80
9d00a39c:	0b4028ce 	j	9d00a338 <.LCFI0+0x58>
9d00a3a0:	24846810 	addiu	a0,a0,26640
9d00a3a4:	24420000 	addiu	v0,v0,0
9d00a3a8:	5040ffde 	beqzl	v0,9d00a324 <.LCFI0+0x44>
9d00a3ac:	3c02bf80 	lui	v0,0xbf80
9d00a3b0:	0c000000 	jal	90000000 <_bmxdudba_address+0x8ffe0000>
9d00a3b4:	00000000 	nop
9d00a3b8:	0b4028c4 	j	9d00a310 <.LCFI0+0x30>
9d00a3bc:	8fbf0014 	lw	ra,20(sp)

Disassembly of section .text.general_exception:

9d00a3c0 <_general_exception_context>:
9d00a3c0:	27bdffa8 	addiu	sp,sp,-88
9d00a3c4:	afa10004 	sw	at,4(sp)
9d00a3c8:	afa20008 	sw	v0,8(sp)
9d00a3cc:	afa3000c 	sw	v1,12(sp)
9d00a3d0:	afa40010 	sw	a0,16(sp)
9d00a3d4:	afa50014 	sw	a1,20(sp)
9d00a3d8:	afa60018 	sw	a2,24(sp)
9d00a3dc:	afa7001c 	sw	a3,28(sp)
9d00a3e0:	afa80020 	sw	t0,32(sp)
9d00a3e4:	afa90024 	sw	t1,36(sp)
9d00a3e8:	afaa0028 	sw	t2,40(sp)
9d00a3ec:	afab002c 	sw	t3,44(sp)
9d00a3f0:	afac0030 	sw	t4,48(sp)
9d00a3f4:	afad0034 	sw	t5,52(sp)
9d00a3f8:	afae0038 	sw	t6,56(sp)
9d00a3fc:	afaf003c 	sw	t7,60(sp)
9d00a400:	afb80040 	sw	t8,64(sp)
9d00a404:	afb90044 	sw	t9,68(sp)
9d00a408:	afbf0048 	sw	ra,72(sp)
9d00a40c:	00004012 	mflo	t0
9d00a410:	afa8004c 	sw	t0,76(sp)
9d00a414:	00004010 	mfhi	t0
9d00a418:	afa80050 	sw	t0,80(sp)
9d00a41c:	3c1a9d01 	lui	k0,0x9d01
9d00a420:	275ab580 	addiu	k0,k0,-19072
9d00a424:	00000000 	nop
9d00a428:	40046800 	mfc0	a0,c0_cause
9d00a42c:	40056000 	mfc0	a1,c0_status
9d00a430:	0340f809 	jalr	k0
9d00a434:	00000000 	nop
9d00a438:	8fa80050 	lw	t0,80(sp)
9d00a43c:	01000011 	mthi	t0
9d00a440:	8fa8004c 	lw	t0,76(sp)
9d00a444:	01000013 	mtlo	t0
9d00a448:	8fa10004 	lw	at,4(sp)
9d00a44c:	8fa20008 	lw	v0,8(sp)
9d00a450:	8fa3000c 	lw	v1,12(sp)
9d00a454:	8fa40010 	lw	a0,16(sp)
9d00a458:	8fa50014 	lw	a1,20(sp)
9d00a45c:	8fa60018 	lw	a2,24(sp)
9d00a460:	8fa7001c 	lw	a3,28(sp)
9d00a464:	8fa80020 	lw	t0,32(sp)
9d00a468:	8fa90024 	lw	t1,36(sp)
9d00a46c:	8faa0028 	lw	t2,40(sp)
9d00a470:	8fab002c 	lw	t3,44(sp)
9d00a474:	8fac0030 	lw	t4,48(sp)
9d00a478:	8fad0034 	lw	t5,52(sp)
9d00a47c:	8fae0038 	lw	t6,56(sp)
9d00a480:	8faf003c 	lw	t7,60(sp)
9d00a484:	8fb80040 	lw	t8,64(sp)
9d00a488:	8fb90044 	lw	t9,68(sp)
9d00a48c:	8fbf0048 	lw	ra,72(sp)
9d00a490:	27bd0058 	addiu	sp,sp,88
9d00a494:	000000c0 	ehb
9d00a498:	42000018 	eret

Disassembly of section .text.libm:

9d00a49c <fpmodf>:
9d00a49c:	00043dc2 30e700ff 3c088000 00043200     .=.....0...<.2..
9d00a4ac:	00c83025 01044024 240100ff 10e10028     %0..$@.....$(...
9d00a4bc:	00000000 00064825 00075025 00085825     ....%H..%P..%X..
9d00a4cc:	240c009e 01876023 19800006 00000000     ...$#`..........
9d00a4dc:	29810020 1020001c 00000000 01894806      ..).. ......H..
9d00a4ec:	01894804                                .H..

9d00a4f0 <Dlab3>:
9d00a4f0:	00096040 	sll	t4,t1,0x1
9d00a4f4:	000c6242 	srl	t4,t4,0x9
9d00a4f8:	000a6dc0 	sll	t5,t2,0x17
9d00a4fc:	018d6025 	or	t4,t4,t5
9d00a500:	018b6825 	or	t5,t4,t3
9d00a504:	acad0000 	sw	t5,0(a1)
9d00a508:	00ea6023 	subu	t4,a3,t2
9d00a50c:	2d810020 	sltiu	at,t4,32
9d00a510:	14200002 	bnez	at,9d00a51c <L2>
9d00a514:	00000000 	nop
9d00a518:	34090000 	li	t1,0x0

9d00a51c <L2>:
9d00a51c:	01894806 	srlv	t1,t1,t4
9d00a520:	00c93023 	subu	a2,a2,t1
9d00a524:	10c00008 	beqz	a2,9d00a548 <Dret2>
9d00a528:	00000000 	nop
9d00a52c:	70cc6020 	clz	t4,a2
9d00a530:	00ec3823 	subu	a3,a3,t4
9d00a534:	01863004 	sllv	a2,a2,t4

9d00a538 <Dret>:
9d00a538:	00063040 	sll	a2,a2,0x1
9d00a53c:	00063242 	srl	a2,a2,0x9
9d00a540:	00076dc0 	sll	t5,a3,0x17
9d00a544:	00cd3025 	or	a2,a2,t5

9d00a548 <Dret2>:
9d00a548:	00c81025 	or	v0,a2,t0

9d00a54c <D999>:
9d00a54c:	03e00008 	jr	ra
9d00a550:	00000000 	nop

9d00a554 <Dzer>:
9d00a554:	1000fff8 	b	9d00a538 <Dret>
9d00a558:	aca80000 	sw	t0,0(a1)

9d00a55c <Dinfnan>:
9d00a55c:	3c04ffc0 	lui	a0,0xffc0
9d00a560:	aca40000 	sw	a0,0(a1)
9d00a564:	1000fff9 	b	9d00a54c <D999>
9d00a568:	00041025 	or	v0,zero,a0
9d00a56c:	00000000 	nop

Disassembly of section .text._mon_putc:

9d00a570 <_mon_putc>:
9d00a570:	27bdffe8 	addiu	sp,sp,-24

9d00a574 <.LCFI0>:
9d00a574:	afbf0014 	sw	ra,20(sp)
9d00a578:	3c02a000 	lui	v0,0xa000
9d00a57c:	8c420008 	lw	v0,8(v0)
9d00a580:	1440000a 	bnez	v0,9d00a5ac <.LCFI0+0x38>
9d00a584:	00802821 	move	a1,a0
9d00a588:	3c020000 	lui	v0,0x0
9d00a58c:	24420000 	addiu	v0,v0,0
9d00a590:	10400025 	beqz	v0,9d00a628 <.LCFI0+0xb4>
9d00a594:	3c020000 	lui	v0,0x0
9d00a598:	0c000000 	jal	90000000 <_bmxdudba_address+0x8ffe0000>
9d00a59c:	00000000 	nop
9d00a5a0:	8fbf0014 	lw	ra,20(sp)
9d00a5a4:	03e00008 	jr	ra
9d00a5a8:	27bd0018 	addiu	sp,sp,24
9d00a5ac:	24030001 	li	v1,1
9d00a5b0:	10430015 	beq	v0,v1,9d00a608 <.LCFI0+0x94>
9d00a5b4:	3c04bf80 	lui	a0,0xbf80
9d00a5b8:	3c04bf80 	lui	a0,0xbf80
9d00a5bc:	24846820 	addiu	a0,a0,26656
9d00a5c0:	3c02bf80 	lui	v0,0xbf80
9d00a5c4:	24426818 	addiu	v0,v0,26648
9d00a5c8:	3c06bf80 	lui	a2,0xbf80
9d00a5cc:	24c66808 	addiu	a2,a2,26632
9d00a5d0:	3c03bf80 	lui	v1,0xbf80
9d00a5d4:	24636810 	addiu	v1,v1,26640
9d00a5d8:	34078000 	li	a3,0x8000
9d00a5dc:	acc70000 	sw	a3,0(a2)
9d00a5e0:	24060400 	li	a2,1024
9d00a5e4:	ac460000 	sw	a2,0(v0)
9d00a5e8:	8c620000 	lw	v0,0(v1)
9d00a5ec:	30420100 	andi	v0,v0,0x100
9d00a5f0:	1040fffd 	beqz	v0,9d00a5e8 <.LCFI0+0x74>
9d00a5f4:	00000000 	nop
9d00a5f8:	ac850000 	sw	a1,0(a0)
9d00a5fc:	8fbf0014 	lw	ra,20(sp)
9d00a600:	03e00008 	jr	ra
9d00a604:	27bd0018 	addiu	sp,sp,24
9d00a608:	24846020 	addiu	a0,a0,24608
9d00a60c:	3c02bf80 	lui	v0,0xbf80
9d00a610:	24426018 	addiu	v0,v0,24600
9d00a614:	3c06bf80 	lui	a2,0xbf80
9d00a618:	24c66008 	addiu	a2,a2,24584
9d00a61c:	3c03bf80 	lui	v1,0xbf80
9d00a620:	0b402976 	j	9d00a5d8 <.LCFI0+0x64>
9d00a624:	24636010 	addiu	v1,v1,24592
9d00a628:	24420000 	addiu	v0,v0,0
9d00a62c:	5040ffe3 	beqzl	v0,9d00a5bc <.LCFI0+0x48>
9d00a630:	3c04bf80 	lui	a0,0xbf80
9d00a634:	0c000000 	jal	90000000 <_bmxdudba_address+0x8ffe0000>
9d00a638:	00000000 	nop
9d00a63c:	0b402969 	j	9d00a5a4 <.LCFI0+0x30>
9d00a640:	8fbf0014 	lw	ra,20(sp)

Disassembly of section .text._sbrk:

9d00a644 <_sbrk>:
9d00a644:	27bdffe0 	addiu	sp,sp,-32

9d00a648 <.LCFI2>:
9d00a648:	afbf001c 	sw	ra,28(sp)
9d00a64c:	afb00018 	sw	s0,24(sp)
9d00a650:	3c10a000 	lui	s0,0xa000
9d00a654:	8e0205ec 	lw	v0,1516(s0)
9d00a658:	10400010 	beqz	v0,9d00a69c <.LCFI2+0x54>
9d00a65c:	00000000 	nop
9d00a660:	1880001b 	blez	a0,9d00a6d0 <.LCFI2+0x88>
9d00a664:	00441821 	addu	v1,v0,a0
9d00a668:	0062202b 	sltu	a0,v1,v0
9d00a66c:	54800011 	bnezl	a0,9d00a6b4 <.LCFI2+0x6c>
9d00a670:	2403000c 	li	v1,12
9d00a674:	3c04a000 	lui	a0,0xa000
9d00a678:	8c8405f0 	lw	a0,1520(a0)
9d00a67c:	0083202b 	sltu	a0,a0,v1
9d00a680:	5480000c 	bnezl	a0,9d00a6b4 <.LCFI2+0x6c>
9d00a684:	2403000c 	li	v1,12
9d00a688:	ae0305ec 	sw	v1,1516(s0)
9d00a68c:	8fbf001c 	lw	ra,28(sp)
9d00a690:	8fb00018 	lw	s0,24(sp)
9d00a694:	03e00008 	jr	ra
9d00a698:	27bd0020 	addiu	sp,sp,32
9d00a69c:	0f4025f4 	jal	9d0097d0 <.LFE23>
9d00a6a0:	afa40010 	sw	a0,16(sp)
9d00a6a4:	8e0205ec 	lw	v0,1516(s0)
9d00a6a8:	1440ffed 	bnez	v0,9d00a660 <.LCFI2+0x18>
9d00a6ac:	8fa40010 	lw	a0,16(sp)
9d00a6b0:	2403000c 	li	v1,12
9d00a6b4:	3c02a000 	lui	v0,0xa000
9d00a6b8:	ac430020 	sw	v1,32(v0)
9d00a6bc:	2402ffff 	li	v0,-1
9d00a6c0:	8fbf001c 	lw	ra,28(sp)
9d00a6c4:	8fb00018 	lw	s0,24(sp)
9d00a6c8:	03e00008 	jr	ra
9d00a6cc:	27bd0020 	addiu	sp,sp,32
9d00a6d0:	0043202b 	sltu	a0,v0,v1
9d00a6d4:	14800005 	bnez	a0,9d00a6ec <.LCFI2+0xa4>
9d00a6d8:	3c04a000 	lui	a0,0xa000
9d00a6dc:	8c8405f4 	lw	a0,1524(a0)
9d00a6e0:	0064202b 	sltu	a0,v1,a0
9d00a6e4:	5080ffe9 	beqzl	a0,9d00a68c <.LCFI2+0x44>
9d00a6e8:	ae0305ec 	sw	v1,1516(s0)
9d00a6ec:	24030016 	li	v1,22
9d00a6f0:	3c02a000 	lui	v0,0xa000
9d00a6f4:	ac430020 	sw	v1,32(v0)
9d00a6f8:	2402ffff 	li	v0,-1
9d00a6fc:	8fbf001c 	lw	ra,28(sp)
9d00a700:	8fb00018 	lw	s0,24(sp)
9d00a704:	03e00008 	jr	ra
9d00a708:	27bd0020 	addiu	sp,sp,32

Disassembly of section .text.libm:

9d00a70c <ceilf>:
9d00a70c:	3c018000 00812824 00043840 00073e02     ...<$(..@8...>..
9d00a71c:	240100ff 10e1001a 00000000 24080096     ...$...........$
9d00a72c:	01073823 18e00013 00000000 2ce10018     #8.............,
9d00a73c:	14200007 00000000 14a00018 00000000     .. .............
9d00a74c:	14800014 00000000 10000014 00000000     ................

9d00a75c <i1>:
9d00a75c:	14a00002 	bnez	a1,9d00a768 <i2>
9d00a760:	00000000 	nop
9d00a764:	00042023 	negu	a0,a0

9d00a768 <i2>:
9d00a768:	24060001 	li	a2,1
9d00a76c:	00e63004 	sllv	a2,a2,a3
9d00a770:	00063023 	negu	a2,a2
9d00a774:	14a00002 	bnez	a1,9d00a780 <Aret>
9d00a778:	00862024 	and	a0,a0,a2
9d00a77c:	00042023 	negu	a0,a0

9d00a780 <Aret>:
9d00a780:	00041025 	or	v0,zero,a0

9d00a784 <A999>:
9d00a784:	03e00008 	jr	ra
9d00a788:	00000000 	nop

9d00a78c <Aspec>:
9d00a78c:	00044240 	sll	t0,a0,0x9
9d00a790:	15000007 	bnez	t0,9d00a7b0 <Anan>
9d00a794:	00000000 	nop
9d00a798:	1000fff9 	b	9d00a780 <Aret>
9d00a79c:	00000000 	nop

9d00a7a0 <Aone>:
9d00a7a0:	1000fff8 	b	9d00a784 <A999>
9d00a7a4:	3c023f80 	lui	v0,0x3f80

9d00a7a8 <Azer>:
9d00a7a8:	1000fff6 	b	9d00a784 <A999>
9d00a7ac:	00051025 	or	v0,zero,a1

9d00a7b0 <Anan>:
9d00a7b0:	1000fff4 	b	9d00a784 <A999>
9d00a7b4:	3c02ffc0 	lui	v0,0xffc0
9d00a7b8:	00000000 	nop

Disassembly of section .text.fputc:

9d00a7bc <fputc>:
9d00a7bc:	27bdffe0 	addiu	sp,sp,-32
9d00a7c0:	afbf001c 	sw	ra,28(sp)
9d00a7c4:	afb10018 	sw	s1,24(sp)
9d00a7c8:	afb00014 	sw	s0,20(sp)
9d00a7cc:	00a08021 	move	s0,a1
9d00a7d0:	8ca20018 	lw	v0,24(a1)
9d00a7d4:	00808821 	move	s1,a0
9d00a7d8:	24050001 	li	a1,1
9d00a7dc:	8c420010 	lw	v0,16(v0)
9d00a7e0:	0040f809 	jalr	v0
9d00a7e4:	02002021 	move	a0,s0
9d00a7e8:	1040000e 	beqz	v0,9d00a824 <fputc+0x68>
9d00a7ec:	2402ffff 	li	v0,-1
9d00a7f0:	8e020000 	lw	v0,0(s0)
9d00a7f4:	2442ffff 	addiu	v0,v0,-1
9d00a7f8:	04400011 	bltz	v0,9d00a840 <fputc+0x84>
9d00a7fc:	ae020000 	sw	v0,0(s0)
9d00a800:	96020010 	lhu	v0,16(s0)
9d00a804:	30420008 	andi	v0,v0,0x8
9d00a808:	1440000b 	bnez	v0,9d00a838 <fputc+0x7c>
9d00a80c:	2402000a 	li	v0,10
9d00a810:	8e030004 	lw	v1,4(s0)
9d00a814:	02201021 	move	v0,s1
9d00a818:	24640001 	addiu	a0,v1,1
9d00a81c:	ae040004 	sw	a0,4(s0)
9d00a820:	a0710000 	sb	s1,0(v1)
9d00a824:	8fbf001c 	lw	ra,28(sp)
9d00a828:	8fb10018 	lw	s1,24(sp)
9d00a82c:	8fb00014 	lw	s0,20(sp)
9d00a830:	03e00008 	jr	ra
9d00a834:	27bd0020 	addiu	sp,sp,32
9d00a838:	5622fff6 	bnel	s1,v0,9d00a814 <fputc+0x58>
9d00a83c:	8e030004 	lw	v1,4(s0)
9d00a840:	8e020018 	lw	v0,24(s0)
9d00a844:	02202021 	move	a0,s1
9d00a848:	8c420004 	lw	v0,4(v0)
9d00a84c:	0040f809 	jalr	v0
9d00a850:	02002821 	move	a1,s0
9d00a854:	8fbf001c 	lw	ra,28(sp)
9d00a858:	8fb10018 	lw	s1,24(sp)
9d00a85c:	8fb00014 	lw	s0,20(sp)
9d00a860:	03e00008 	jr	ra
9d00a864:	27bd0020 	addiu	sp,sp,32

Disassembly of section .text.fptodp:

9d00a868 <__extendsfdf2>:
9d00a868:	00043dc2 30e700ff 3c018000 00813024     .=.....0...<$0..
9d00a878:	24e9ffff 2d2100fe 1020000d 00000000     ...$..!-.. .....

9d00a888 <Glab1>:
9d00a888:	24e70380 	addiu	a3,a3,896
9d00a88c:	00044a40 	sll	t1,a0,0x9
9d00a890:	00094b02 	srl	t1,t1,0xc
9d00a894:	00c93025 	or	a2,a2,t1
9d00a898:	00042f40 	sll	a1,a0,0x1d

9d00a89c <Gret>:
9d00a89c:	00074d00 	sll	t1,a3,0x14
9d00a8a0:	00c93025 	or	a2,a2,t1
9d00a8a4:	00051025 	or	v0,zero,a1
9d00a8a8:	00061825 	or	v1,zero,a2

9d00a8ac <G999>:
9d00a8ac:	03e00008 	jr	ra
9d00a8b0:	00000000 	nop
9d00a8b4:	00000000 	nop

9d00a8b8 <Gspec>:
9d00a8b8:	24050000 	li	a1,0
9d00a8bc:	00842021 	addu	a0,a0,a0
9d00a8c0:	1080fff6 	beqz	a0,9d00a89c <Gret>
9d00a8c4:	00000000 	nop
9d00a8c8:	14e00009 	bnez	a3,9d00a8f0 <i42>
9d00a8cc:	00000000 	nop

9d00a8d0 <b43>:
9d00a8d0:	24e7ffff 	addiu	a3,a3,-1
9d00a8d4:	00842021 	addu	a0,a0,a0
9d00a8d8:	3c010080 	lui	at,0x80
9d00a8dc:	0081082b 	sltu	at,a0,at
9d00a8e0:	1420fffb 	bnez	at,9d00a8d0 <b43>
9d00a8e4:	00000000 	nop
9d00a8e8:	1000ffe7 	b	9d00a888 <Glab1>
9d00a8ec:	00000000 	nop

9d00a8f0 <i42>:
9d00a8f0:	240707ff 	li	a3,2047
9d00a8f4:	3c01ff00 	lui	at,0xff00
9d00a8f8:	34210001 	ori	at,at,0x1
9d00a8fc:	0081082b 	sltu	at,a0,at
9d00a900:	1420ffe6 	bnez	at,9d00a89c <Gret>
9d00a904:	00000000 	nop
9d00a908:	1000ffe4 	b	9d00a89c <Gret>
9d00a90c:	3c06fff8 	lui	a2,0xfff8
9d00a910:	00000000 	nop

Disassembly of section .text._fullexit:

9d00a914 <_fullexit>:
9d00a914:	27bdffe0 	addiu	sp,sp,-32
9d00a918:	afbf001c 	sw	ra,28(sp)
9d00a91c:	afb20018 	sw	s2,24(sp)
9d00a920:	afb10014 	sw	s1,20(sp)
9d00a924:	afb00010 	sw	s0,16(sp)
9d00a928:	3c10a000 	lui	s0,0xa000
9d00a92c:	3c11a000 	lui	s1,0xa000
9d00a930:	00809021 	move	s2,a0
9d00a934:	0f402eb3 	jal	9d00bacc <_weak_pthread_mutex_lock>
9d00a938:	260405f8 	addiu	a0,s0,1528
9d00a93c:	8e220004 	lw	v0,4(s1)
9d00a940:	260405f8 	addiu	a0,s0,1528
9d00a944:	24030001 	li	v1,1
9d00a948:	0f402eb7 	jal	9d00badc <_weak_pthread_mutex_unlock>
9d00a94c:	ac430038 	sw	v1,56(v0)
9d00a950:	8e220004 	lw	v0,4(s1)
9d00a954:	8c500010 	lw	s0,16(v0)
9d00a958:	5600000a 	bnezl	s0,9d00a984 <_fullexit+0x70>
9d00a95c:	8e020004 	lw	v0,4(s0)
9d00a960:	0b402a68 	j	9d00a9a0 <_fullexit+0x8c>
9d00a964:	8c420034 	lw	v0,52(v0)
9d00a968:	00031880 	sll	v1,v1,0x2
9d00a96c:	02031821 	addu	v1,s0,v1
9d00a970:	8c630000 	lw	v1,0(v1)
9d00a974:	2442ffff 	addiu	v0,v0,-1
9d00a978:	0060f809 	jalr	v1
9d00a97c:	ae020004 	sw	v0,4(s0)
9d00a980:	8e020004 	lw	v0,4(s0)
9d00a984:	1c40fff8 	bgtz	v0,9d00a968 <_fullexit+0x54>
9d00a988:	24430001 	addiu	v1,v0,1
9d00a98c:	8e100000 	lw	s0,0(s0)
9d00a990:	5600fffc 	bnezl	s0,9d00a984 <_fullexit+0x70>
9d00a994:	8e020004 	lw	v0,4(s0)
9d00a998:	8e220004 	lw	v0,4(s1)
9d00a99c:	8c420034 	lw	v0,52(v0)
9d00a9a0:	10400003 	beqz	v0,9d00a9b0 <_fullexit+0x9c>
9d00a9a4:	00000000 	nop
9d00a9a8:	0040f809 	jalr	v0
9d00a9ac:	00000000 	nop
9d00a9b0:	0f402edb 	jal	9d00bb6c <.LFE0>
9d00a9b4:	02402021 	move	a0,s2

Disassembly of section .text._o_init:

9d00a9b8 <_o_init>:
9d00a9b8:	27bdffe8 	addiu	sp,sp,-24
9d00a9bc:	afbf0014 	sw	ra,20(sp)
9d00a9c0:	afb00010 	sw	s0,16(sp)
9d00a9c4:	00808021 	move	s0,a0
9d00a9c8:	3c02a000 	lui	v0,0xa000
9d00a9cc:	8c430004 	lw	v1,4(v0)
9d00a9d0:	8c820008 	lw	v0,8(a0)
9d00a9d4:	3c059d01 	lui	a1,0x9d01
9d00a9d8:	24a5b828 	addiu	a1,a1,-18392
9d00a9dc:	1040001b 	beqz	v0,9d00aa4c <_o_init+0x94>
9d00a9e0:	ac650034 	sw	a1,52(v1)
9d00a9e4:	8e03000c 	lw	v1,12(s0)
9d00a9e8:	50600004 	beqzl	v1,9d00a9fc <_o_init+0x44>
9d00a9ec:	96020010 	lhu	v0,16(s0)
9d00a9f0:	8e020008 	lw	v0,8(s0)
9d00a9f4:	ae020004 	sw	v0,4(s0)
9d00a9f8:	96020010 	lhu	v0,16(s0)
9d00a9fc:	ae030000 	sw	v1,0(s0)
9d00aa00:	34430002 	ori	v1,v0,0x2
9d00aa04:	30441000 	andi	a0,v0,0x1000
9d00aa08:	10800006 	beqz	a0,9d00aa24 <_o_init+0x6c>
9d00aa0c:	a6030010 	sh	v1,16(s0)
9d00aa10:	30420008 	andi	v0,v0,0x8
9d00aa14:	14400007 	bnez	v0,9d00aa34 <_o_init+0x7c>
9d00aa18:	00000000 	nop
9d00aa1c:	7c036304 	ins	v1,zero,0xc,0x1
9d00aa20:	a6030010 	sh	v1,16(s0)
9d00aa24:	8fbf0014 	lw	ra,20(sp)
9d00aa28:	8fb00010 	lw	s0,16(sp)
9d00aa2c:	03e00008 	jr	ra
9d00aa30:	27bd0018 	addiu	sp,sp,24
9d00aa34:	0f402edd 	jal	9d00bb74 <.LFE0>
9d00aa38:	86040012 	lh	a0,18(s0)
9d00aa3c:	1440fff7 	bnez	v0,9d00aa1c <_o_init+0x64>
9d00aa40:	96030010 	lhu	v1,16(s0)
9d00aa44:	0b402a87 	j	9d00aa1c <_o_init+0x64>
9d00aa48:	3063fff7 	andi	v1,v1,0xfff7
9d00aa4c:	0f402c9a 	jal	9d00b268 <_bufalloc>
9d00aa50:	00000000 	nop
9d00aa54:	0b402a7a 	j	9d00a9e8 <_o_init+0x30>
9d00aa58:	8e03000c 	lw	v1,12(s0)

Disassembly of section .text.repl:

9d00aa5c <repl>:
9d00aa5c:	27bdffd8 	addiu	sp,sp,-40
9d00aa60:	afbf0024 	sw	ra,36(sp)
9d00aa64:	afb40020 	sw	s4,32(sp)
9d00aa68:	afb3001c 	sw	s3,28(sp)
9d00aa6c:	afb20018 	sw	s2,24(sp)
9d00aa70:	afb10014 	sw	s1,20(sp)
9d00aa74:	afb00010 	sw	s0,16(sp)
9d00aa78:	00a08021 	move	s0,a1
9d00aa7c:	0080a021 	move	s4,a0
9d00aa80:	00c09821 	move	s3,a2
9d00aa84:	24120020 	li	s2,32
9d00aa88:	2411ffff 	li	s1,-1
9d00aa8c:	12000011 	beqz	s0,9d00aad4 <repl+0x78>
9d00aa90:	2e020021 	sltiu	v0,s0,33
9d00aa94:	02401821 	move	v1,s2
9d00aa98:	0202180b 	movn	v1,s0,v0
9d00aa9c:	02602021 	move	a0,s3
9d00aaa0:	00602821 	move	a1,v1
9d00aaa4:	02803021 	move	a2,s4
9d00aaa8:	0f402c4c 	jal	9d00b130 <__sputn>
9d00aaac:	02038023 	subu	s0,s0,v1
9d00aab0:	1451fff6 	bne	v0,s1,9d00aa8c <repl+0x30>
9d00aab4:	8fbf0024 	lw	ra,36(sp)
9d00aab8:	8fb40020 	lw	s4,32(sp)
9d00aabc:	8fb3001c 	lw	s3,28(sp)
9d00aac0:	8fb20018 	lw	s2,24(sp)
9d00aac4:	8fb10014 	lw	s1,20(sp)
9d00aac8:	8fb00010 	lw	s0,16(sp)
9d00aacc:	03e00008 	jr	ra
9d00aad0:	27bd0028 	addiu	sp,sp,40
9d00aad4:	00001021 	move	v0,zero
9d00aad8:	8fbf0024 	lw	ra,36(sp)
9d00aadc:	8fb40020 	lw	s4,32(sp)
9d00aae0:	8fb3001c 	lw	s3,28(sp)
9d00aae4:	8fb20018 	lw	s2,24(sp)
9d00aae8:	8fb10014 	lw	s1,20(sp)
9d00aaec:	8fb00010 	lw	s0,16(sp)
9d00aaf0:	03e00008 	jr	ra
9d00aaf4:	27bd0028 	addiu	sp,sp,40

Disassembly of section .text._eat_white:

9d00aaf8 <_eat_white>:
9d00aaf8:	27bdffe0 	addiu	sp,sp,-32
9d00aafc:	afbf001c 	sw	ra,28(sp)
9d00ab00:	afb20018 	sw	s2,24(sp)
9d00ab04:	afb10014 	sw	s1,20(sp)
9d00ab08:	afb00010 	sw	s0,16(sp)
9d00ab0c:	00808021 	move	s0,a0
9d00ab10:	2411ffff 	li	s1,-1
9d00ab14:	3c129d01 	lui	s2,0x9d01
9d00ab18:	0b402acc 	j	9d00ab30 <_eat_white+0x38>
9d00ab1c:	26529ce1 	addiu	s2,s2,-25375
9d00ab20:	80630000 	lb	v1,0(v1)
9d00ab24:	30630088 	andi	v1,v1,0x88
9d00ab28:	50600010 	beqzl	v1,9d00ab6c <_eat_white+0x74>
9d00ab2c:	8e030010 	lw	v1,16(s0)
9d00ab30:	0f402cb4 	jal	9d00b2d0 <gsgetc>
9d00ab34:	02002021 	move	a0,s0
9d00ab38:	1451fff9 	bne	v0,s1,9d00ab20 <_eat_white+0x28>
9d00ab3c:	00521821 	addu	v1,v0,s2
9d00ab40:	8e030010 	lw	v1,16(s0)
9d00ab44:	ae110004 	sw	s1,4(s0)
9d00ab48:	2402ffff 	li	v0,-1
9d00ab4c:	2463ffff 	addiu	v1,v1,-1
9d00ab50:	ae030010 	sw	v1,16(s0)
9d00ab54:	8fbf001c 	lw	ra,28(sp)
9d00ab58:	8fb20018 	lw	s2,24(sp)
9d00ab5c:	8fb10014 	lw	s1,20(sp)
9d00ab60:	8fb00010 	lw	s0,16(sp)
9d00ab64:	03e00008 	jr	ra
9d00ab68:	27bd0020 	addiu	sp,sp,32
9d00ab6c:	ae020004 	sw	v0,4(s0)
9d00ab70:	00001021 	move	v0,zero
9d00ab74:	2463ffff 	addiu	v1,v1,-1
9d00ab78:	ae030010 	sw	v1,16(s0)
9d00ab7c:	8fbf001c 	lw	ra,28(sp)
9d00ab80:	8fb20018 	lw	s2,24(sp)
9d00ab84:	8fb10014 	lw	s1,20(sp)
9d00ab88:	8fb00010 	lw	s0,16(sp)
9d00ab8c:	03e00008 	jr	ra
9d00ab90:	27bd0020 	addiu	sp,sp,32

Disassembly of section .text.fpcmp:

9d00ab94 <__eqsf2>:
9d00ab94:	2408fffe 00043040 00053840 00c74825     ...$@0..@8..%H..
9d00aba4:	1120001b 00000000 3c01ff00 34210001     .. ........<..!4
9d00abb4:	00c1082b 1020001a 00000000 3c01ff00     +..... ........<
9d00abc4:	34210001 00e1082b 10200015 00000000     ..!4+..... .....
9d00abd4:	04810002 00063042 00063023              ....B0..#0..

9d00abe0 <i48>:
9d00abe0:	04a10002 	bgez	a1,9d00abec <i49>
9d00abe4:	00073842 	srl	a3,a3,0x1
9d00abe8:	00073823 	negu	a3,a3

9d00abec <i49>:
9d00abec:	00c7082a 	slt	at,a2,a3
9d00abf0:	10200003 	beqz	at,9d00ac00 <i50>
9d00abf4:	00000000 	nop
9d00abf8:	10000007 	b	9d00ac18 <J999>
9d00abfc:	2402ffff 	li	v0,-1

9d00ac00 <i50>:
9d00ac00:	00e6082a 	slt	at,a3,a2
9d00ac04:	10200003 	beqz	at,9d00ac14 <Jequ>
9d00ac08:	00000000 	nop
9d00ac0c:	10000002 	b	9d00ac18 <J999>
9d00ac10:	24020001 	li	v0,1

9d00ac14 <Jequ>:
9d00ac14:	24020000 	li	v0,0

9d00ac18 <J999>:
9d00ac18:	03e00008 	jr	ra
9d00ac1c:	00000000 	nop
9d00ac20:	00000000 	nop

9d00ac24 <Jnan>:
9d00ac24:	1000fffc 	b	9d00ac18 <J999>
9d00ac28:	00081025 	or	v0,zero,t0
9d00ac2c:	00000000 	nop

Disassembly of section .text._i_init:

9d00ac30 <_i_init>:
9d00ac30:	27bdffe8 	addiu	sp,sp,-24
9d00ac34:	afbf0014 	sw	ra,20(sp)
9d00ac38:	afb00010 	sw	s0,16(sp)
9d00ac3c:	8c820008 	lw	v0,8(a0)
9d00ac40:	1040001d 	beqz	v0,9d00acb8 <_i_init+0x88>
9d00ac44:	00808021 	move	s0,a0
9d00ac48:	8e02000c 	lw	v0,12(s0)
9d00ac4c:	54400012 	bnezl	v0,9d00ac98 <_i_init+0x68>
9d00ac50:	8e020008 	lw	v0,8(s0)
9d00ac54:	2402ffff 	li	v0,-1
9d00ac58:	ae020004 	sw	v0,4(s0)
9d00ac5c:	96020010 	lhu	v0,16(s0)
9d00ac60:	ae000000 	sw	zero,0(s0)
9d00ac64:	34430001 	ori	v1,v0,0x1
9d00ac68:	30441000 	andi	a0,v0,0x1000
9d00ac6c:	10800006 	beqz	a0,9d00ac88 <_i_init+0x58>
9d00ac70:	a6030010 	sh	v1,16(s0)
9d00ac74:	30420008 	andi	v0,v0,0x8
9d00ac78:	14400009 	bnez	v0,9d00aca0 <_i_init+0x70>
9d00ac7c:	00000000 	nop
9d00ac80:	7c036304 	ins	v1,zero,0xc,0x1
9d00ac84:	a6030010 	sh	v1,16(s0)
9d00ac88:	8fbf0014 	lw	ra,20(sp)
9d00ac8c:	8fb00010 	lw	s0,16(sp)
9d00ac90:	03e00008 	jr	ra
9d00ac94:	27bd0018 	addiu	sp,sp,24
9d00ac98:	0b402b17 	j	9d00ac5c <_i_init+0x2c>
9d00ac9c:	ae020004 	sw	v0,4(s0)
9d00aca0:	0f402edd 	jal	9d00bb74 <.LFE0>
9d00aca4:	86040012 	lh	a0,18(s0)
9d00aca8:	1440fff5 	bnez	v0,9d00ac80 <_i_init+0x50>
9d00acac:	96030010 	lhu	v1,16(s0)
9d00acb0:	0b402b20 	j	9d00ac80 <_i_init+0x50>
9d00acb4:	3063fff7 	andi	v1,v1,0xfff7
9d00acb8:	0f402c9a 	jal	9d00b268 <_bufalloc>
9d00acbc:	00000000 	nop
9d00acc0:	0b402b13 	j	9d00ac4c <_i_init+0x1c>
9d00acc4:	8e02000c 	lw	v0,12(s0)

Disassembly of section .text.strlen:

9d00acc8 <strlen>:
9d00acc8:	30830003 	andi	v1,a0,0x3
9d00accc:	1460001e 	bnez	v1,9d00ad48 <strlen+0x80>
9d00acd0:	00801021 	move	v0,a0
9d00acd4:	8c820000 	lw	v0,0(a0)
9d00acd8:	3c07fefe 	lui	a3,0xfefe
9d00acdc:	34e7feff 	ori	a3,a3,0xfeff
9d00ace0:	00471821 	addu	v1,v0,a3
9d00ace4:	00021027 	nor	v0,zero,v0
9d00ace8:	3c068080 	lui	a2,0x8080
9d00acec:	34c68080 	ori	a2,a2,0x8080
9d00acf0:	00621824 	and	v1,v1,v0
9d00acf4:	00661824 	and	v1,v1,a2
9d00acf8:	14600013 	bnez	v1,9d00ad48 <strlen+0x80>
9d00acfc:	00801021 	move	v0,a0
9d00ad00:	24420004 	addiu	v0,v0,4
9d00ad04:	8c430000 	lw	v1,0(v0)
9d00ad08:	00672821 	addu	a1,v1,a3
9d00ad0c:	00031827 	nor	v1,zero,v1
9d00ad10:	00a31824 	and	v1,a1,v1
9d00ad14:	00661824 	and	v1,v1,a2
9d00ad18:	5460000c 	bnezl	v1,9d00ad4c <strlen+0x84>
9d00ad1c:	80430000 	lb	v1,0(v0)
9d00ad20:	24420004 	addiu	v0,v0,4
9d00ad24:	8c430000 	lw	v1,0(v0)
9d00ad28:	00672821 	addu	a1,v1,a3
9d00ad2c:	00031827 	nor	v1,zero,v1
9d00ad30:	00a31824 	and	v1,a1,v1
9d00ad34:	00661824 	and	v1,v1,a2
9d00ad38:	5060fff2 	beqzl	v1,9d00ad04 <strlen+0x3c>
9d00ad3c:	24420004 	addiu	v0,v0,4
9d00ad40:	0b402b53 	j	9d00ad4c <strlen+0x84>
9d00ad44:	80430000 	lb	v1,0(v0)
9d00ad48:	80430000 	lb	v1,0(v0)
9d00ad4c:	5460fffe 	bnezl	v1,9d00ad48 <strlen+0x80>
9d00ad50:	24420001 	addiu	v0,v0,1
9d00ad54:	03e00008 	jr	ra
9d00ad58:	00441023 	subu	v0,v0,a0

Disassembly of section .text:

9d00ad5c <__pic32_data_init>:
9d00ad5c:	03e01821 	move	v1,ra

9d00ad60 <_dinit_init>:
9d00ad60:	3c089d00 	lui	t0,0x9d00
9d00ad64:	25084d3c 	addiu	t0,t0,19772
9d00ad68:	8d090000 	lw	t1,0(t0)
9d00ad6c:	11200018 	beqz	t1,9d00add0 <_dinit_end+0x18>
9d00ad70:	25080004 	addiu	t0,t0,4
9d00ad74:	8d0a0000 	lw	t2,0(t0)
9d00ad78:	25080004 	addiu	t0,t0,4
9d00ad7c:	8d0b0000 	lw	t3,0(t0)
9d00ad80:	11600009 	beqz	t3,9d00ada8 <_dinit_clear>
9d00ad84:	25080004 	addiu	t0,t0,4

9d00ad88 <_dinit_copy>:
9d00ad88:	910c0000 	lbu	t4,0(t0)
9d00ad8c:	254affff 	addiu	t2,t2,-1
9d00ad90:	25080001 	addiu	t0,t0,1
9d00ad94:	a12c0000 	sb	t4,0(t1)
9d00ad98:	1540fffb 	bnez	t2,9d00ad88 <_dinit_copy>
9d00ad9c:	25290001 	addiu	t1,t1,1
9d00ada0:	10000005 	b	9d00adb8 <_dinit_end>
9d00ada4:	00000000 	nop

9d00ada8 <_dinit_clear>:
9d00ada8:	a1200000 	sb	zero,0(t1)
9d00adac:	254affff 	addiu	t2,t2,-1
9d00adb0:	1540fffd 	bnez	t2,9d00ada8 <_dinit_clear>
9d00adb4:	25290001 	addiu	t1,t1,1

9d00adb8 <_dinit_end>:
9d00adb8:	25080003 	addiu	t0,t0,3
9d00adbc:	240afffc 	li	t2,-4
9d00adc0:	01484024 	and	t0,t2,t0
9d00adc4:	8d090000 	lw	t1,0(t0)
9d00adc8:	1520ffe7 	bnez	t1,9d00ad68 <_dinit_init+0x8>
9d00adcc:	00000000 	nop
9d00add0:	0060f821 	move	ra,v1
9d00add4:	03e00008 	jr	ra
9d00add8:	00000000 	nop
9d00addc:	00000000 	nop

Disassembly of section .text._fflush_simple:

9d00ade0 <_fflush_simple>:
9d00ade0:	27bdffe8 	addiu	sp,sp,-24
9d00ade4:	afbf0014 	sw	ra,20(sp)
9d00ade8:	afb00010 	sw	s0,16(sp)
9d00adec:	94820010 	lhu	v0,16(a0)
9d00adf0:	30420002 	andi	v0,v0,0x2
9d00adf4:	10400013 	beqz	v0,9d00ae44 <_fflush_simple+0x64>
9d00adf8:	00808021 	move	s0,a0
9d00adfc:	8c850000 	lw	a1,0(a0)
9d00ae00:	04a0000c 	bltz	a1,9d00ae34 <_fflush_simple+0x54>
9d00ae04:	00001021 	move	v0,zero
9d00ae08:	8c82000c 	lw	v0,12(a0)
9d00ae0c:	50a20006 	beql	a1,v0,9d00ae28 <_fflush_simple+0x48>
9d00ae10:	8e030008 	lw	v1,8(s0)
9d00ae14:	8c840008 	lw	a0,8(a0)
9d00ae18:	0f402d3b 	jal	9d00b4ec <.LFE4>
9d00ae1c:	00452823 	subu	a1,v0,a1
9d00ae20:	8e02000c 	lw	v0,12(s0)
9d00ae24:	8e030008 	lw	v1,8(s0)
9d00ae28:	ae020000 	sw	v0,0(s0)
9d00ae2c:	ae030004 	sw	v1,4(s0)
9d00ae30:	00001021 	move	v0,zero
9d00ae34:	8fbf0014 	lw	ra,20(sp)
9d00ae38:	8fb00010 	lw	s0,16(sp)
9d00ae3c:	03e00008 	jr	ra
9d00ae40:	27bd0018 	addiu	sp,sp,24
9d00ae44:	2402ffff 	li	v0,-1
9d00ae48:	ac820004 	sw	v0,4(a0)
9d00ae4c:	00001021 	move	v0,zero
9d00ae50:	8fbf0014 	lw	ra,20(sp)
9d00ae54:	8fb00010 	lw	s0,16(sp)
9d00ae58:	03e00008 	jr	ra
9d00ae5c:	27bd0018 	addiu	sp,sp,24

Disassembly of section .text._fwrite_simple:

9d00ae60 <_fwrite_simple>:
9d00ae60:	27bdffd8 	addiu	sp,sp,-40
9d00ae64:	afbf0024 	sw	ra,36(sp)
9d00ae68:	afb10020 	sw	s1,32(sp)
9d00ae6c:	afb0001c 	sw	s0,28(sp)
9d00ae70:	70c58002 	mul	s0,a2,a1
9d00ae74:	12000007 	beqz	s0,9d00ae94 <_fwrite_simple+0x34>
9d00ae78:	00001021 	move	v0,zero
9d00ae7c:	94e30010 	lhu	v1,16(a3)
9d00ae80:	30630001 	andi	v1,v1,0x1
9d00ae84:	10600008 	beqz	v1,9d00aea8 <_fwrite_simple+0x48>
9d00ae88:	3c03a000 	lui	v1,0xa000
9d00ae8c:	24040009 	li	a0,9
9d00ae90:	ac640020 	sw	a0,32(v1)
9d00ae94:	8fbf0024 	lw	ra,36(sp)
9d00ae98:	8fb10020 	lw	s1,32(sp)
9d00ae9c:	8fb0001c 	lw	s0,28(sp)
9d00aea0:	03e00008 	jr	ra
9d00aea4:	27bd0028 	addiu	sp,sp,40
9d00aea8:	00808821 	move	s1,a0
9d00aeac:	00e02021 	move	a0,a3
9d00aeb0:	0f402b78 	jal	9d00ade0 <_fflush_simple>
9d00aeb4:	afa60010 	sw	a2,16(sp)
9d00aeb8:	02202021 	move	a0,s1
9d00aebc:	0f402d3b 	jal	9d00b4ec <.LFE4>
9d00aec0:	02002821 	move	a1,s0
9d00aec4:	8fa60010 	lw	a2,16(sp)
9d00aec8:	00c01021 	move	v0,a2
9d00aecc:	8fbf0024 	lw	ra,36(sp)
9d00aed0:	8fb10020 	lw	s1,32(sp)
9d00aed4:	8fb0001c 	lw	s0,28(sp)
9d00aed8:	03e00008 	jr	ra
9d00aedc:	27bd0028 	addiu	sp,sp,40

Disassembly of section .text.fptoli:

9d00aee0 <__fixsfsi>:
9d00aee0:	00042a00 3c018000 00a12825 00043dc2     .*.....<%(...=..
9d00aef0:	30e700ff 2406009e 00c73023 18c0000d     ...0...$#0......
9d00af00:	00000000 28c10020 14200003 00000000     .... ..(.. .....
9d00af10:	10000005 24020000                       .......$

9d00af18 <i42>:
9d00af18:	04810002 	bgez	a0,9d00af24 <i43>
9d00af1c:	00c52806 	srlv	a1,a1,a2
9d00af20:	00052823 	negu	a1,a1

9d00af24 <i43>:
9d00af24:	00051025 	or	v0,zero,a1

9d00af28 <G999>:
9d00af28:	03e00008 	jr	ra
9d00af2c:	00000000 	nop
9d00af30:	00000000 	nop

9d00af34 <Gspec>:
9d00af34:	3c017f80 	lui	at,0x7f80
9d00af38:	34210001 	ori	at,at,0x1
9d00af3c:	0081082b 	sltu	at,a0,at
9d00af40:	14200003 	bnez	at,9d00af50 <i44>
9d00af44:	00000000 	nop
9d00af48:	1000fff7 	b	9d00af28 <G999>
9d00af4c:	3c028000 	lui	v0,0x8000

9d00af50 <i44>:
9d00af50:	3c027fff 	lui	v0,0x7fff
9d00af54:	1000fff4 	b	9d00af28 <G999>
9d00af58:	3442ffff 	ori	v0,v0,0xffff
9d00af5c:	00000000 	nop

Disassembly of section .text.fgetc:

9d00af60 <fgetc>:
9d00af60:	27bdffe8 	addiu	sp,sp,-24
9d00af64:	afbf0014 	sw	ra,20(sp)
9d00af68:	afb00010 	sw	s0,16(sp)
9d00af6c:	00808021 	move	s0,a0
9d00af70:	8c820018 	lw	v0,24(a0)
9d00af74:	8c420010 	lw	v0,16(v0)
9d00af78:	0040f809 	jalr	v0
9d00af7c:	24050002 	li	a1,2
9d00af80:	10400009 	beqz	v0,9d00afa8 <fgetc+0x48>
9d00af84:	2402ffff 	li	v0,-1
9d00af88:	8e020000 	lw	v0,0(s0)
9d00af8c:	2442ffff 	addiu	v0,v0,-1
9d00af90:	04400009 	bltz	v0,9d00afb8 <fgetc+0x58>
9d00af94:	ae020000 	sw	v0,0(s0)
9d00af98:	8e020004 	lw	v0,4(s0)
9d00af9c:	24430001 	addiu	v1,v0,1
9d00afa0:	ae030004 	sw	v1,4(s0)
9d00afa4:	90420000 	lbu	v0,0(v0)
9d00afa8:	8fbf0014 	lw	ra,20(sp)
9d00afac:	8fb00010 	lw	s0,16(sp)
9d00afb0:	03e00008 	jr	ra
9d00afb4:	27bd0018 	addiu	sp,sp,24
9d00afb8:	8e020018 	lw	v0,24(s0)
9d00afbc:	8c420000 	lw	v0,0(v0)
9d00afc0:	0040f809 	jalr	v0
9d00afc4:	02002021 	move	a0,s0
9d00afc8:	8fbf0014 	lw	ra,20(sp)
9d00afcc:	8fb00010 	lw	s0,16(sp)
9d00afd0:	03e00008 	jr	ra
9d00afd4:	27bd0018 	addiu	sp,sp,24

Disassembly of section .text.litodp:

9d00afd8 <__floatsidf>:
9d00afd8:	24050000 00054825 00053825 00043025     ...$%H..%8..%0..
9d00afe8:	10c0000c 00000000 04c10006 00000000     ................
9d00aff8:	3c098000 0005502b 00052823 00063023     ...<+P..#(..#0..
9d00b008:	00ca3023                                #0..

9d00b00c <i40>:
9d00b00c:	2407041e 	li	a3,1054
9d00b010:	70c84020 	clz	t0,a2
9d00b014:	00e83823 	subu	a3,a3,t0
9d00b018:	01063004 	sllv	a2,a2,t0

9d00b01c <i39>:
9d00b01c:	000542c2 	srl	t0,a1,0xb
9d00b020:	00065540 	sll	t2,a2,0x15
9d00b024:	010a4025 	or	t0,t0,t2
9d00b028:	00065040 	sll	t2,a2,0x1
9d00b02c:	000a5302 	srl	t2,t2,0xc
9d00b030:	012a4825 	or	t1,t1,t2
9d00b034:	00075500 	sll	t2,a3,0x14
9d00b038:	012a4825 	or	t1,t1,t2
9d00b03c:	00081025 	or	v0,zero,t0
9d00b040:	00091825 	or	v1,zero,t1

9d00b044 <E999>:
9d00b044:	03e00008 	jr	ra
9d00b048:	00000000 	nop
9d00b04c:	00000000 	nop

Disassembly of section .text._sscanf_cdfFnopuxX:

9d00b050 <_sscanf_cdfFnopuxX>:
9d00b050:	27bdffc0 	addiu	sp,sp,-64
9d00b054:	afbf003c 	sw	ra,60(sp)
9d00b058:	afb00038 	sw	s0,56(sp)
9d00b05c:	00808021 	move	s0,a0
9d00b060:	afa60048 	sw	a2,72(sp)
9d00b064:	afa7004c 	sw	a3,76(sp)
9d00b068:	2402ffff 	li	v0,-1
9d00b06c:	a7a20022 	sh	v0,34(sp)
9d00b070:	24020081 	li	v0,129
9d00b074:	a7a20020 	sh	v0,32(sp)
9d00b078:	0f402b32 	jal	9d00acc8 <strlen>
9d00b07c:	afa50030 	sw	a1,48(sp)
9d00b080:	27a30048 	addiu	v1,sp,72
9d00b084:	27a40010 	addiu	a0,sp,16
9d00b088:	8fa50030 	lw	a1,48(sp)
9d00b08c:	00603021 	move	a2,v1
9d00b090:	afa20010 	sw	v0,16(sp)
9d00b094:	afa2001c 	sw	v0,28(sp)
9d00b098:	afb00018 	sw	s0,24(sp)
9d00b09c:	afb00014 	sw	s0,20(sp)
9d00b0a0:	3c029d01 	lui	v0,0x9d01
9d00b0a4:	2442ba5c 	addiu	v0,v0,-17828
9d00b0a8:	afa20028 	sw	v0,40(sp)
9d00b0ac:	0f400780 	jal	9d001e00 <do_scan>
9d00b0b0:	afa3002c 	sw	v1,44(sp)
9d00b0b4:	8fbf003c 	lw	ra,60(sp)
9d00b0b8:	8fb00038 	lw	s0,56(sp)
9d00b0bc:	03e00008 	jr	ra
9d00b0c0:	27bd0040 	addiu	sp,sp,64

Disassembly of section .text._sprintf_cdfFnopuxX:

9d00b0c4 <_sprintf_cdfFnopuxX>:
9d00b0c4:	27bdffc8 	addiu	sp,sp,-56
9d00b0c8:	afbf0034 	sw	ra,52(sp)
9d00b0cc:	27a20040 	addiu	v0,sp,64
9d00b0d0:	00801821 	move	v1,a0
9d00b0d4:	afa60040 	sw	a2,64(sp)
9d00b0d8:	27a40010 	addiu	a0,sp,16
9d00b0dc:	00403021 	move	a2,v0
9d00b0e0:	afa70044 	sw	a3,68(sp)
9d00b0e4:	2407ffff 	li	a3,-1
9d00b0e8:	a7a70022 	sh	a3,34(sp)
9d00b0ec:	24070082 	li	a3,130
9d00b0f0:	a7a70020 	sh	a3,32(sp)
9d00b0f4:	3c077fff 	lui	a3,0x7fff
9d00b0f8:	34e7fffe 	ori	a3,a3,0xfffe
9d00b0fc:	afa70010 	sw	a3,16(sp)
9d00b100:	afa30018 	sw	v1,24(sp)
9d00b104:	afa30014 	sw	v1,20(sp)
9d00b108:	3c039d01 	lui	v1,0x9d01
9d00b10c:	2463ba5c 	addiu	v1,v1,-17828
9d00b110:	afa30028 	sw	v1,40(sp)
9d00b114:	0f400a86 	jal	9d002a18 <_do_print_cdfFnopuxX>
9d00b118:	afa2002c 	sw	v0,44(sp)
9d00b11c:	8fa30014 	lw	v1,20(sp)
9d00b120:	a0600000 	sb	zero,0(v1)
9d00b124:	8fbf0034 	lw	ra,52(sp)
9d00b128:	03e00008 	jr	ra
9d00b12c:	27bd0038 	addiu	sp,sp,56

Disassembly of section .text.__sputn:

9d00b130 <__sputn>:
9d00b130:	27bdffd8 	addiu	sp,sp,-40
9d00b134:	afbf0024 	sw	ra,36(sp)
9d00b138:	afb30020 	sw	s3,32(sp)
9d00b13c:	afb2001c 	sw	s2,28(sp)
9d00b140:	afb10018 	sw	s1,24(sp)
9d00b144:	afb00014 	sw	s0,20(sp)
9d00b148:	00808021 	move	s0,a0
9d00b14c:	00c09021 	move	s2,a2
9d00b150:	00858821 	addu	s1,a0,a1
9d00b154:	0b402c5c 	j	9d00b170 <__sputn+0x40>
9d00b158:	2413ffff 	li	s3,-1
9d00b15c:	26100001 	addiu	s0,s0,1
9d00b160:	0f4029ef 	jal	9d00a7bc <fputc>
9d00b164:	8204ffff 	lb	a0,-1(s0)
9d00b168:	10530005 	beq	v0,s3,9d00b180 <__sputn+0x50>
9d00b16c:	8fbf0024 	lw	ra,36(sp)
9d00b170:	1611fffa 	bne	s0,s1,9d00b15c <__sputn+0x2c>
9d00b174:	02402821 	move	a1,s2
9d00b178:	00001021 	move	v0,zero
9d00b17c:	8fbf0024 	lw	ra,36(sp)
9d00b180:	8fb30020 	lw	s3,32(sp)
9d00b184:	8fb2001c 	lw	s2,28(sp)
9d00b188:	8fb10018 	lw	s1,24(sp)
9d00b18c:	8fb00014 	lw	s0,20(sp)
9d00b190:	03e00008 	jr	ra
9d00b194:	27bd0028 	addiu	sp,sp,40

Disassembly of section .rodata:

9d00b198 <zeroData-0x1c>:
9d00b198:	004e614e 	0x4e614e
9d00b19c:	666e492d 	0x666e492d
9d00b1a0:	00000000 	nop
9d00b1a4:	666e492b 	0x666e492b
9d00b1a8:	00000000 	nop
9d00b1ac:	6c756e28 	0x6c756e28
9d00b1b0:	0000296c 	0x296c

9d00b1b4 <zeroData>:
9d00b1b4:	30303030 30303030 30303030 30303030     0000000000000000
9d00b1c4:	30303030 30303030 30303030 30303030     0000000000000000

9d00b1d4 <spaceData>:
9d00b1d4:	20202020 20202020 20202020 20202020                     
9d00b1e4:	20202020 20202020 20202020 20202020                     
9d00b1f4:	41200000 3c23d70a 40800000              .. A..#<...@

Disassembly of section .text.memmove:

9d00b200 <memmove>:
9d00b200:	27bdffe8 	addiu	sp,sp,-24
9d00b204:	0085102b 	sltu	v0,a0,a1
9d00b208:	14400012 	bnez	v0,9d00b254 <memmove+0x54>
9d00b20c:	afbf0014 	sw	ra,20(sp)
9d00b210:	00a61021 	addu	v0,a1,a2
9d00b214:	0082102b 	sltu	v0,a0,v0
9d00b218:	1040000e 	beqz	v0,9d00b254 <memmove+0x54>
9d00b21c:	24c2ffff 	addiu	v0,a2,-1
9d00b220:	00821821 	addu	v1,a0,v0
9d00b224:	00a22821 	addu	a1,a1,v0
9d00b228:	10c00006 	beqz	a2,9d00b244 <memmove+0x44>
9d00b22c:	00663823 	subu	a3,v1,a2
9d00b230:	24a5ffff 	addiu	a1,a1,-1
9d00b234:	90a60001 	lbu	a2,1(a1)
9d00b238:	2463ffff 	addiu	v1,v1,-1
9d00b23c:	1467fffc 	bne	v1,a3,9d00b230 <memmove+0x30>
9d00b240:	a0660001 	sb	a2,1(v1)
9d00b244:	00801021 	move	v0,a0
9d00b248:	8fbf0014 	lw	ra,20(sp)
9d00b24c:	03e00008 	jr	ra
9d00b250:	27bd0018 	addiu	sp,sp,24
9d00b254:	0f402e16 	jal	9d00b858 <memcpy>
9d00b258:	00000000 	nop
9d00b25c:	8fbf0014 	lw	ra,20(sp)
9d00b260:	03e00008 	jr	ra
9d00b264:	27bd0018 	addiu	sp,sp,24

Disassembly of section .text._bufalloc:

9d00b268 <_bufalloc>:
9d00b268:	27bdffe8 	addiu	sp,sp,-24
9d00b26c:	afbf0014 	sw	ra,20(sp)
9d00b270:	afb00010 	sw	s0,16(sp)
9d00b274:	00808021 	move	s0,a0
9d00b278:	8c84000c 	lw	a0,12(a0)
9d00b27c:	5880000e 	blezl	a0,9d00b2b8 <_bufalloc+0x50>
9d00b280:	ae00000c 	sw	zero,12(s0)
9d00b284:	0f400fd7 	jal	9d003f5c <.LFE10>
9d00b288:	00000000 	nop
9d00b28c:	10400009 	beqz	v0,9d00b2b4 <_bufalloc+0x4c>
9d00b290:	ae020008 	sw	v0,8(s0)
9d00b294:	96030010 	lhu	v1,16(s0)
9d00b298:	ae020004 	sw	v0,4(s0)
9d00b29c:	34620010 	ori	v0,v1,0x10
9d00b2a0:	a6020010 	sh	v0,16(s0)
9d00b2a4:	8fbf0014 	lw	ra,20(sp)
9d00b2a8:	8fb00010 	lw	s0,16(sp)
9d00b2ac:	03e00008 	jr	ra
9d00b2b0:	27bd0018 	addiu	sp,sp,24
9d00b2b4:	ae00000c 	sw	zero,12(s0)
9d00b2b8:	2402ffff 	li	v0,-1
9d00b2bc:	ae020004 	sw	v0,4(s0)
9d00b2c0:	8fbf0014 	lw	ra,20(sp)
9d00b2c4:	8fb00010 	lw	s0,16(sp)
9d00b2c8:	03e00008 	jr	ra
9d00b2cc:	27bd0018 	addiu	sp,sp,24

Disassembly of section .text.gsgetc:

9d00b2d0 <gsgetc>:
9d00b2d0:	27bdffe0 	addiu	sp,sp,-32
9d00b2d4:	afbf001c 	sw	ra,28(sp)
9d00b2d8:	afb10018 	sw	s1,24(sp)
9d00b2dc:	afb00014 	sw	s0,20(sp)
9d00b2e0:	8c820004 	lw	v0,4(a0)
9d00b2e4:	2411ffff 	li	s1,-1
9d00b2e8:	1051000a 	beq	v0,s1,9d00b314 <gsgetc+0x44>
9d00b2ec:	00808021 	move	s0,a0
9d00b2f0:	ac910004 	sw	s1,4(a0)
9d00b2f4:	8e030010 	lw	v1,16(s0)
9d00b2f8:	24630001 	addiu	v1,v1,1
9d00b2fc:	ae030010 	sw	v1,16(s0)
9d00b300:	8fbf001c 	lw	ra,28(sp)
9d00b304:	8fb10018 	lw	s1,24(sp)
9d00b308:	8fb00014 	lw	s0,20(sp)
9d00b30c:	03e00008 	jr	ra
9d00b310:	27bd0020 	addiu	sp,sp,32
9d00b314:	0f402bd8 	jal	9d00af60 <fgetc>
9d00b318:	8c840000 	lw	a0,0(a0)
9d00b31c:	1451fff5 	bne	v0,s1,9d00b2f4 <gsgetc+0x24>
9d00b320:	8fbf001c 	lw	ra,28(sp)
9d00b324:	8fb10018 	lw	s1,24(sp)
9d00b328:	8fb00014 	lw	s0,20(sp)
9d00b32c:	03e00008 	jr	ra
9d00b330:	27bd0020 	addiu	sp,sp,32

Disassembly of section .text._buffree:

9d00b334 <_buffree>:
9d00b334:	27bdffe8 	addiu	sp,sp,-24
9d00b338:	afbf0014 	sw	ra,20(sp)
9d00b33c:	afb00010 	sw	s0,16(sp)
9d00b340:	00808021 	move	s0,a0
9d00b344:	8c840008 	lw	a0,8(a0)
9d00b348:	10800010 	beqz	a0,9d00b38c <_buffree+0x58>
9d00b34c:	8fbf0014 	lw	ra,20(sp)
9d00b350:	96020010 	lhu	v0,16(s0)
9d00b354:	30420010 	andi	v0,v0,0x10
9d00b358:	5040000d 	beqzl	v0,9d00b390 <_buffree+0x5c>
9d00b35c:	8fb00010 	lw	s0,16(sp)
9d00b360:	0f402242 	jal	9d008908 <free>
9d00b364:	00000000 	nop
9d00b368:	96020010 	lhu	v0,16(s0)
9d00b36c:	ae000008 	sw	zero,8(s0)
9d00b370:	7c0220c4 	ins	v0,zero,0x3,0x2
9d00b374:	ae00000c 	sw	zero,12(s0)
9d00b378:	ae000000 	sw	zero,0(s0)
9d00b37c:	2403ffff 	li	v1,-1
9d00b380:	ae030004 	sw	v1,4(s0)
9d00b384:	a6020010 	sh	v0,16(s0)
9d00b388:	8fbf0014 	lw	ra,20(sp)
9d00b38c:	8fb00010 	lw	s0,16(sp)
9d00b390:	03e00008 	jr	ra
9d00b394:	27bd0018 	addiu	sp,sp,24

Disassembly of section .text.sitofp:

9d00b398 <__floatsisf>:
9d00b398:	3c018000 10800012 00813024 04810002     ...<....$0......
9d00b3a8:	00000000 00042023                       ....# ..

9d00b3b0 <i40>:
9d00b3b0:	2405009e 	li	a1,158
9d00b3b4:	70873820 	clz	a3,a0
9d00b3b8:	00a72823 	subu	a1,a1,a3
9d00b3bc:	00e42004 	sllv	a0,a0,a3
9d00b3c0:	24840080 	addiu	a0,a0,128
9d00b3c4:	2c880080 	sltiu	t0,a0,128
9d00b3c8:	00a82821 	addu	a1,a1,t0
9d00b3cc:	00044203 	sra	t0,a0,0x8
9d00b3d0:	31080001 	andi	t0,t0,0x1
9d00b3d4:	00882023 	subu	a0,a0,t0
9d00b3d8:	00042040 	sll	a0,a0,0x1
9d00b3dc:	00042242 	srl	a0,a0,0x9
9d00b3e0:	000545c0 	sll	t0,a1,0x17
9d00b3e4:	00882025 	or	a0,a0,t0

9d00b3e8 <i39>:
9d00b3e8:	00861025 	or	v0,a0,a2

9d00b3ec <E999>:
9d00b3ec:	03e00008 	jr	ra
9d00b3f0:	00000000 	nop
9d00b3f4:	00000000 	nop

Disassembly of section .text.main_entry:

9d00b3f8 <_main_entry>:
9d00b3f8:	3c040000 	lui	a0,0x0
9d00b3fc:	27bdffe8 	addiu	sp,sp,-24
9d00b400:	24840000 	addiu	a0,a0,0
9d00b404:	10800003 	beqz	a0,9d00b414 <_main_entry+0x1c>
9d00b408:	afbf0014 	sw	ra,20(sp)
9d00b40c:	0080f809 	jalr	a0
9d00b410:	00000000 	nop
9d00b414:	30840000 	andi	a0,a0,0x0
9d00b418:	30a50000 	andi	a1,a1,0x0
9d00b41c:	3c089d00 	lui	t0,0x9d00
9d00b420:	25083afc 	addiu	t0,t0,15100
9d00b424:	0100f809 	jalr	t0
9d00b428:	00000000 	nop

9d00b42c <__crt0_exit>:
9d00b42c:	3c020000 24420000 10400003 00000000     ...<..B$..@.....
9d00b43c:	0040f809 00000000 1000fff9 00000000     ..@.............

Disassembly of section .rodata:

9d00b44c <.LC1>:
9d00b44c:	706f7244 	0x706f7244
9d00b450:	25203a73 	addiu	zero,t1,14963
9d00b454:	00000064 	0x64
9d00b458:	2a256425 	slti	a1,s1,25637
9d00b45c:	64252063 	0x64252063
9d00b460:	20632a25 	addi	v1,v1,10789
9d00b464:	2a256425 	slti	a1,s1,25637
9d00b468:	64252063 	0x64252063
9d00b46c:	20632a25 	addi	v1,v1,10789
9d00b470:	00006625 	0x6625
9d00b474:	202c6425 	addi	t4,at,25637
9d00b478:	202c6425 	addi	t4,at,25637
9d00b47c:	00006425 	0x6425
9d00b480:	202c6425 	addi	t4,at,25637
9d00b484:	00006625 	0x6625
9d00b488:	4c189680 	0x4c189680
9d00b48c:	3f800000 	0x3f800000
9d00b490:	4e6e6b28 	msub.s	$f12,$f19,$f13,$f14
9d00b494:	41480000 	rdpgpr	zero,t0
9d00b498:	477fff00 	c1	0x17fff00

Disassembly of section .text.sbrk:

9d00b49c <sbrk>:
9d00b49c:	27bdffe0 	addiu	sp,sp,-32

9d00b4a0 <.LCFI4>:
9d00b4a0:	afbf001c 	sw	ra,28(sp)
9d00b4a4:	afb10018 	sw	s1,24(sp)
9d00b4a8:	afb00014 	sw	s0,20(sp)
9d00b4ac:	0f402991 	jal	9d00a644 <.LFE0>
9d00b4b0:	00808821 	move	s1,a0
9d00b4b4:	1a200007 	blez	s1,9d00b4d4 <.LCFI4+0x34>
9d00b4b8:	00408021 	move	s0,v0
9d00b4bc:	2402ffff 	li	v0,-1
9d00b4c0:	12020004 	beq	s0,v0,9d00b4d4 <.LCFI4+0x34>
9d00b4c4:	02002021 	move	a0,s0
9d00b4c8:	00002821 	move	a1,zero
9d00b4cc:	0f402e2c 	jal	9d00b8b0 <.LFE1>
9d00b4d0:	02203021 	move	a2,s1
9d00b4d4:	02001021 	move	v0,s0
9d00b4d8:	8fbf001c 	lw	ra,28(sp)
9d00b4dc:	8fb10018 	lw	s1,24(sp)
9d00b4e0:	8fb00014 	lw	s0,20(sp)
9d00b4e4:	03e00008 	jr	ra
9d00b4e8:	27bd0020 	addiu	sp,sp,32

Disassembly of section .text._mon_write:

9d00b4ec <_mon_write>:
9d00b4ec:	27bdffe0 	addiu	sp,sp,-32

9d00b4f0 <.LCFI0>:
9d00b4f0:	afbf001c 	sw	ra,28(sp)
9d00b4f4:	afb10018 	sw	s1,24(sp)
9d00b4f8:	afb00014 	sw	s0,20(sp)
9d00b4fc:	10800009 	beqz	a0,9d00b524 <.LCFI0+0x34>
9d00b500:	00808021 	move	s0,a0
9d00b504:	10a00007 	beqz	a1,9d00b524 <.LCFI0+0x34>
9d00b508:	00a08821 	move	s1,a1
9d00b50c:	82040000 	lb	a0,0(s0)
9d00b510:	2631ffff 	addiu	s1,s1,-1
9d00b514:	0f40295c 	jal	9d00a570 <_mon_putc>
9d00b518:	26100001 	addiu	s0,s0,1
9d00b51c:	5620fffc 	bnezl	s1,9d00b510 <.LCFI0+0x20>
9d00b520:	82040000 	lb	a0,0(s0)
9d00b524:	8fbf001c 	lw	ra,28(sp)
9d00b528:	8fb10018 	lw	s1,24(sp)
9d00b52c:	8fb00014 	lw	s0,20(sp)
9d00b530:	03e00008 	jr	ra
9d00b534:	27bd0020 	addiu	sp,sp,32

Disassembly of section .text._bootstrap_exception_handler:

9d00b538 <_bootstrap_exception_handler>:
9d00b538:	3c020000 	lui	v0,0x0
9d00b53c:	24420000 	addiu	v0,v0,0
9d00b540:	10400005 	beqz	v0,9d00b558 <_bootstrap_exception_handler+0x20>
9d00b544:	3c020000 	lui	v0,0x0
9d00b548:	24420000 	addiu	v0,v0,0
9d00b54c:	10400003 	beqz	v0,9d00b55c <_bootstrap_exception_handler+0x24>
9d00b550:	3c029d01 	lui	v0,0x9d01
9d00b554:	7000003f 	sdbbp
9d00b558:	3c029d01 	lui	v0,0x9d01
9d00b55c:	2442b658 	addiu	v0,v0,-18856
9d00b560:	10400005 	beqz	v0,9d00b578 <.LCFI2>
9d00b564:	00000000 	nop
9d00b568:	27bdffe8 	addiu	sp,sp,-24

9d00b56c <.LCFI0>:
9d00b56c:	afbf0014 	sw	ra,20(sp)
9d00b570:	0040f809 	jalr	v0
9d00b574:	00000000 	nop

9d00b578 <.LCFI2>:
9d00b578:	0b402d5e 	j	9d00b578 <.LCFI2>
9d00b57c:	00000000 	nop

Disassembly of section .text._general_exception_handler:

9d00b580 <_general_exception_handler>:
9d00b580:	3c020000 	lui	v0,0x0
9d00b584:	24420000 	addiu	v0,v0,0
9d00b588:	10400005 	beqz	v0,9d00b5a0 <_general_exception_handler+0x20>
9d00b58c:	3c020000 	lui	v0,0x0
9d00b590:	24420000 	addiu	v0,v0,0
9d00b594:	10400003 	beqz	v0,9d00b5a4 <_general_exception_handler+0x24>
9d00b598:	3c029d01 	lui	v0,0x9d01
9d00b59c:	7000003f 	sdbbp
9d00b5a0:	3c029d01 	lui	v0,0x9d01
9d00b5a4:	2442b658 	addiu	v0,v0,-18856
9d00b5a8:	10400005 	beqz	v0,9d00b5c0 <.LCFI2>
9d00b5ac:	00000000 	nop
9d00b5b0:	27bdffe8 	addiu	sp,sp,-24

9d00b5b4 <.LCFI0>:
9d00b5b4:	afbf0014 	sw	ra,20(sp)
9d00b5b8:	0040f809 	jalr	v0
9d00b5bc:	00000000 	nop

9d00b5c0 <.LCFI2>:
9d00b5c0:	0b402d70 	j	9d00b5c0 <.LCFI2>
9d00b5c4:	00000000 	nop

Disassembly of section .vector_default:

9d00b5c8 <_DefaultInterrupt>:
9d00b5c8:	3c020000 	lui	v0,0x0
9d00b5cc:	24420000 	addiu	v0,v0,0
9d00b5d0:	10400007 	beqz	v0,9d00b5f0 <_DefaultInterrupt+0x28>
9d00b5d4:	3c020000 	lui	v0,0x0
9d00b5d8:	24420000 	addiu	v0,v0,0
9d00b5dc:	50400005 	beqzl	v0,9d00b5f4 <_DefaultInterrupt+0x2c>
9d00b5e0:	3c029d01 	lui	v0,0x9d01
9d00b5e4:	7000003f 	sdbbp
9d00b5e8:	03e00008 	jr	ra
9d00b5ec:	00000000 	nop
9d00b5f0:	3c029d01 	lui	v0,0x9d01
9d00b5f4:	2442b658 	addiu	v0,v0,-18856
9d00b5f8:	10400003 	beqz	v0,9d00b608 <_DefaultInterrupt+0x40>
9d00b5fc:	00000000 	nop
9d00b600:	0040f809 	jalr	v0
9d00b604:	00000000 	nop
9d00b608:	03e00008 	jr	ra
9d00b60c:	00000000 	nop

Disassembly of section .rodata:

9d00b610 <f5pow>:
9d00b610:	00000000 40140000 00000000 40390000     .......@......9@
9d00b620:	00000000 40838800 00000000 4117d784     .......@.......A
9d00b630:	37e08000 4241c379 b5056e17 4493b8b5     ...7y.AB.n.....D
9d00b640:	e93ff9f5 49384f03 f9301d32 52827748     ..?..O8I2.0.Hw.R
9d00b650:	7f73bf3c 65154fdd                       <.s..O.e

Disassembly of section .text:

9d00b658 <__pic32_software_reset>:
9d00b658:	41606000 	di
9d00b65c:	000000c0 	ehb
9d00b660:	3c03aa99 	lui	v1,0xaa99
9d00b664:	3c02bf81 	lui	v0,0xbf81
9d00b668:	24636655 	addiu	v1,v1,26197
9d00b66c:	ac40f230 	sw	zero,-3536(v0)
9d00b670:	ac43f230 	sw	v1,-3536(v0)
9d00b674:	3c035566 	lui	v1,0x5566
9d00b678:	346399aa 	ori	v1,v1,0x99aa
9d00b67c:	ac43f230 	sw	v1,-3536(v0)
9d00b680:	3c02bf81 	lui	v0,0xbf81
9d00b684:	24030001 	li	v1,1
9d00b688:	ac43f618 	sw	v1,-2536(v0)
9d00b68c:	3c02bf81 	lui	v0,0xbf81
9d00b690:	8c42f610 	lw	v0,-2544(v0)
9d00b694:	0b402d98 	j	9d00b660 <__pic32_software_reset+0x8>
9d00b698:	00000000 	nop

Disassembly of section .text._io_exit:

9d00b69c <.text._io_exit>:
9d00b69c:	27bdffe8 	addiu	sp,sp,-24
9d00b6a0:	afbf0014 	sw	ra,20(sp)
9d00b6a4:	afb00010 	sw	s0,16(sp)
9d00b6a8:	3c10a000 	lui	s0,0xa000
9d00b6ac:	0f402eb3 	jal	9d00bacc <_weak_pthread_mutex_lock>
9d00b6b0:	260405f8 	addiu	a0,s0,1528
9d00b6b4:	3c02a000 	lui	v0,0xa000
9d00b6b8:	8c420004 	lw	v0,4(v0)
9d00b6bc:	260405f8 	addiu	a0,s0,1528
9d00b6c0:	24030001 	li	v1,1
9d00b6c4:	0f402eb7 	jal	9d00badc <_weak_pthread_mutex_unlock>
9d00b6c8:	ac430038 	sw	v1,56(v0)
9d00b6cc:	8fbf0014 	lw	ra,20(sp)
9d00b6d0:	8fb00010 	lw	s0,16(sp)
9d00b6d4:	03e00008 	jr	ra
9d00b6d8:	27bd0018 	addiu	sp,sp,24

Disassembly of section .text:

9d00b6dc <__lshrdi3>:
9d00b6dc:	10c00009 	beqz	a2,9d00b704 <.LBE2+0x8>
9d00b6e0:	00801021 	move	v0,a0
9d00b6e4:	24020020 	li	v0,32
9d00b6e8:	00461023 	subu	v0,v0,a2
9d00b6ec:	18400007 	blez	v0,9d00b70c <.LBE2+0x10>
9d00b6f0:	00c42006 	srlv	a0,a0,a2

9d00b6f4 <.LBB2>:
9d00b6f4:	00451004 	sllv	v0,a1,v0
9d00b6f8:	00c51806 	srlv	v1,a1,a2

9d00b6fc <.LBE2>:
9d00b6fc:	03e00008 	jr	ra
9d00b700:	00441025 	or	v0,v0,a0
9d00b704:	03e00008 	jr	ra
9d00b708:	00a01821 	move	v1,a1
9d00b70c:	00021023 	negu	v0,v0
9d00b710:	00001821 	move	v1,zero
9d00b714:	03e00008 	jr	ra
9d00b718:	00451006 	srlv	v0,a1,v0

9d00b71c <__ashldi3>:
9d00b71c:	10c00009 	beqz	a2,9d00b744 <.LBE2+0x8>
9d00b720:	00801021 	move	v0,a0
9d00b724:	24030020 	li	v1,32
9d00b728:	00661823 	subu	v1,v1,a2
9d00b72c:	18600007 	blez	v1,9d00b74c <.LBE2+0x10>
9d00b730:	00c52804 	sllv	a1,a1,a2

9d00b734 <.LBB2>:
9d00b734:	00641806 	srlv	v1,a0,v1
9d00b738:	00c41004 	sllv	v0,a0,a2

9d00b73c <.LBE2>:
9d00b73c:	03e00008 	jr	ra
9d00b740:	00651825 	or	v1,v1,a1
9d00b744:	03e00008 	jr	ra
9d00b748:	00a01821 	move	v1,a1
9d00b74c:	00031823 	negu	v1,v1
9d00b750:	00001021 	move	v0,zero
9d00b754:	03e00008 	jr	ra
9d00b758:	00641804 	sllv	v1,a0,v1

Disassembly of section .text._weak_pthread_once:

9d00b75c <_weak_pthread_once>:
9d00b75c:	8c820000 	lw	v0,0(a0)
9d00b760:	10400003 	beqz	v0,9d00b770 <_weak_pthread_once+0x14>
9d00b764:	00001021 	move	v0,zero
9d00b768:	03e00008 	jr	ra
9d00b76c:	00000000 	nop
9d00b770:	27bdffe8 	addiu	sp,sp,-24
9d00b774:	afbf0014 	sw	ra,20(sp)
9d00b778:	24020002 	li	v0,2
9d00b77c:	00a0f809 	jalr	a1
9d00b780:	ac820000 	sw	v0,0(a0)
9d00b784:	00001021 	move	v0,zero
9d00b788:	8fbf0014 	lw	ra,20(sp)
9d00b78c:	03e00008 	jr	ra
9d00b790:	27bd0018 	addiu	sp,sp,24

Disassembly of section .text._filbuf_simple:

9d00b794 <_filbuf_simple>:
9d00b794:	8c820004 	lw	v0,4(a0)
9d00b798:	2403ffff 	li	v1,-1
9d00b79c:	10430003 	beq	v0,v1,9d00b7ac <_filbuf_simple+0x18>
9d00b7a0:	ac800000 	sw	zero,0(a0)
9d00b7a4:	03e00008 	jr	ra
9d00b7a8:	ac830004 	sw	v1,4(a0)
9d00b7ac:	27bdffe8 	addiu	sp,sp,-24
9d00b7b0:	afbf0014 	sw	ra,20(sp)
9d00b7b4:	0f4028b7 	jal	9d00a2dc <_mon_getc>
9d00b7b8:	24040001 	li	a0,1
9d00b7bc:	8fbf0014 	lw	ra,20(sp)
9d00b7c0:	03e00008 	jr	ra
9d00b7c4:	27bd0018 	addiu	sp,sp,24

Disassembly of section .text._fsync_simple:

9d00b7c8 <_fsync_simple>:
9d00b7c8:	94830010 	lhu	v1,16(a0)
9d00b7cc:	00a32824 	and	a1,a1,v1
9d00b7d0:	10a00007 	beqz	a1,9d00b7f0 <_fsync_simple+0x28>
9d00b7d4:	24020001 	li	v0,1
9d00b7d8:	34630040 	ori	v1,v1,0x40
9d00b7dc:	a4830010 	sh	v1,16(a0)
9d00b7e0:	24030009 	li	v1,9
9d00b7e4:	3c02a000 	lui	v0,0xa000
9d00b7e8:	ac430020 	sw	v1,32(v0)
9d00b7ec:	00001021 	move	v0,zero
9d00b7f0:	03e00008 	jr	ra
9d00b7f4:	00000000 	nop

Disassembly of section .rodata:

9d00b7f8 <.rodata>:
9d00b7f8:	33323130 	andi	s2,t9,0x3130
9d00b7fc:	37363534 	ori	s6,t9,0x3534
9d00b800:	00000000 	nop
9d00b804:	33323130 	andi	s2,t9,0x3130
9d00b808:	37363534 	ori	s6,t9,0x3534
9d00b80c:	42413938 	c0	0x413938
9d00b810:	46454443 	c1	0x454443
9d00b814:	64636261 	0x64636261
9d00b818:	00006665 	0x6665
9d00b81c:	33323130 	andi	s2,t9,0x3130
9d00b820:	37363534 	ori	s6,t9,0x3534
9d00b824:	00003938 	0x3938

Disassembly of section .text._cleanup:

9d00b828 <_cleanup>:
9d00b828:	3c02a000 	lui	v0,0xa000
9d00b82c:	8c42061c 	lw	v0,1564(v0)
9d00b830:	10400007 	beqz	v0,9d00b850 <_cleanup+0x28>
9d00b834:	00000000 	nop
9d00b838:	27bdffe8 	addiu	sp,sp,-24
9d00b83c:	afbf0014 	sw	ra,20(sp)
9d00b840:	0040f809 	jalr	v0
9d00b844:	00000000 	nop
9d00b848:	8fbf0014 	lw	ra,20(sp)
9d00b84c:	27bd0018 	addiu	sp,sp,24
9d00b850:	03e00008 	jr	ra
9d00b854:	00000000 	nop

Disassembly of section .text.memcpy:

9d00b858 <memcpy>:
9d00b858:	00801021 	move	v0,a0
9d00b85c:	00863821 	addu	a3,a0,a2
9d00b860:	10c00006 	beqz	a2,9d00b87c <memcpy+0x24>
9d00b864:	00801821 	move	v1,a0
9d00b868:	24a50001 	addiu	a1,a1,1
9d00b86c:	90a6ffff 	lbu	a2,-1(a1)
9d00b870:	24630001 	addiu	v1,v1,1
9d00b874:	1467fffc 	bne	v1,a3,9d00b868 <memcpy+0x10>
9d00b878:	a066ffff 	sb	a2,-1(v1)
9d00b87c:	03e00008 	jr	ra
9d00b880:	00000000 	nop

Disassembly of section .text._stub_sbd_memlayout:

9d00b884 <_stub_sbd_memlayout>:
9d00b884:	3c03a000 	lui	v1,0xa000
9d00b888:	246205d4 	addiu	v0,v1,1492
9d00b88c:	24040001 	li	a0,1
9d00b890:	ac440008 	sw	a0,8(v0)
9d00b894:	3c04a000 	lui	a0,0xa000
9d00b898:	24840628 	addiu	a0,a0,1576
9d00b89c:	ac6405d4 	sw	a0,1492(v1)
9d00b8a0:	3c030000 	lui	v1,0x0
9d00b8a4:	24630000 	addiu	v1,v1,0
9d00b8a8:	03e00008 	jr	ra
9d00b8ac:	ac430004 	sw	v1,4(v0)

Disassembly of section .text.memset:

9d00b8b0 <memset>:
9d00b8b0:	10c00007 	beqz	a2,9d00b8d0 <memset+0x20>
9d00b8b4:	00801021 	move	v0,a0
9d00b8b8:	30a500ff 	andi	a1,a1,0xff
9d00b8bc:	00863021 	addu	a2,a0,a2
9d00b8c0:	00801821 	move	v1,a0
9d00b8c4:	24630001 	addiu	v1,v1,1
9d00b8c8:	1466fffe 	bne	v1,a2,9d00b8c4 <memset+0x14>
9d00b8cc:	a065ffff 	sb	a1,-1(v1)
9d00b8d0:	03e00008 	jr	ra
9d00b8d4:	00000000 	nop

Disassembly of section .text.strtod:

9d00b8d8 <strtod>:
9d00b8d8:	27bdffe8 	addiu	sp,sp,-24
9d00b8dc:	afbf0014 	sw	ra,20(sp)
9d00b8e0:	0f401cc7 	jal	9d00731c <__strtod>
9d00b8e4:	00000000 	nop
9d00b8e8:	00402021 	move	a0,v0
9d00b8ec:	0f4027fb 	jal	9d009fec <.LFE23>
9d00b8f0:	00602821 	move	a1,v1
9d00b8f4:	8fbf0014 	lw	ra,20(sp)
9d00b8f8:	03e00008 	jr	ra
9d00b8fc:	27bd0018 	addiu	sp,sp,24

Disassembly of section .text.putchar:

9d00b900 <putchar>:
9d00b900:	27bdffe8 	addiu	sp,sp,-24
9d00b904:	afbf0014 	sw	ra,20(sp)
9d00b908:	3c02a000 	lui	v0,0xa000
9d00b90c:	8c420004 	lw	v0,4(v0)
9d00b910:	0f4029ef 	jal	9d00a7bc <fputc>
9d00b914:	8c450004 	lw	a1,4(v0)
9d00b918:	8fbf0014 	lw	ra,20(sp)
9d00b91c:	03e00008 	jr	ra
9d00b920:	27bd0018 	addiu	sp,sp,24

Disassembly of section .text.getchar:

9d00b924 <getchar>:
9d00b924:	27bdffe8 	addiu	sp,sp,-24
9d00b928:	afbf0014 	sw	ra,20(sp)
9d00b92c:	3c02a000 	lui	v0,0xa000
9d00b930:	8c420004 	lw	v0,4(v0)
9d00b934:	0f402bd8 	jal	9d00af60 <fgetc>
9d00b938:	8c440000 	lw	a0,0(v0)
9d00b93c:	8fbf0014 	lw	ra,20(sp)
9d00b940:	03e00008 	jr	ra
9d00b944:	27bd0018 	addiu	sp,sp,24

Disassembly of section .text._vfprintf_cdfFnopuxX:

9d00b948 <_vfprintf_cdfFnopuxX>:
9d00b948:	27bdffe8 	addiu	sp,sp,-24
9d00b94c:	afbf0014 	sw	ra,20(sp)
9d00b950:	0f400a86 	jal	9d002a18 <_do_print_cdfFnopuxX>
9d00b954:	00000000 	nop
9d00b958:	8fbf0014 	lw	ra,20(sp)
9d00b95c:	03e00008 	jr	ra
9d00b960:	27bd0018 	addiu	sp,sp,24

Disassembly of section .text.putc:

9d00b964 <putc>:
9d00b964:	27bdffe8 	addiu	sp,sp,-24
9d00b968:	afbf0014 	sw	ra,20(sp)
9d00b96c:	0f4029ef 	jal	9d00a7bc <fputc>
9d00b970:	00000000 	nop
9d00b974:	8fbf0014 	lw	ra,20(sp)
9d00b978:	03e00008 	jr	ra
9d00b97c:	27bd0018 	addiu	sp,sp,24

Disassembly of section .text.vfscanf:

9d00b980 <vfscanf>:
9d00b980:	27bdffe8 	addiu	sp,sp,-24
9d00b984:	afbf0014 	sw	ra,20(sp)
9d00b988:	0f400780 	jal	9d001e00 <do_scan>
9d00b98c:	00000000 	nop
9d00b990:	8fbf0014 	lw	ra,20(sp)
9d00b994:	03e00008 	jr	ra
9d00b998:	27bd0018 	addiu	sp,sp,24

Disassembly of section .text.strtof:

9d00b99c <strtof>:
9d00b99c:	27bdffe8 	addiu	sp,sp,-24
9d00b9a0:	afbf0014 	sw	ra,20(sp)
9d00b9a4:	0f401e9d 	jal	9d007a74 <__strtof>
9d00b9a8:	00000000 	nop
9d00b9ac:	8fbf0014 	lw	ra,20(sp)
9d00b9b0:	03e00008 	jr	ra
9d00b9b4:	27bd0018 	addiu	sp,sp,24

Disassembly of section .text.getc:

9d00b9b8 <getc>:
9d00b9b8:	27bdffe8 	addiu	sp,sp,-24
9d00b9bc:	afbf0014 	sw	ra,20(sp)
9d00b9c0:	0f402bd8 	jal	9d00af60 <fgetc>
9d00b9c4:	00000000 	nop
9d00b9c8:	8fbf0014 	lw	ra,20(sp)
9d00b9cc:	03e00008 	jr	ra
9d00b9d0:	27bd0018 	addiu	sp,sp,24

Disassembly of section .text.negdf2:

9d00b9d4 <__negdf2>:
9d00b9d4:	3c018000 00a12826 00041025 00051825     ...<&(..%...%...

9d00b9e4 <M999>:
9d00b9e4:	03e00008 	jr	ra
9d00b9e8:	00000000 	nop
9d00b9ec:	00000000 	nop

Disassembly of section .text:

9d00b9f0 <_nmi_handler>:
9d00b9f0:	401a6000 	mfc0	k0,c0_status
9d00b9f4:	3c1bffbf 	lui	k1,0xffbf
9d00b9f8:	377bffff 	ori	k1,k1,0xffff
9d00b9fc:	035bd024 	and	k0,k0,k1
9d00ba00:	409a6000 	mtc0	k0,c0_status
9d00ba04:	42000018 	eret

Disassembly of section .rodata:

9d00ba08 <f5pow>:
9d00ba08:	40a00000 41c80000 441c4000 48bebc20     ...@...A.@.D ..H
9d00ba18:	520e1bca 649dc5ae                       ...R...d

Disassembly of section .text._io_exit:

9d00ba20 <_io_exit>:
9d00ba20:	3c02a000 	lui	v0,0xa000
9d00ba24:	8c420004 	lw	v0,4(v0)
9d00ba28:	24030001 	li	v1,1
9d00ba2c:	03e00008 	jr	ra
9d00ba30:	ac430038 	sw	v1,56(v0)

Disassembly of section .rodata:

9d00ba34 <_io_funcs>:
9d00ba34:	9d00b794 9d00a0ec 9d00ade0 9d00ae60     ............`...
9d00ba44:	9d00b7c8                                ....

Disassembly of section .text._io_exit:

9d00ba48 <.text._io_exit>:
9d00ba48:	3c02a000 	lui	v0,0xa000
9d00ba4c:	8c420004 	lw	v0,4(v0)
9d00ba50:	24030001 	li	v1,1
9d00ba54:	03e00008 	jr	ra
9d00ba58:	ac430038 	sw	v1,56(v0)

Disassembly of section .rodata:

9d00ba5c <_io_strfuncs>:
9d00ba5c:	9d00ba94 9d00ba9c 9d00baa4 9d00baac     ................
9d00ba6c:	9d00bab4                                ....

Disassembly of section .text.negsf2:

9d00ba70 <__negsf2>:
9d00ba70:	3c018000 00811026                       ...<&...

9d00ba78 <L999>:
9d00ba78:	03e00008 	jr	ra
9d00ba7c:	00000000 	nop
9d00ba80:	00000000 	nop

Disassembly of section .text._on_reset:

9d00ba84 <_on_reset>:
9d00ba84:	03e00008 	jr	ra
9d00ba88:	00000000 	nop

Disassembly of section .text._on_bootstrap:

9d00ba8c <_on_bootstrap>:
9d00ba8c:	03e00008 	jr	ra
9d00ba90:	00000000 	nop

Disassembly of section .text._filbuf_string:

9d00ba94 <_filbuf_string>:
9d00ba94:	03e00008 	jr	ra
9d00ba98:	2402ffff 	li	v0,-1

Disassembly of section .text._flsbuf_string:

9d00ba9c <_flsbuf_string>:
9d00ba9c:	03e00008 	jr	ra
9d00baa0:	00801021 	move	v0,a0

Disassembly of section .text._fflush_string:

9d00baa4 <_fflush_string>:
9d00baa4:	03e00008 	jr	ra
9d00baa8:	00001021 	move	v0,zero

Disassembly of section .text._fwrite_string:

9d00baac <_fwrite_string>:
9d00baac:	03e00008 	jr	ra
9d00bab0:	00001021 	move	v0,zero

Disassembly of section .text._fsync_string:

9d00bab4 <_fsync_string>:
9d00bab4:	03e00008 	jr	ra
9d00bab8:	24020001 	li	v0,1

Disassembly of section .text._weak_pthread_mutex_init:

9d00babc <_weak_pthread_mutex_init>:
9d00babc:	03e00008 	jr	ra
9d00bac0:	00001021 	move	v0,zero

Disassembly of section .text._weak_pthread_mutex_destroy:

9d00bac4 <_weak_pthread_mutex_destroy>:
9d00bac4:	03e00008 	jr	ra
9d00bac8:	00001021 	move	v0,zero

Disassembly of section .text._weak_pthread_mutex_lock:

9d00bacc <_weak_pthread_mutex_lock>:
9d00bacc:	03e00008 	jr	ra
9d00bad0:	00001021 	move	v0,zero

Disassembly of section .text._weak_pthread_mutex_trylock:

9d00bad4 <_weak_pthread_mutex_trylock>:
9d00bad4:	03e00008 	jr	ra
9d00bad8:	00001021 	move	v0,zero

Disassembly of section .text._weak_pthread_mutex_unlock:

9d00badc <_weak_pthread_mutex_unlock>:
9d00badc:	03e00008 	jr	ra
9d00bae0:	00001021 	move	v0,zero

Disassembly of section .text._weak_pthread_mutex_setname_np:

9d00bae4 <_weak_pthread_mutex_setname_np>:
9d00bae4:	03e00008 	jr	ra
9d00bae8:	00001021 	move	v0,zero

Disassembly of section .text._weak_pthread_mutexattr_init:

9d00baec <_weak_pthread_mutexattr_init>:
9d00baec:	03e00008 	jr	ra
9d00baf0:	00001021 	move	v0,zero

Disassembly of section .text._weak_pthread_mutexattr_destroy:

9d00baf4 <_weak_pthread_mutexattr_destroy>:
9d00baf4:	03e00008 	jr	ra
9d00baf8:	00001021 	move	v0,zero

Disassembly of section .text._weak_pthread_mutexattr_setname_np:

9d00bafc <_weak_pthread_mutexattr_setname_np>:
9d00bafc:	03e00008 	jr	ra
9d00bb00:	00001021 	move	v0,zero

Disassembly of section .text._weak_pthread_mutexattr_settype_np:

9d00bb04 <_weak_pthread_mutexattr_settype_np>:
9d00bb04:	03e00008 	jr	ra
9d00bb08:	00001021 	move	v0,zero

Disassembly of section .text._weak_pthread_sysconf_np:

9d00bb0c <_weak_pthread_sysconf_np>:
9d00bb0c:	03e00008 	jr	ra
9d00bb10:	2402ffff 	li	v0,-1

Disassembly of section .text._weak_pthread_sigdisable_np:

9d00bb14 <_weak_pthread_sigdisable_np>:
9d00bb14:	03e00008 	jr	ra
9d00bb18:	00000000 	nop

Disassembly of section .text._weak_pthread_sigrestore_np:

9d00bb1c <_weak_pthread_sigrestore_np>:
9d00bb1c:	03e00008 	jr	ra
9d00bb20:	00000000 	nop

Disassembly of section .text._weak__pthread_cleanup_push:

9d00bb24 <_weak__pthread_cleanup_push>:
9d00bb24:	03e00008 	jr	ra
9d00bb28:	00000000 	nop

Disassembly of section .text._weak__pthread_cleanup_pop:

9d00bb2c <_weak__pthread_cleanup_pop>:
9d00bb2c:	03e00008 	jr	ra
9d00bb30:	00000000 	nop

Disassembly of section .text._weak__pthread_cleanup_push_defer:

9d00bb34 <_weak__pthread_cleanup_push_defer>:
9d00bb34:	03e00008 	jr	ra
9d00bb38:	00000000 	nop

Disassembly of section .text._weak__pthread_cleanup_pop_restore:

9d00bb3c <_weak__pthread_cleanup_pop_restore>:
9d00bb3c:	03e00008 	jr	ra
9d00bb40:	00000000 	nop

Disassembly of section .text._weak_pthread_key_create:

9d00bb44 <_weak_pthread_key_create>:
9d00bb44:	03e00008 	jr	ra
9d00bb48:	2402ffff 	li	v0,-1

Disassembly of section .text._weak_pthread_setspecific:

9d00bb4c <_weak_pthread_setspecific>:
9d00bb4c:	03e00008 	jr	ra
9d00bb50:	2402ffff 	li	v0,-1

Disassembly of section .text._weak_pthread_getspecific:

9d00bb54 <_weak_pthread_getspecific>:
9d00bb54:	03e00008 	jr	ra
9d00bb58:	00001021 	move	v0,zero

Disassembly of section .text._weak__libc_private_storage:

9d00bb5c <_weak__libc_private_storage>:
9d00bb5c:	03e00008 	jr	ra
9d00bb60:	00a01021 	move	v0,a1

Disassembly of section .text.getpagesize:

9d00bb64 <getpagesize>:
9d00bb64:	03e00008 	jr	ra
9d00bb68:	24020080 	li	v0,128

Disassembly of section .text._exit:

9d00bb6c <_exit>:
9d00bb6c:	0b402edb 	j	9d00bb6c <_exit>
9d00bb70:	00000000 	nop

Disassembly of section .text.isatty:

9d00bb74 <isatty>:
9d00bb74:	03e00008 	jr	ra
9d00bb78:	00001021 	move	v0,zero
